Archive member included because of file (symbol)

c:/program files/atmel/atmel toolchain/avr32 gcc/native/3.4.2.1002/avr32-gnu-toolchain/bin/../lib/gcc/avr32/4.4.7/../../../../avr32/lib/ucr3fp\libm.a(lib_a-s_cos.o)
                              Library/sensing/qfilter.o (cos)
c:/program files/atmel/atmel toolchain/avr32 gcc/native/3.4.2.1002/avr32-gnu-toolchain/bin/../lib/gcc/avr32/4.4.7/../../../../avr32/lib/ucr3fp\libm.a(lib_a-s_sin.o)
                              Library/sensing/qfilter.o (sin)
c:/program files/atmel/atmel toolchain/avr32 gcc/native/3.4.2.1002/avr32-gnu-toolchain/bin/../lib/gcc/avr32/4.4.7/../../../../avr32/lib/ucr3fp\libm.a(lib_a-w_asin.o)
                              Library/util/coord_conventions.o (asin)
c:/program files/atmel/atmel toolchain/avr32 gcc/native/3.4.2.1002/avr32-gnu-toolchain/bin/../lib/gcc/avr32/4.4.7/../../../../avr32/lib/ucr3fp\libm.a(lib_a-w_atan2.o)
                              Library/control/stabilisation_copter.o (atan2)
c:/program files/atmel/atmel toolchain/avr32 gcc/native/3.4.2.1002/avr32-gnu-toolchain/bin/../lib/gcc/avr32/4.4.7/../../../../avr32/lib/ucr3fp\libm.a(lib_a-w_pow.o)
                              Library/hal/bmp085.o (pow)
c:/program files/atmel/atmel toolchain/avr32 gcc/native/3.4.2.1002/avr32-gnu-toolchain/bin/../lib/gcc/avr32/4.4.7/../../../../avr32/lib/ucr3fp\libm.a(lib_a-w_sqrt.o)
                              Library/control/orca.o (sqrt)
c:/program files/atmel/atmel toolchain/avr32 gcc/native/3.4.2.1002/avr32-gnu-toolchain/bin/../lib/gcc/avr32/4.4.7/../../../../avr32/lib/ucr3fp\libm.a(lib_a-e_asin.o)
                              c:/program files/atmel/atmel toolchain/avr32 gcc/native/3.4.2.1002/avr32-gnu-toolchain/bin/../lib/gcc/avr32/4.4.7/../../../../avr32/lib/ucr3fp\libm.a(lib_a-w_asin.o) (__ieee754_asin)
c:/program files/atmel/atmel toolchain/avr32 gcc/native/3.4.2.1002/avr32-gnu-toolchain/bin/../lib/gcc/avr32/4.4.7/../../../../avr32/lib/ucr3fp\libm.a(lib_a-e_atan2.o)
                              c:/program files/atmel/atmel toolchain/avr32 gcc/native/3.4.2.1002/avr32-gnu-toolchain/bin/../lib/gcc/avr32/4.4.7/../../../../avr32/lib/ucr3fp\libm.a(lib_a-w_atan2.o) (__ieee754_atan2)
c:/program files/atmel/atmel toolchain/avr32 gcc/native/3.4.2.1002/avr32-gnu-toolchain/bin/../lib/gcc/avr32/4.4.7/../../../../avr32/lib/ucr3fp\libm.a(lib_a-e_pow.o)
                              c:/program files/atmel/atmel toolchain/avr32 gcc/native/3.4.2.1002/avr32-gnu-toolchain/bin/../lib/gcc/avr32/4.4.7/../../../../avr32/lib/ucr3fp\libm.a(lib_a-w_pow.o) (__ieee754_pow)
c:/program files/atmel/atmel toolchain/avr32 gcc/native/3.4.2.1002/avr32-gnu-toolchain/bin/../lib/gcc/avr32/4.4.7/../../../../avr32/lib/ucr3fp\libm.a(lib_a-e_rem_pio2.o)
                              c:/program files/atmel/atmel toolchain/avr32 gcc/native/3.4.2.1002/avr32-gnu-toolchain/bin/../lib/gcc/avr32/4.4.7/../../../../avr32/lib/ucr3fp\libm.a(lib_a-s_cos.o) (__ieee754_rem_pio2)
c:/program files/atmel/atmel toolchain/avr32 gcc/native/3.4.2.1002/avr32-gnu-toolchain/bin/../lib/gcc/avr32/4.4.7/../../../../avr32/lib/ucr3fp\libm.a(lib_a-e_sqrt.o)
                              c:/program files/atmel/atmel toolchain/avr32 gcc/native/3.4.2.1002/avr32-gnu-toolchain/bin/../lib/gcc/avr32/4.4.7/../../../../avr32/lib/ucr3fp\libm.a(lib_a-w_sqrt.o) (__ieee754_sqrt)
c:/program files/atmel/atmel toolchain/avr32 gcc/native/3.4.2.1002/avr32-gnu-toolchain/bin/../lib/gcc/avr32/4.4.7/../../../../avr32/lib/ucr3fp\libm.a(lib_a-k_cos.o)
                              c:/program files/atmel/atmel toolchain/avr32 gcc/native/3.4.2.1002/avr32-gnu-toolchain/bin/../lib/gcc/avr32/4.4.7/../../../../avr32/lib/ucr3fp\libm.a(lib_a-s_cos.o) (__kernel_cos)
c:/program files/atmel/atmel toolchain/avr32 gcc/native/3.4.2.1002/avr32-gnu-toolchain/bin/../lib/gcc/avr32/4.4.7/../../../../avr32/lib/ucr3fp\libm.a(lib_a-k_rem_pio2.o)
                              c:/program files/atmel/atmel toolchain/avr32 gcc/native/3.4.2.1002/avr32-gnu-toolchain/bin/../lib/gcc/avr32/4.4.7/../../../../avr32/lib/ucr3fp\libm.a(lib_a-e_rem_pio2.o) (__kernel_rem_pio2)
c:/program files/atmel/atmel toolchain/avr32 gcc/native/3.4.2.1002/avr32-gnu-toolchain/bin/../lib/gcc/avr32/4.4.7/../../../../avr32/lib/ucr3fp\libm.a(lib_a-k_sin.o)
                              c:/program files/atmel/atmel toolchain/avr32 gcc/native/3.4.2.1002/avr32-gnu-toolchain/bin/../lib/gcc/avr32/4.4.7/../../../../avr32/lib/ucr3fp\libm.a(lib_a-s_cos.o) (__kernel_sin)
c:/program files/atmel/atmel toolchain/avr32 gcc/native/3.4.2.1002/avr32-gnu-toolchain/bin/../lib/gcc/avr32/4.4.7/../../../../avr32/lib/ucr3fp\libm.a(lib_a-s_atan.o)
                              c:/program files/atmel/atmel toolchain/avr32 gcc/native/3.4.2.1002/avr32-gnu-toolchain/bin/../lib/gcc/avr32/4.4.7/../../../../avr32/lib/ucr3fp\libm.a(lib_a-e_atan2.o) (atan)
c:/program files/atmel/atmel toolchain/avr32 gcc/native/3.4.2.1002/avr32-gnu-toolchain/bin/../lib/gcc/avr32/4.4.7/../../../../avr32/lib/ucr3fp\libm.a(lib_a-s_fabs.o)
                              c:/program files/atmel/atmel toolchain/avr32 gcc/native/3.4.2.1002/avr32-gnu-toolchain/bin/../lib/gcc/avr32/4.4.7/../../../../avr32/lib/ucr3fp\libm.a(lib_a-w_asin.o) (fabs)
c:/program files/atmel/atmel toolchain/avr32 gcc/native/3.4.2.1002/avr32-gnu-toolchain/bin/../lib/gcc/avr32/4.4.7/../../../../avr32/lib/ucr3fp\libm.a(lib_a-s_finite.o)
                              c:/program files/atmel/atmel toolchain/avr32 gcc/native/3.4.2.1002/avr32-gnu-toolchain/bin/../lib/gcc/avr32/4.4.7/../../../../avr32/lib/ucr3fp\libm.a(lib_a-w_pow.o) (finite)
c:/program files/atmel/atmel toolchain/avr32 gcc/native/3.4.2.1002/avr32-gnu-toolchain/bin/../lib/gcc/avr32/4.4.7/../../../../avr32/lib/ucr3fp\libm.a(lib_a-s_floor.o)
                              c:/program files/atmel/atmel toolchain/avr32 gcc/native/3.4.2.1002/avr32-gnu-toolchain/bin/../lib/gcc/avr32/4.4.7/../../../../avr32/lib/ucr3fp\libm.a(lib_a-k_rem_pio2.o) (floor)
c:/program files/atmel/atmel toolchain/avr32 gcc/native/3.4.2.1002/avr32-gnu-toolchain/bin/../lib/gcc/avr32/4.4.7/../../../../avr32/lib/ucr3fp\libm.a(lib_a-s_isnand.o)
                              c:/program files/atmel/atmel toolchain/avr32 gcc/native/3.4.2.1002/avr32-gnu-toolchain/bin/../lib/gcc/avr32/4.4.7/../../../../avr32/lib/ucr3fp\libm.a(lib_a-w_asin.o) (__isnand)
c:/program files/atmel/atmel toolchain/avr32 gcc/native/3.4.2.1002/avr32-gnu-toolchain/bin/../lib/gcc/avr32/4.4.7/../../../../avr32/lib/ucr3fp\libm.a(lib_a-s_lib_ver.o)
                              c:/program files/atmel/atmel toolchain/avr32 gcc/native/3.4.2.1002/avr32-gnu-toolchain/bin/../lib/gcc/avr32/4.4.7/../../../../avr32/lib/ucr3fp\libm.a(lib_a-w_asin.o) (__fdlib_version)
c:/program files/atmel/atmel toolchain/avr32 gcc/native/3.4.2.1002/avr32-gnu-toolchain/bin/../lib/gcc/avr32/4.4.7/../../../../avr32/lib/ucr3fp\libm.a(lib_a-s_matherr.o)
                              c:/program files/atmel/atmel toolchain/avr32 gcc/native/3.4.2.1002/avr32-gnu-toolchain/bin/../lib/gcc/avr32/4.4.7/../../../../avr32/lib/ucr3fp\libm.a(lib_a-w_asin.o) (matherr)
c:/program files/atmel/atmel toolchain/avr32 gcc/native/3.4.2.1002/avr32-gnu-toolchain/bin/../lib/gcc/avr32/4.4.7/../../../../avr32/lib/ucr3fp\libm.a(lib_a-s_nan.o)
                              c:/program files/atmel/atmel toolchain/avr32 gcc/native/3.4.2.1002/avr32-gnu-toolchain/bin/../lib/gcc/avr32/4.4.7/../../../../avr32/lib/ucr3fp\libm.a(lib_a-w_asin.o) (nan)
c:/program files/atmel/atmel toolchain/avr32 gcc/native/3.4.2.1002/avr32-gnu-toolchain/bin/../lib/gcc/avr32/4.4.7/../../../../avr32/lib/ucr3fp\libm.a(lib_a-s_rint.o)
                              c:/program files/atmel/atmel toolchain/avr32 gcc/native/3.4.2.1002/avr32-gnu-toolchain/bin/../lib/gcc/avr32/4.4.7/../../../../avr32/lib/ucr3fp\libm.a(lib_a-w_pow.o) (rint)
c:/program files/atmel/atmel toolchain/avr32 gcc/native/3.4.2.1002/avr32-gnu-toolchain/bin/../lib/gcc/avr32/4.4.7/../../../../avr32/lib/ucr3fp\libm.a(lib_a-s_scalbn.o)
                              c:/program files/atmel/atmel toolchain/avr32 gcc/native/3.4.2.1002/avr32-gnu-toolchain/bin/../lib/gcc/avr32/4.4.7/../../../../avr32/lib/ucr3fp\libm.a(lib_a-e_pow.o) (scalbn)
c:/program files/atmel/atmel toolchain/avr32 gcc/native/3.4.2.1002/avr32-gnu-toolchain/bin/../lib/gcc/avr32/4.4.7/../../../../avr32/lib/ucr3fp\libm.a(lib_a-s_copysign.o)
                              c:/program files/atmel/atmel toolchain/avr32 gcc/native/3.4.2.1002/avr32-gnu-toolchain/bin/../lib/gcc/avr32/4.4.7/../../../../avr32/lib/ucr3fp\libm.a(lib_a-s_scalbn.o) (copysign)
c:/program files/atmel/atmel toolchain/avr32 gcc/native/3.4.2.1002/avr32-gnu-toolchain/bin/../lib/gcc/avr32/4.4.7/ucr3fp\libgcc.a(_avr32_f64_mul.o)
                              Library/control/orca.o (__avr32_f64_mul)
c:/program files/atmel/atmel toolchain/avr32 gcc/native/3.4.2.1002/avr32-gnu-toolchain/bin/../lib/gcc/avr32/4.4.7/ucr3fp\libgcc.a(_avr32_f64_addsub.o)
                              Library/control/stabilisation_copter.o (__avr32_f64_sub)
c:/program files/atmel/atmel toolchain/avr32 gcc/native/3.4.2.1002/avr32-gnu-toolchain/bin/../lib/gcc/avr32/4.4.7/ucr3fp\libgcc.a(_avr32_f64_to_s32.o)
                              Library/sensing/position_estimation.o (__avr32_f64_to_u32)
c:/program files/atmel/atmel toolchain/avr32 gcc/native/3.4.2.1002/avr32-gnu-toolchain/bin/../lib/gcc/avr32/4.4.7/ucr3fp\libgcc.a(_avr32_s32_to_f64.o)
                              Library/hal/time_keeper.o (__avr32_u32_to_f64)
c:/program files/atmel/atmel toolchain/avr32 gcc/native/3.4.2.1002/avr32-gnu-toolchain/bin/../lib/gcc/avr32/4.4.7/ucr3fp\libgcc.a(_avr32_f64_cmp_eq.o)
                              c:/program files/atmel/atmel toolchain/avr32 gcc/native/3.4.2.1002/avr32-gnu-toolchain/bin/../lib/gcc/avr32/4.4.7/../../../../avr32/lib/ucr3fp\libm.a(lib_a-w_pow.o) (__avr32_f64_cmp_eq)
c:/program files/atmel/atmel toolchain/avr32 gcc/native/3.4.2.1002/avr32-gnu-toolchain/bin/../lib/gcc/avr32/4.4.7/ucr3fp\libgcc.a(_avr32_f64_cmp_ge.o)
                              Library/control/orca.o (__avr32_f64_cmp_ge)
c:/program files/atmel/atmel toolchain/avr32 gcc/native/3.4.2.1002/avr32-gnu-toolchain/bin/../lib/gcc/avr32/4.4.7/ucr3fp\libgcc.a(_avr32_f64_cmp_lt.o)
                              Library/control/pid_control.o (__avr32_f64_cmp_lt)
c:/program files/atmel/atmel toolchain/avr32 gcc/native/3.4.2.1002/avr32-gnu-toolchain/bin/../lib/gcc/avr32/4.4.7/ucr3fp\libgcc.a(_avr32_f64_div.o)
                              Library/control/neighbor_selection.o (__avr32_f64_div)
c:/program files/atmel/atmel toolchain/avr32 gcc/native/3.4.2.1002/avr32-gnu-toolchain/bin/../lib/gcc/avr32/4.4.7/ucr3fp\libgcc.a(_avr32_f32_div.o)
                              Library/control/orca.o (__avr32_f32_div)
c:/program files/atmel/atmel toolchain/avr32 gcc/native/3.4.2.1002/avr32-gnu-toolchain/bin/../lib/gcc/avr32/4.4.7/ucr3fp\libgcc.a(_avr32_f32_to_f64.o)
                              Library/control/orca.o (__avr32_f32_to_f64)
c:/program files/atmel/atmel toolchain/avr32 gcc/native/3.4.2.1002/avr32-gnu-toolchain/bin/../lib/gcc/avr32/4.4.7/ucr3fp\libgcc.a(_avr32_f64_to_f32.o)
                              Library/control/neighbor_selection.o (__avr32_f64_to_f32)
c:/program files/atmel/atmel toolchain/avr32 gcc/native/3.4.2.1002/avr32-gnu-toolchain/bin/../lib/gcc/avr32/4.4.7/ucr3fp\libgcc.a(_udivdi3.o)
                              src/asf/avr32/drivers/dacifb/dacifb.o (__avr32_udiv64)
c:/program files/atmel/atmel toolchain/avr32 gcc/native/3.4.2.1002/avr32-gnu-toolchain/bin/../lib/gcc/avr32/4.4.7/../../../../avr32/lib/ucr3fp\libc.a(lib_a-errno.o)
                              c:/program files/atmel/atmel toolchain/avr32 gcc/native/3.4.2.1002/avr32-gnu-toolchain/bin/../lib/gcc/avr32/4.4.7/../../../../avr32/lib/ucr3fp\libm.a(lib_a-w_asin.o) (__errno)
c:/program files/atmel/atmel toolchain/avr32 gcc/native/3.4.2.1002/avr32-gnu-toolchain/bin/../lib/gcc/avr32/4.4.7/../../../../avr32/lib/ucr3fp\libc.a(lib_a-impure.o)
                              c:/program files/atmel/atmel toolchain/avr32 gcc/native/3.4.2.1002/avr32-gnu-toolchain/bin/../lib/gcc/avr32/4.4.7/../../../../avr32/lib/ucr3fp\libc.a(lib_a-errno.o) (_impure_ptr)
c:/program files/atmel/atmel toolchain/avr32 gcc/native/3.4.2.1002/avr32-gnu-toolchain/bin/../lib/gcc/avr32/4.4.7/../../../../avr32/lib/ucr3fp\libc.a(lib_a-memcpy.o)
                              Library/control/neighbor_selection.o (memcpy)
c:/program files/atmel/atmel toolchain/avr32 gcc/native/3.4.2.1002/avr32-gnu-toolchain/bin/../lib/gcc/avr32/4.4.7/../../../../avr32/lib/ucr3fp\libc.a(lib_a-memset.o)
                              Library/control/neighbor_selection.o (memset)
c:/program files/atmel/atmel toolchain/avr32 gcc/native/3.4.2.1002/avr32-gnu-toolchain/bin/../lib/gcc/avr32/4.4.7/../../../../avr32/lib/ucr3fp\libc.a(lib_a-strcpy.o)
                              Library/communication/onboard_parameters.o (strcpy)
c:/program files/atmel/atmel toolchain/avr32 gcc/native/3.4.2.1002/avr32-gnu-toolchain/bin/../lib/gcc/avr32/4.4.7/../../../../avr32/lib/ucr3fp\libc.a(lib_a-strlen.o)
                              Library/communication/onboard_parameters.o (strlen)
c:/program files/atmel/atmel toolchain/avr32 gcc/native/3.4.2.1002/avr32-gnu-toolchain/bin/../lib/gcc/avr32/4.4.7/../../../../avr32/lib/ucr3fp\libc.a(lib_a-findfp.o)
                              c:/program files/atmel/atmel toolchain/avr32 gcc/native/3.4.2.1002/avr32-gnu-toolchain/bin/../lib/gcc/avr32/4.4.7/../../../../avr32/lib/ucr3fp\libc.a(lib_a-impure.o) (__sf_fake_stdin)
c:/program files/atmel/atmel toolchain/avr32 gcc/native/3.4.2.1002/avr32-gnu-toolchain/bin/../lib/gcc/avr32/4.4.7/../../../../avr32/lib/ucr3fp\libc.a(lib_a-fwalk.o)
                              c:/program files/atmel/atmel toolchain/avr32 gcc/native/3.4.2.1002/avr32-gnu-toolchain/bin/../lib/gcc/avr32/4.4.7/../../../../avr32/lib/ucr3fp\libc.a(lib_a-findfp.o) (_fwalk)
c:/program files/atmel/atmel toolchain/avr32 gcc/native/3.4.2.1002/avr32-gnu-toolchain/bin/../lib/gcc/avr32/4.4.7/../../../../avr32/lib/ucr3fp\libc.a(lib_a-mallocr.o)
                              c:/program files/atmel/atmel toolchain/avr32 gcc/native/3.4.2.1002/avr32-gnu-toolchain/bin/../lib/gcc/avr32/4.4.7/../../../../avr32/lib/ucr3fp\libc.a(lib_a-findfp.o) (_malloc_r)
c:/program files/atmel/atmel toolchain/avr32 gcc/native/3.4.2.1002/avr32-gnu-toolchain/bin/../lib/gcc/avr32/4.4.7/../../../../avr32/lib/ucr3fp\libc.a(lib_a-mlock.o)
                              c:/program files/atmel/atmel toolchain/avr32 gcc/native/3.4.2.1002/avr32-gnu-toolchain/bin/../lib/gcc/avr32/4.4.7/../../../../avr32/lib/ucr3fp\libc.a(lib_a-mallocr.o) (__malloc_lock)
c:/program files/atmel/atmel toolchain/avr32 gcc/native/3.4.2.1002/avr32-gnu-toolchain/bin/../lib/gcc/avr32/4.4.7/../../../../avr32/lib/ucr3fp\libc.a(lib_a-sbrkr.o)
                              c:/program files/atmel/atmel toolchain/avr32 gcc/native/3.4.2.1002/avr32-gnu-toolchain/bin/../lib/gcc/avr32/4.4.7/../../../../avr32/lib/ucr3fp\libc.a(lib_a-mallocr.o) (_sbrk_r)
c:/program files/atmel/atmel toolchain/avr32 gcc/native/3.4.2.1002/avr32-gnu-toolchain/bin/../lib/gcc/avr32/4.4.7/../../../../avr32/lib/ucr3fp\libc.a(lib_a-stdio.o)
                              c:/program files/atmel/atmel toolchain/avr32 gcc/native/3.4.2.1002/avr32-gnu-toolchain/bin/../lib/gcc/avr32/4.4.7/../../../../avr32/lib/ucr3fp\libc.a(lib_a-findfp.o) (__sclose)
c:/program files/atmel/atmel toolchain/avr32 gcc/native/3.4.2.1002/avr32-gnu-toolchain/bin/../lib/gcc/avr32/4.4.7/../../../../avr32/lib/ucr3fp\libc.a(lib_a-syscalls.o)
                              c:/program files/atmel/atmel toolchain/avr32 gcc/native/3.4.2.1002/avr32-gnu-toolchain/bin/../lib/gcc/avr32/4.4.7/../../../../avr32/lib/ucr3fp\libc.a(lib_a-sbrkr.o) (_sbrk)
c:/program files/atmel/atmel toolchain/avr32 gcc/native/3.4.2.1002/avr32-gnu-toolchain/bin/../lib/gcc/avr32/4.4.7/../../../../avr32/lib/ucr3fp\libc.a(lib_a-writer.o)
                              c:/program files/atmel/atmel toolchain/avr32 gcc/native/3.4.2.1002/avr32-gnu-toolchain/bin/../lib/gcc/avr32/4.4.7/../../../../avr32/lib/ucr3fp\libc.a(lib_a-stdio.o) (_write_r)
c:/program files/atmel/atmel toolchain/avr32 gcc/native/3.4.2.1002/avr32-gnu-toolchain/bin/../lib/gcc/avr32/4.4.7/../../../../avr32/lib/ucr3fp\libc.a(lib_a-closer.o)
                              c:/program files/atmel/atmel toolchain/avr32 gcc/native/3.4.2.1002/avr32-gnu-toolchain/bin/../lib/gcc/avr32/4.4.7/../../../../avr32/lib/ucr3fp\libc.a(lib_a-stdio.o) (_close_r)
c:/program files/atmel/atmel toolchain/avr32 gcc/native/3.4.2.1002/avr32-gnu-toolchain/bin/../lib/gcc/avr32/4.4.7/../../../../avr32/lib/ucr3fp\libc.a(lib_a-fclose.o)
                              c:/program files/atmel/atmel toolchain/avr32 gcc/native/3.4.2.1002/avr32-gnu-toolchain/bin/../lib/gcc/avr32/4.4.7/../../../../avr32/lib/ucr3fp\libc.a(lib_a-findfp.o) (fclose)
c:/program files/atmel/atmel toolchain/avr32 gcc/native/3.4.2.1002/avr32-gnu-toolchain/bin/../lib/gcc/avr32/4.4.7/../../../../avr32/lib/ucr3fp\libc.a(lib_a-fflush.o)
                              c:/program files/atmel/atmel toolchain/avr32 gcc/native/3.4.2.1002/avr32-gnu-toolchain/bin/../lib/gcc/avr32/4.4.7/../../../../avr32/lib/ucr3fp\libc.a(lib_a-fclose.o) (_fflush_r)
c:/program files/atmel/atmel toolchain/avr32 gcc/native/3.4.2.1002/avr32-gnu-toolchain/bin/../lib/gcc/avr32/4.4.7/../../../../avr32/lib/ucr3fp\libc.a(lib_a-freer.o)
                              c:/program files/atmel/atmel toolchain/avr32 gcc/native/3.4.2.1002/avr32-gnu-toolchain/bin/../lib/gcc/avr32/4.4.7/../../../../avr32/lib/ucr3fp\libc.a(lib_a-mallocr.o) (_free_r)
c:/program files/atmel/atmel toolchain/avr32 gcc/native/3.4.2.1002/avr32-gnu-toolchain/bin/../lib/gcc/avr32/4.4.7/../../../../avr32/lib/ucr3fp\libc.a(lib_a-lseekr.o)
                              c:/program files/atmel/atmel toolchain/avr32 gcc/native/3.4.2.1002/avr32-gnu-toolchain/bin/../lib/gcc/avr32/4.4.7/../../../../avr32/lib/ucr3fp\libc.a(lib_a-stdio.o) (_lseek_r)
c:/program files/atmel/atmel toolchain/avr32 gcc/native/3.4.2.1002/avr32-gnu-toolchain/bin/../lib/gcc/avr32/4.4.7/../../../../avr32/lib/ucr3fp\libc.a(lib_a-readr.o)
                              c:/program files/atmel/atmel toolchain/avr32 gcc/native/3.4.2.1002/avr32-gnu-toolchain/bin/../lib/gcc/avr32/4.4.7/../../../../avr32/lib/ucr3fp\libc.a(lib_a-stdio.o) (_read_r)
c:/program files/atmel/atmel toolchain/avr32 gcc/native/3.4.2.1002/avr32-gnu-toolchain/bin/../lib/gcc/avr32/4.4.7/../../../../avr32/lib/ucr3fp\libc.a(lib_a-reent.o)
                              c:/program files/atmel/atmel toolchain/avr32 gcc/native/3.4.2.1002/avr32-gnu-toolchain/bin/../lib/gcc/avr32/4.4.7/../../../../avr32/lib/ucr3fp\libc.a(lib_a-sbrkr.o) (errno)

Allocating common symbols
Common symbol       size              file

adci_buffer         0x4               Library/hal/adc_int.o
deb_stream          0x4               Library/communication/ishtar_stream.o
udd_ep_out_cache_buffer
                    0xc0              src/asf/avr32/drivers/usbc/usbc_device.o
main_target         0xc               Library/hal/radar_module_driver.o
payload_length      0x2               Library/control/neighbor_selection.o
ishtar_ckA          0x1               Library/communication/ishtar.o
Q2                  0x48              Library/sensing/estimator.o
ishtar_externalSendFunc
                    0x4               Library/communication/ishtar.o
ishtar_bufEnd       0x4               Library/communication/ishtar.o
ubx_TimTPMessage    0x20              Library/sensing/gps_ublox.o
b2                  0x2               Library/hal/bmp085.o
ishtar_externalFlushFunc
                    0x4               Library/communication/ishtar.o
errno               0x4               c:/program files/atmel/atmel toolchain/avr32 gcc/native/3.4.2.1002/avr32-gnu-toolchain/bin/../lib/gcc/avr32/4.4.7/../../../../avr32/lib/ucr3fp\libc.a(lib_a-reent.o)
ishtar_currentSendFunc
                    0x4               Library/communication/ishtar.o
mb                  0x2               Library/hal/bmp085.o
continuous_mode     0x1               Library/hal/adc_int.o
ac1                 0x2               Library/hal/bmp085.o
param_set           0xd2c             Library/communication/onboard_parameters.o
ubxclass            0x1               Library/control/neighbor_selection.o
waypoint_request_number
                    0x4               Library/control/neighbor_selection.o
ubx_statusMessage   0x20              Library/sensing/gps_ublox.o
Q                   0x48              Library/sensing/estimator.o
b1                  0x2               Library/hal/bmp085.o
ac6                 0x2               Library/hal/bmp085.o
start_timeout       0x4               Library/control/neighbor_selection.o
eic_options         0x6               Library/hal/ads1274.o
P2                  0xd8              Library/sensing/estimator.o
ptr_get             0x4               src/asf/common/utils/stdio/read.o
new_position        0x1               Library/control/neighbor_selection.o
idleTimer           0x4               Library/control/neighbor_selection.o
alt_integrator      0x4               Library/control/navigation.o
last_ground_speed_cm
                    0x4               Library/control/neighbor_selection.o
ac5                 0x2               Library/hal/bmp085.o
ishtar_externalSendBlockingFunc
                    0x4               Library/communication/ishtar.o
ac2                 0x2               Library/hal/bmp085.o
ubx_NavSettingsMessage
                    0x48              Library/sensing/gps_ublox.o
outbound_stream     0x4               Library/communication/ishtar_stream.o
ptr_put             0x4               src/asf/common/utils/stdio/write.o
even_odd            0x1               Library/hal/adc_int.o
md                  0x2               Library/hal/bmp085.o
adcifa_sequencer0_conversion_opt
                    0x18              Library/hal/adc_int.o
spRec2              0x134             Library/hal/remote_dsm2.o
ubx_posllhMessage   0x38              Library/sensing/gps_ublox.o
ac4                 0x2               Library/hal/bmp085.o
msg_id              0x1               Library/control/neighbor_selection.o
ptr_nvram           0x4               src/mavlink_actions.o
ubx_CFGSetGetRateMessage
                    0x6               Library/sensing/gps_ublox.o
next_fix            0x1               Library/control/neighbor_selection.o
imu_last_update_init
                    0x1               Library/control/neighbor_selection.o
engine_nav_setting  0x4               Library/control/neighbor_selection.o
velocity_east       0x4               Library/control/neighbor_selection.o
fix_count           0x1               Library/control/neighbor_selection.o
timeHorizon         0x4               Library/control/orca.o
filter_init_delta_t
                    0x1               Library/control/neighbor_selection.o
prev_time           0x4               Library/control/neighbor_selection.o
mc                  0x2               Library/hal/bmp085.o
cksum_a             0x1               Library/control/neighbor_selection.o
idleTimeout         0x4               Library/control/neighbor_selection.o
last_fix_time       0x4               Library/control/neighbor_selection.o
baro                0x4               Library/sensing/estimator.o
mavlink_system      0x6               Library/control/neighbor_selection.o
udd_g_ctrlreq       0x18              src/asf/avr32/drivers/usbc/usbc_device.o
sending_wp_num      0x4               Library/control/neighbor_selection.o
internal_buffer     0x40              Library/hal/adc_int.o
timeout_max_wp      0x4               Library/control/neighbor_selection.o
ishtar_bufBegin     0x4               Library/communication/ishtar.o
mavlink_mission_planner
                    0x6               Library/control/neighbor_selection.o
velocity_down       0x4               Library/control/neighbor_selection.o
stdio_base          0x4               src/asf/common/utils/stdio/write.o
disable_counter     0x1               Library/control/neighbor_selection.o
channelCenter       0x20              Library/hal/remote_dsm2.o
centralData         0x4               Library/control/neighbor_selection.o
fix                 0x1               Library/control/neighbor_selection.o
sleepmgr_locks      0x7               src/asf/common/services/sleepmgr/uc3/sleepmgr.o
ubx_solutionMessage
                    0x68              Library/sensing/gps_ublox.o
cksum_b             0x1               Library/control/neighbor_selection.o
ubx_CFGRateMessage  0xc               Library/sensing/gps_ublox.o
ubx_velnedMessage   0x48              Library/sensing/gps_ublox.o
R                   0x18              Library/sensing/estimator.o
payload_counter     0x2               Library/control/neighbor_selection.o
pressure_outputs    0x38              Library/hal/bmp085.o
R2                  0x18              Library/sensing/estimator.o
ishtar_dataStartMarker
                    0x4               Library/communication/ishtar.o
step                0x1               Library/control/neighbor_selection.o
gcfg                0x4               Library/hal/ads1274.o
last_baro_update    0x4               src/tasks.o
invTimeHorizon      0x4               Library/control/orca.o
spRec1              0x134             Library/hal/remote_dsm2.o
ishtar_bufPos       0x4               Library/communication/ishtar.o
ishtar_ckB          0x1               Library/communication/ishtar.o
monitor_buffer      0x50              Library/hal/analog_monitor.o
have_raw_velocity   0x1               Library/control/neighbor_selection.o
new_speed           0x1               Library/control/neighbor_selection.o
ubx_TimVRFYMessage  0x28              Library/sensing/gps_ublox.o
front_mag_vect_z    0x4               Library/sensing/qfilter.o
nav_settings        0x24              Library/control/neighbor_selection.o
nvram_array         0x4               Library/control/neighbor_selection.o
udd_ctrl_buffer     0x40              src/asf/avr32/drivers/usbc/usbc_device.o
ishtar_buffer       0x12c             Library/communication/ishtar.o
ishtar_services     0x1770            Library/communication/ishtar.o
ishtar_consumePos   0x4               Library/communication/ishtar.o
ac3                 0x2               Library/hal/bmp085.o
velocity_north      0x4               Library/control/neighbor_selection.o
num_waypoint_onboard
                    0x2               Library/control/neighbor_selection.o
ubx_svInfoMessage   0x190             Library/sensing/gps_ublox.o
P                   0xd8              Library/sensing/estimator.o
blocking            0x1               Library/util/print_util.o
inbound_stream      0x18              Library/communication/ishtar_stream.o
ic                  0x4               Library/sensing/imu.o
timeLastGpsMsgEstimator
                    0x4               Library/sensing/estimator.o
ubx_MONRXRMessage   0x2               Library/sensing/gps_ublox.o

Discarded input sections

 .data          0x00000000       0x4c Library/control/neighbor_selection.o
 .bss           0x00000000        0x0 Library/control/neighbor_selection.o
 .data.vehicle_model_parameters
                0x00000000      0x194 Library/control/neighbor_selection.o
 .rodata.servo_failsafe
                0x00000000       0x80 Library/control/neighbor_selection.o
 .data          0x00000000       0x40 Library/control/orca.o
 .bss           0x00000000        0x0 Library/control/orca.o
 .data.vehicle_model_parameters
                0x00000000      0x194 Library/control/orca.o
 .rodata.servo_failsafe
                0x00000000       0x80 Library/control/orca.o
 .data          0x00000000       0x28 Library/control/pid_control.o
 .bss           0x00000000        0x0 Library/control/pid_control.o
 .data          0x00000000       0x20 Library/control/stabilisation_copter.o
 .bss           0x00000000        0x0 Library/control/stabilisation_copter.o
 .data.vehicle_model_parameters
                0x00000000      0x194 Library/control/stabilisation_copter.o
 .rodata.servo_failsafe
                0x00000000       0x80 Library/control/stabilisation_copter.o
 .text          0x00000000        0x0 Library/control/stabilisation_hybrid.o
 .data          0x00000000        0x0 Library/control/stabilisation_hybrid.o
 .bss           0x00000000        0x0 Library/control/stabilisation_hybrid.o
 .debug_abbrev  0x00000000       0xa7 Library/control/stabilisation_hybrid.o
 .debug_info    0x00000000      0x3c8 Library/control/stabilisation_hybrid.o
 .debug_line    0x00000000       0xe0 Library/control/stabilisation_hybrid.o
 .debug_pubnames
                0x00000000      0x19f Library/control/stabilisation_hybrid.o
 .debug_str     0x00000000      0x3bb Library/control/stabilisation_hybrid.o
 .comment       0x00000000       0x31 Library/control/stabilisation_hybrid.o
 .data          0x00000000       0x1c Library/hal/analog_monitor.o
 .bss           0x00000000        0x0 Library/hal/analog_monitor.o
 .text          0x00000000      0x5f4 Library/hal/lsm330dlc_driver.o
 .data          0x00000000       0x24 Library/hal/lsm330dlc_driver.o
 .bss           0x00000000        0x0 Library/hal/lsm330dlc_driver.o
 .debug_abbrev  0x00000000      0x1a9 Library/hal/lsm330dlc_driver.o
 .debug_info    0x00000000     0x10b5 Library/hal/lsm330dlc_driver.o
 .debug_line    0x00000000      0x25a Library/hal/lsm330dlc_driver.o
 .rodata.lsm_acc_default_config
                0x00000000        0x6 Library/hal/lsm330dlc_driver.o
 .rodata.lsm_gyro_default_config
                0x00000000        0x6 Library/hal/lsm330dlc_driver.o
 .rodata.fifo_config
                0x00000000        0x4 Library/hal/lsm330dlc_driver.o
 .bss.lsm_gyro_outputs
                0x00000000        0x8 Library/hal/lsm330dlc_driver.o
 .bss.lsm_acc_outputs
                0x00000000        0x8 Library/hal/lsm330dlc_driver.o
 .data.twi_opt.15166
                0x00000000       0x10 Library/hal/lsm330dlc_driver.o
 .debug_frame   0x00000000      0x130 Library/hal/lsm330dlc_driver.o
 .debug_loc     0x00000000      0x183 Library/hal/lsm330dlc_driver.o
 .debug_pubnames
                0x00000000       0xd8 Library/hal/lsm330dlc_driver.o
 .debug_aranges
                0x00000000       0x20 Library/hal/lsm330dlc_driver.o
 .debug_str     0x00000000      0x5a0 Library/hal/lsm330dlc_driver.o
 .comment       0x00000000       0x31 Library/hal/lsm330dlc_driver.o
 .data          0x00000000       0x18 Library/hal/time_keeper.o
 .bss           0x00000000        0x0 Library/hal/time_keeper.o
 .data          0x00000000       0x34 Library/sensing/estimator.o
 .bss           0x00000000        0x0 Library/sensing/estimator.o
 .data.vehicle_model_parameters
                0x00000000      0x194 Library/sensing/estimator.o
 .rodata.servo_failsafe
                0x00000000       0x80 Library/sensing/estimator.o
 .data          0x00000000       0x2c Library/sensing/position_estimation.o
 .bss           0x00000000        0x0 Library/sensing/position_estimation.o
 .data          0x00000000       0x24 Library/sensing/qfilter.o
 .bss           0x00000000        0x0 Library/sensing/qfilter.o
 .data          0x00000000       0x20 src/central_data.o
 .bss           0x00000000        0x0 src/central_data.o
 .data.vehicle_model_parameters
                0x00000000      0x194 src/central_data.o
 .rodata.servo_failsafe
                0x00000000       0x80 src/central_data.o
 .data          0x00000000       0xd4 src/mavlink_actions.o
 .bss           0x00000000        0x0 src/mavlink_actions.o
 .data.vehicle_model_parameters
                0x00000000      0x194 src/mavlink_actions.o
 .rodata.servo_failsafe
                0x00000000       0x80 src/mavlink_actions.o
 .rodata.write_data
                0x00000000        0x8 src/mavlink_actions.o
 COMMON         0x00000000        0x4 src/mavlink_actions.o
 .data          0x00000000       0x44 src/tasks.o
 .bss           0x00000000        0x0 src/tasks.o
 .rodata.write_data
                0x00000000        0x8 src/tasks.o
 .data.vehicle_model_parameters
                0x00000000      0x194 src/tasks.o
 COMMON         0x00000000        0x4 src/tasks.o
 .text          0x00000000     0x289c Library/communication/ishtar.o
 .data          0x00000000       0x84 Library/communication/ishtar.o
 .bss           0x00000000        0x0 Library/communication/ishtar.o
 .debug_abbrev  0x00000000      0x19a Library/communication/ishtar.o
 .debug_info    0x00000000     0x11a3 Library/communication/ishtar.o
 .debug_line    0x00000000      0x431 Library/communication/ishtar.o
 .bss.ishtar_numberOfOverflows
                0x00000000        0x4 Library/communication/ishtar.o
 .bss.ishtar_numberOfDropHeader1
                0x00000000        0x4 Library/communication/ishtar.o
 .bss.ishtar_numberOfDropHeader2
                0x00000000        0x4 Library/communication/ishtar.o
 .bss.ishtar_numberOfDropHeader3
                0x00000000        0x4 Library/communication/ishtar.o
 .bss.ishtar_numberOfDropHeader4
                0x00000000        0x4 Library/communication/ishtar.o
 .bss.ishtar_numberOfDropSize
                0x00000000        0x4 Library/communication/ishtar.o
 .bss.ishtar_numberOfDropContent
                0x00000000        0x4 Library/communication/ishtar.o
 .bss.ishtar_numberOfBytesReceived
                0x00000000        0x4 Library/communication/ishtar.o
 .bss.ishtar_numberOfBytesSent
                0x00000000        0x4 Library/communication/ishtar.o
 .bss.ishtar_numberOfBytesReadFromMemory
                0x00000000        0x4 Library/communication/ishtar.o
 .bss.ishtar_numberOfBytesWrittenToMemory
                0x00000000        0x4 Library/communication/ishtar.o
 .bss.ishtar_numberOfValidMessages
                0x00000000        0x4 Library/communication/ishtar.o
 .bss.ishtar_corruptedValidated
                0x00000000        0x4 Library/communication/ishtar.o
 .bss.ishtar_snapshotSize
                0x00000000        0x4 Library/communication/ishtar.o
 .bss.ishtar_memoryError
                0x00000000        0x1 Library/communication/ishtar.o
 .bss.ishtar_numberOfVariables
                0x00000000        0x2 Library/communication/ishtar.o
 .bss.ishtar_snapshotId
                0x00000000        0x2 Library/communication/ishtar.o
 .bss.ishtar_snapshotActive
                0x00000000        0x1 Library/communication/ishtar.o
 .bss.ishtar_packetBegin
                0x00000000        0x4 Library/communication/ishtar.o
 .data.ishtar_state
                0x00000000        0x1 Library/communication/ishtar.o
 .bss.ishtar_overFlow
                0x00000000        0x1 Library/communication/ishtar.o
 .bss.ishtar_sizeByteNum
                0x00000000        0x1 Library/communication/ishtar.o
 .bss.ishtar_checksumByteNum
                0x00000000        0x1 Library/communication/ishtar.o
 .bss.ishtar_sizeChecksumRead
                0x00000000        0x2 Library/communication/ishtar.o
 .bss.ishtar_contentChecksumRead
                0x00000000        0x2 Library/communication/ishtar.o
 .bss.ishtar_curPacketSize
                0x00000000        0x4 Library/communication/ishtar.o
 .bss.ishtar_curSize
                0x00000000        0x4 Library/communication/ishtar.o
 .bss.ishtar_connected
                0x00000000        0x1 Library/communication/ishtar.o
 .bss.ishtar_memoryMinAddress
                0x00000000        0x2 Library/communication/ishtar.o
 .bss.ishtar_memoryMaxAddress
                0x00000000        0x2 Library/communication/ishtar.o
 .bss.ishtar_memoryReadFunc
                0x00000000        0x4 Library/communication/ishtar.o
 .bss.ishtar_memoryWriteFunc
                0x00000000        0x4 Library/communication/ishtar.o
 .bss.ishtar_memoryChecksumA
                0x00000000        0x1 Library/communication/ishtar.o
 .bss.ishtar_memoryChecksumB
                0x00000000        0x1 Library/communication/ishtar.o
 .debug_frame   0x00000000      0x434 Library/communication/ishtar.o
 .debug_loc     0x00000000      0x58b Library/communication/ishtar.o
 .debug_pubnames
                0x00000000      0x7ef Library/communication/ishtar.o
 .debug_aranges
                0x00000000       0x20 Library/communication/ishtar.o
 .debug_str     0x00000000      0xc56 Library/communication/ishtar.o
 .comment       0x00000000       0x31 Library/communication/ishtar.o
 COMMON         0x00000000     0x18c8 Library/communication/ishtar.o
 .text          0x00000000      0x1e8 Library/communication/ishtar_stream.o
 .data          0x00000000       0x18 Library/communication/ishtar_stream.o
 .bss           0x00000000        0x0 Library/communication/ishtar_stream.o
 .data.usart_opt
                0x00000000      0xac8 Library/communication/ishtar_stream.o
 .data.vehicle_model_parameters
                0x00000000      0x194 Library/communication/ishtar_stream.o
 .rodata.servo_failsafe
                0x00000000       0x80 Library/communication/ishtar_stream.o
 .data          0x00000000       0xc8 Library/communication/mavlink_stream.o
 .bss           0x00000000        0x0 Library/communication/mavlink_stream.o
 .data.vehicle_model_parameters
                0x00000000      0x194 Library/communication/mavlink_stream.o
 .rodata.servo_failsafe
                0x00000000       0x80 Library/communication/mavlink_stream.o
 .bss.mavlink_in_buffer
                0x00000000      0x103 Library/communication/mavlink_stream.o
 .data          0x00000000       0x80 Library/communication/onboard_parameters.o
 .bss           0x00000000        0x0 Library/communication/onboard_parameters.o
 .data          0x00000000       0x40 Library/control/navigation.o
 .bss           0x00000000        0x0 Library/control/navigation.o
 .data.vehicle_model_parameters
                0x00000000      0x194 Library/control/navigation.o
 .rodata.servo_failsafe
                0x00000000       0x80 Library/control/navigation.o
 .data          0x00000000        0x4 Library/control/stabilisation.o
 .bss           0x00000000        0x0 Library/control/stabilisation.o
 .data          0x00000000       0x28 Library/hal/adc_int.o
 .bss           0x00000000        0x0 Library/hal/adc_int.o
 .data          0x00000000       0x48 Library/hal/ads1274.o
 .bss           0x00000000        0x0 Library/hal/ads1274.o
 .data.waveform_opt
                0x00000000        0x8 Library/hal/ads1274.o
 .data.tc       0x00000000        0x4 Library/hal/ads1274.o
 .data          0x00000000       0x10 Library/hal/adxl345_driver.o
 .bss           0x00000000        0x0 Library/hal/adxl345_driver.o
 .text          0x00000000      0x108 Library/hal/amplifiers.o
 .data          0x00000000        0xc Library/hal/amplifiers.o
 .bss           0x00000000        0x0 Library/hal/amplifiers.o
 .debug_abbrev  0x00000000       0x6a Library/hal/amplifiers.o
 .debug_info    0x00000000       0xd7 Library/hal/amplifiers.o
 .debug_line    0x00000000       0x78 Library/hal/amplifiers.o
 .debug_frame   0x00000000       0x70 Library/hal/amplifiers.o
 .debug_loc     0x00000000       0x81 Library/hal/amplifiers.o
 .debug_pubnames
                0x00000000       0x4c Library/hal/amplifiers.o
 .debug_aranges
                0x00000000       0x20 Library/hal/amplifiers.o
 .debug_str     0x00000000      0x127 Library/hal/amplifiers.o
 .comment       0x00000000       0x31 Library/hal/amplifiers.o
 .data          0x00000000       0x1c Library/hal/bmp085.o
 .bss           0x00000000        0x0 Library/hal/bmp085.o
 .data          0x00000000        0x8 Library/hal/compass_hmc5883l.o
 .bss           0x00000000        0x0 Library/hal/compass_hmc5883l.o
 .data          0x00000000       0x28 Library/hal/dac_dma.o
 .bss           0x00000000        0x0 Library/hal/dac_dma.o
 .data.dac_value_audio
                0x00000000        0x2 Library/hal/dac_dma.o
 .data          0x00000000       0x34 Library/hal/i2c_driver.o
 .bss           0x00000000        0x0 Library/hal/i2c_driver.o
 .data          0x00000000       0x14 Library/hal/itg3200_driver.o
 .bss           0x00000000        0x0 Library/hal/itg3200_driver.o
 .data          0x00000000       0x30 Library/hal/led.o
 .bss           0x00000000        0x0 Library/hal/led.o
 .data          0x00000000        0xc Library/hal/radar_module_driver.o
 .bss           0x00000000        0x0 Library/hal/radar_module_driver.o
 .data          0x00000000        0xc Library/hal/servo_pwm.o
 .bss           0x00000000        0x0 Library/hal/servo_pwm.o
 .data          0x00000000       0x2c Library/hal/remote_dsm2.o
 .bss           0x00000000        0x0 Library/hal/remote_dsm2.o
 .bss.packet_byte_counter
                0x00000000        0x1 Library/hal/remote_dsm2.o
 .data          0x00000000       0x90 Library/hal/spi_buffered.o
 .bss           0x00000000        0x0 Library/hal/spi_buffered.o
 .data          0x00000000       0x48 Library/hal/uart_int.o
 .bss           0x00000000        0x0 Library/hal/uart_int.o
 .data          0x00000000       0x2c Library/runtime/scheduler.o
 .bss           0x00000000        0x0 Library/runtime/scheduler.o
 .data          0x00000000       0x6c Library/sensing/gps_ublox.o
 .bss           0x00000000        0x0 Library/sensing/gps_ublox.o
 .data.vehicle_model_parameters
                0x00000000      0x194 Library/sensing/gps_ublox.o
 .rodata.servo_failsafe
                0x00000000       0x80 Library/sensing/gps_ublox.o
 .rodata.baudrates.33023
                0x00000000       0x10 Library/sensing/gps_ublox.o
 .data          0x00000000       0x10 Library/sensing/imu.o
 .bss           0x00000000        0x0 Library/sensing/imu.o
 .rodata.lsm_acc_default_config
                0x00000000        0x6 Library/sensing/imu.o
 .rodata.lsm_gyro_default_config
                0x00000000        0x6 Library/sensing/imu.o
 .rodata.fifo_config
                0x00000000        0x4 Library/sensing/imu.o
 COMMON         0x00000000        0x4 Library/sensing/imu.o
 .data          0x00000000       0x40 Library/sensing/simulation.o
 .bss           0x00000000        0x0 Library/sensing/simulation.o
 .rodata.servo_failsafe
                0x00000000       0x80 Library/sensing/simulation.o
 .data          0x00000000      0x140 Library/sensing/mavlink_waypoint_handler.o
 .bss           0x00000000        0x0 Library/sensing/mavlink_waypoint_handler.o
 .data.vehicle_model_parameters
                0x00000000      0x194 Library/sensing/mavlink_waypoint_handler.o
 .rodata.servo_failsafe
                0x00000000       0x80 Library/sensing/mavlink_waypoint_handler.o
 .data          0x00000000       0x28 Library/util/buffer.o
 .bss           0x00000000        0x0 Library/util/buffer.o
 .data          0x00000000       0x10 Library/util/coord_conventions.o
 .bss           0x00000000        0x0 Library/util/coord_conventions.o
 .text          0x00000000      0x214 Library/util/generator.o
 .data          0x00000000       0x10 Library/util/generator.o
 .bss           0x00000000        0x0 Library/util/generator.o
 .debug_abbrev  0x00000000      0x1fb Library/util/generator.o
 .debug_info    0x00000000     0x2a71 Library/util/generator.o
 .debug_line    0x00000000      0x277 Library/util/generator.o
 .data.usart_opt
                0x00000000      0xac8 Library/util/generator.o
 .bss.dac_function_buffer
                0x00000000      0x400 Library/util/generator.o
 .debug_frame   0x00000000       0x94 Library/util/generator.o
 .debug_loc     0x00000000       0xac Library/util/generator.o
 .debug_pubnames
                0x00000000       0x73 Library/util/generator.o
 .debug_aranges
                0x00000000       0x20 Library/util/generator.o
 .debug_str     0x00000000      0x92e Library/util/generator.o
 .comment       0x00000000       0x31 Library/util/generator.o
 .data          0x00000000       0x38 Library/util/print_util.o
 .bss           0x00000000        0x0 Library/util/print_util.o
 COMMON         0x00000000        0x1 Library/util/print_util.o
 .text          0x00000000        0x0 Library/util/sinus.o
 .data          0x00000000        0x0 Library/util/sinus.o
 .bss           0x00000000        0x0 Library/util/sinus.o
 .debug_abbrev  0x00000000       0x70 Library/util/sinus.o
 .debug_info    0x00000000       0xc3 Library/util/sinus.o
 .debug_line    0x00000000       0xf5 Library/util/sinus.o
 .data.sin_table
                0x00000000       0x78 Library/util/sinus.o
 .debug_pubnames
                0x00000000       0x20 Library/util/sinus.o
 .debug_str     0x00000000       0xfd Library/util/sinus.o
 .comment       0x00000000       0x31 Library/util/sinus.o
 .data          0x00000000       0x34 src/asf/avr32/drivers/adcifa/adcifa.o
 .bss           0x00000000        0x0 src/asf/avr32/drivers/adcifa/adcifa.o
 .data          0x00000000       0x54 src/asf/avr32/drivers/ast/ast.o
 .bss           0x00000000        0x0 src/asf/avr32/drivers/ast/ast.o
 .data          0x00000000       0x20 src/asf/avr32/drivers/dacifb/dacifb.o
 .bss           0x00000000        0x0 src/asf/avr32/drivers/dacifb/dacifb.o
 .data          0x00000000       0x40 src/asf/avr32/drivers/eic/eic.o
 .bss           0x00000000        0x0 src/asf/avr32/drivers/eic/eic.o
 .data          0x00000000      0x108 src/asf/avr32/drivers/flashc/flashc.o
 .bss           0x00000000        0x0 src/asf/avr32/drivers/flashc/flashc.o
 .data          0x00000000       0x88 src/asf/avr32/drivers/gpio/gpio.o
 .bss           0x00000000        0x0 src/asf/avr32/drivers/gpio/gpio.o
 .text          0x00000000        0x0 src/asf/avr32/drivers/intc/exception.o
 .data          0x00000000        0x0 src/asf/avr32/drivers/intc/exception.o
 .bss           0x00000000        0x0 src/asf/avr32/drivers/intc/exception.o
 .data          0x00000000       0x14 src/asf/avr32/drivers/intc/intc.o
 .bss           0x00000000        0x0 src/asf/avr32/drivers/intc/intc.o
 .data          0x00000000       0x54 src/asf/avr32/drivers/pdca/pdca.o
 .bss           0x00000000        0x0 src/asf/avr32/drivers/pdca/pdca.o
 .data          0x00000000       0x4c src/asf/avr32/drivers/pevc/pevc.o
 .bss           0x00000000        0x0 src/asf/avr32/drivers/pevc/pevc.o
 .text          0x00000000      0x3c0 src/asf/avr32/drivers/pm/pm_uc3c.o
 .data          0x00000000       0x20 src/asf/avr32/drivers/pm/pm_uc3c.o
 .bss           0x00000000        0x0 src/asf/avr32/drivers/pm/pm_uc3c.o
 .debug_abbrev  0x00000000      0x181 src/asf/avr32/drivers/pm/pm_uc3c.o
 .debug_info    0x00000000     0x1048 src/asf/avr32/drivers/pm/pm_uc3c.o
 .debug_line    0x00000000      0x22f src/asf/avr32/drivers/pm/pm_uc3c.o
 .debug_frame   0x00000000      0x108 src/asf/avr32/drivers/pm/pm_uc3c.o
 .debug_loc     0x00000000      0x158 src/asf/avr32/drivers/pm/pm_uc3c.o
 .debug_pubnames
                0x00000000       0xc3 src/asf/avr32/drivers/pm/pm_uc3c.o
 .debug_aranges
                0x00000000       0x20 src/asf/avr32/drivers/pm/pm_uc3c.o
 .debug_str     0x00000000      0x784 src/asf/avr32/drivers/pm/pm_uc3c.o
 .comment       0x00000000       0x31 src/asf/avr32/drivers/pm/pm_uc3c.o
 .text          0x00000000      0x484 src/asf/avr32/drivers/pm/power_clocks_lib.o
 .data          0x00000000       0x18 src/asf/avr32/drivers/pm/power_clocks_lib.o
 .bss           0x00000000        0x0 src/asf/avr32/drivers/pm/power_clocks_lib.o
 .debug_abbrev  0x00000000      0x15a src/asf/avr32/drivers/pm/power_clocks_lib.o
 .debug_info    0x00000000      0x529 src/asf/avr32/drivers/pm/power_clocks_lib.o
 .debug_line    0x00000000      0x132 src/asf/avr32/drivers/pm/power_clocks_lib.o
 .rodata.opt.14604
                0x00000000       0x14 src/asf/avr32/drivers/pm/power_clocks_lib.o
 .debug_frame   0x00000000       0xe0 src/asf/avr32/drivers/pm/power_clocks_lib.o
 .debug_loc     0x00000000      0x102 src/asf/avr32/drivers/pm/power_clocks_lib.o
 .debug_pubnames
                0x00000000       0x82 src/asf/avr32/drivers/pm/power_clocks_lib.o
 .debug_aranges
                0x00000000       0x20 src/asf/avr32/drivers/pm/power_clocks_lib.o
 .debug_str     0x00000000      0x60b src/asf/avr32/drivers/pm/power_clocks_lib.o
 .comment       0x00000000       0x31 src/asf/avr32/drivers/pm/power_clocks_lib.o
 .text          0x00000000      0xe34 src/asf/avr32/drivers/pwm/pwm4.o
 .data          0x00000000       0x70 src/asf/avr32/drivers/pwm/pwm4.o
 .bss           0x00000000        0x0 src/asf/avr32/drivers/pwm/pwm4.o
 .debug_abbrev  0x00000000      0x235 src/asf/avr32/drivers/pwm/pwm4.o
 .debug_info    0x00000000     0x2a0d src/asf/avr32/drivers/pwm/pwm4.o
 .debug_line    0x00000000      0x370 src/asf/avr32/drivers/pwm/pwm4.o
 .debug_frame   0x00000000      0x324 src/asf/avr32/drivers/pwm/pwm4.o
 .debug_loc     0x00000000      0x4b4 src/asf/avr32/drivers/pwm/pwm4.o
 .debug_pubnames
                0x00000000      0x34b src/asf/avr32/drivers/pwm/pwm4.o
 .debug_aranges
                0x00000000       0x20 src/asf/avr32/drivers/pwm/pwm4.o
 .debug_str     0x00000000      0xeb2 src/asf/avr32/drivers/pwm/pwm4.o
 .comment       0x00000000       0x31 src/asf/avr32/drivers/pwm/pwm4.o
 .data          0x00000000       0xac src/asf/avr32/drivers/scif/scif_uc3c.o
 .bss           0x00000000        0x0 src/asf/avr32/drivers/scif/scif_uc3c.o
 .data          0x00000000       0x48 src/asf/avr32/drivers/spi/spi.o
 .bss           0x00000000        0x0 src/asf/avr32/drivers/spi/spi.o
 .text          0x00000000      0x884 src/asf/avr32/drivers/tc/tc.o
 .data          0x00000000       0x4c src/asf/avr32/drivers/tc/tc.o
 .bss           0x00000000        0x0 src/asf/avr32/drivers/tc/tc.o
 .debug_abbrev  0x00000000      0x21b src/asf/avr32/drivers/tc/tc.o
 .debug_info    0x00000000     0x116f src/asf/avr32/drivers/tc/tc.o
 .debug_line    0x00000000      0x2a2 src/asf/avr32/drivers/tc/tc.o
 .debug_frame   0x00000000      0x228 src/asf/avr32/drivers/tc/tc.o
 .debug_loc     0x00000000      0x331 src/asf/avr32/drivers/tc/tc.o
 .debug_pubnames
                0x00000000      0x164 src/asf/avr32/drivers/tc/tc.o
 .debug_aranges
                0x00000000       0x20 src/asf/avr32/drivers/tc/tc.o
 .debug_str     0x00000000      0x4b9 src/asf/avr32/drivers/tc/tc.o
 .comment       0x00000000       0x31 src/asf/avr32/drivers/tc/tc.o
 .data          0x00000000       0x3c src/asf/avr32/drivers/twim/twim.o
 .bss           0x00000000        0x0 src/asf/avr32/drivers/twim/twim.o
 .data          0x00000000       0x78 src/asf/avr32/drivers/usart/usart.o
 .bss           0x00000000        0x0 src/asf/avr32/drivers/usart/usart.o
 .text          0x00000000     0x1978 src/asf/avr32/drivers/usbc/usbc_device.o
 .data          0x00000000       0xa0 src/asf/avr32/drivers/usbc/usbc_device.o
 .bss           0x00000000        0x0 src/asf/avr32/drivers/usbc/usbc_device.o
 .debug_abbrev  0x00000000      0x30d src/asf/avr32/drivers/usbc/usbc_device.o
 .debug_info    0x00000000     0xadf0 src/asf/avr32/drivers/usbc/usbc_device.o
 .debug_line    0x00000000      0x589 src/asf/avr32/drivers/usbc/usbc_device.o
 .bss.udd_b_idle
                0x00000000        0x1 src/asf/avr32/drivers/usbc/usbc_device.o
 .bss.udd_g_ep_table
                0x00000000       0x80 src/asf/avr32/drivers/usbc/usbc_device.o
 .bss.udd_ep_control_state
                0x00000000        0x4 src/asf/avr32/drivers/usbc/usbc_device.o
 .bss.udd_ctrl_prev_payload_nb_trans
                0x00000000        0x2 src/asf/avr32/drivers/usbc/usbc_device.o
 .bss.udd_ctrl_payload_nb_trans
                0x00000000        0x2 src/asf/avr32/drivers/usbc/usbc_device.o
 .bss.udd_ctrl_payload_need_in_zlp
                0x00000000        0x1 src/asf/avr32/drivers/usbc/usbc_device.o
 .bss.udd_ep_job
                0x00000000       0x3c src/asf/avr32/drivers/usbc/usbc_device.o
 .debug_frame   0x00000000      0x4e8 src/asf/avr32/drivers/usbc/usbc_device.o
 .debug_loc     0x00000000      0x6b8 src/asf/avr32/drivers/usbc/usbc_device.o
 .debug_pubnames
                0x00000000      0x1f1 src/asf/avr32/drivers/usbc/usbc_device.o
 .debug_aranges
                0x00000000       0x20 src/asf/avr32/drivers/usbc/usbc_device.o
 .debug_str     0x00000000     0x2f92 src/asf/avr32/drivers/usbc/usbc_device.o
 .comment       0x00000000       0x31 src/asf/avr32/drivers/usbc/usbc_device.o
 COMMON         0x00000000      0x118 src/asf/avr32/drivers/usbc/usbc_device.o
 .data          0x00000000        0x8 src/asf/avr32/services/delay/delay.o
 .bss           0x00000000        0x0 src/asf/avr32/services/delay/delay.o
 .text          0x00000000        0x0 src/asf/avr32/utils/startup/startup_uc3.o
 .data          0x00000000        0x0 src/asf/avr32/utils/startup/startup_uc3.o
 .bss           0x00000000        0x0 src/asf/avr32/utils/startup/startup_uc3.o
 .reset         0x00000000        0x8 src/asf/avr32/utils/startup/startup_uc3.o
 .text          0x00000000        0x0 src/asf/avr32/utils/startup/trampoline_uc3.o
 .data          0x00000000        0x0 src/asf/avr32/utils/startup/trampoline_uc3.o
 .bss           0x00000000        0x0 src/asf/avr32/utils/startup/trampoline_uc3.o
 .data          0x00000000        0x4 src/asf/common/boards/user_board/init.o
 .bss           0x00000000        0x0 src/asf/common/boards/user_board/init.o
 .data          0x00000000       0x28 src/asf/common/services/clock/uc3c/osc.o
 .bss           0x00000000        0x0 src/asf/common/services/clock/uc3c/osc.o
 .data          0x00000000       0x14 src/asf/common/services/clock/uc3c/pll.o
 .bss           0x00000000        0x0 src/asf/common/services/clock/uc3c/pll.o
 .data          0x00000000       0x60 src/asf/common/services/clock/uc3c/sysclk.o
 .bss           0x00000000        0x0 src/asf/common/services/clock/uc3c/sysclk.o
 .text          0x00000000        0x0 src/asf/common/services/sleepmgr/uc3/sleepmgr.o
 .data          0x00000000        0x0 src/asf/common/services/sleepmgr/uc3/sleepmgr.o
 .bss           0x00000000        0x0 src/asf/common/services/sleepmgr/uc3/sleepmgr.o
 .data          0x00000000       0x48 src/asf/common/services/spi/uc3_spi/spi_master.o
 .bss           0x00000000        0x0 src/asf/common/services/spi/uc3_spi/spi_master.o
 .text          0x00000000      0xb94 src/asf/common/services/usb/class/cdc/device/udi_cdc.o
 .data          0x00000000       0x74 src/asf/common/services/usb/class/cdc/device/udi_cdc.o
 .bss           0x00000000        0x0 src/asf/common/services/usb/class/cdc/device/udi_cdc.o
 .debug_abbrev  0x00000000      0x24a src/asf/common/services/usb/class/cdc/device/udi_cdc.o
 .debug_info    0x00000000      0xa29 src/asf/common/services/usb/class/cdc/device/udi_cdc.o
 .debug_line    0x00000000      0x31c src/asf/common/services/usb/class/cdc/device/udi_cdc.o
 .data.rel.udi_api_cdc_comm
                0x00000000       0x14 src/asf/common/services/usb/class/cdc/device/udi_cdc.o
 .data.rel.udi_api_cdc_data
                0x00000000       0x14 src/asf/common/services/usb/class/cdc/device/udi_cdc.o
 .bss.udi_cdc_line_coding
                0x00000000        0x7 src/asf/common/services/usb/class/cdc/device/udi_cdc.o
 .bss.udi_cdc_serial_state_msg_ongoing
                0x00000000        0x1 src/asf/common/services/usb/class/cdc/device/udi_cdc.o
 .bss.udi_cdc_state
                0x00000000        0x2 src/asf/common/services/usb/class/cdc/device/udi_cdc.o
 .data.uid_cdc_state_msg
                0x00000000        0xc src/asf/common/services/usb/class/cdc/device/udi_cdc.o
 .bss.udi_cdc_running
                0x00000000        0x1 src/asf/common/services/usb/class/cdc/device/udi_cdc.o
 .bss.udi_cdc_rx_buf
                0x00000000       0x80 src/asf/common/services/usb/class/cdc/device/udi_cdc.o
 .bss.udi_cdc_rx_buf_nb
                0x00000000        0x4 src/asf/common/services/usb/class/cdc/device/udi_cdc.o
 .bss.udi_cdc_rx_buf_sel
                0x00000000        0x1 src/asf/common/services/usb/class/cdc/device/udi_cdc.o
 .bss.udi_cdc_rx_pos
                0x00000000        0x2 src/asf/common/services/usb/class/cdc/device/udi_cdc.o
 .bss.udi_cdc_rx_trans_ongoing
                0x00000000        0x1 src/asf/common/services/usb/class/cdc/device/udi_cdc.o
 .bss.udi_cdc_tx_buf
                0x00000000       0x80 src/asf/common/services/usb/class/cdc/device/udi_cdc.o
 .bss.udi_cdc_tx_buf_nb
                0x00000000        0x4 src/asf/common/services/usb/class/cdc/device/udi_cdc.o
 .bss.udi_cdc_tx_buf_sel
                0x00000000        0x1 src/asf/common/services/usb/class/cdc/device/udi_cdc.o
 .bss.udi_cdc_tx_sof_num
                0x00000000        0x2 src/asf/common/services/usb/class/cdc/device/udi_cdc.o
 .bss.udi_cdc_tx_trans_ongoing
                0x00000000        0x1 src/asf/common/services/usb/class/cdc/device/udi_cdc.o
 .bss.udi_cdc_tx_both_buf_to_send
                0x00000000        0x1 src/asf/common/services/usb/class/cdc/device/udi_cdc.o
 .debug_frame   0x00000000      0x398 src/asf/common/services/usb/class/cdc/device/udi_cdc.o
 .debug_loc     0x00000000      0x4df src/asf/common/services/usb/class/cdc/device/udi_cdc.o
 .debug_pubnames
                0x00000000      0x283 src/asf/common/services/usb/class/cdc/device/udi_cdc.o
 .debug_aranges
                0x00000000       0x20 src/asf/common/services/usb/class/cdc/device/udi_cdc.o
 .debug_str     0x00000000      0x802 src/asf/common/services/usb/class/cdc/device/udi_cdc.o
 .comment       0x00000000       0x31 src/asf/common/services/usb/class/cdc/device/udi_cdc.o
 .text          0x00000000        0x0 src/asf/common/services/usb/class/cdc/device/udi_cdc_desc.o
 .data          0x00000000        0x0 src/asf/common/services/usb/class/cdc/device/udi_cdc_desc.o
 .bss           0x00000000        0x0 src/asf/common/services/usb/class/cdc/device/udi_cdc_desc.o
 .debug_abbrev  0x00000000       0xf9 src/asf/common/services/usb/class/cdc/device/udi_cdc_desc.o
 .debug_info    0x00000000      0x75f src/asf/common/services/usb/class/cdc/device/udi_cdc_desc.o
 .debug_line    0x00000000      0x1d3 src/asf/common/services/usb/class/cdc/device/udi_cdc_desc.o
 .data.udc_device_desc
                0x00000000       0x14 src/asf/common/services/usb/class/cdc/device/udi_cdc_desc.o
 .data.udc_desc
                0x00000000       0x44 src/asf/common/services/usb/class/cdc/device/udi_cdc_desc.o
 .data.rel.udi_apis
                0x00000000        0x8 src/asf/common/services/usb/class/cdc/device/udi_cdc_desc.o
 .data.rel.udc_config_fshs
                0x00000000        0x8 src/asf/common/services/usb/class/cdc/device/udi_cdc_desc.o
 .data.rel.udc_config
                0x00000000        0x8 src/asf/common/services/usb/class/cdc/device/udi_cdc_desc.o
 .debug_pubnames
                0x00000000       0x63 src/asf/common/services/usb/class/cdc/device/udi_cdc_desc.o
 .debug_str     0x00000000      0x65f src/asf/common/services/usb/class/cdc/device/udi_cdc_desc.o
 .comment       0x00000000       0x31 src/asf/common/services/usb/class/cdc/device/udi_cdc_desc.o
 .text          0x00000000      0xc18 src/asf/common/services/usb/udc/udc.o
 .data          0x00000000       0x64 src/asf/common/services/usb/udc/udc.o
 .bss           0x00000000        0x0 src/asf/common/services/usb/udc/udc.o
 .debug_abbrev  0x00000000      0x1f9 src/asf/common/services/usb/udc/udc.o
 .debug_info    0x00000000      0xbb8 src/asf/common/services/usb/udc/udc.o
 .debug_line    0x00000000      0x303 src/asf/common/services/usb/udc/udc.o
 .bss.udc_device_status
                0x00000000        0x2 src/asf/common/services/usb/udc/udc.o
 .bss.udc_num_configuration
                0x00000000        0x1 src/asf/common/services/usb/udc/udc.o
 .bss.udc_ptr_conf
                0x00000000        0x4 src/asf/common/services/usb/udc/udc.o
 .bss.udc_ptr_iface
                0x00000000        0x4 src/asf/common/services/usb/udc/udc.o
 .data.udc_string_desc_languageid
                0x00000000        0x4 src/asf/common/services/usb/udc/udc.o
 .data.udc_string_manufacturer_name
                0x00000000        0xc src/asf/common/services/usb/udc/udc.o
 .data.udc_string_product_name
                0x00000000        0x4 src/asf/common/services/usb/udc/udc.o
 .data.udc_string_desc
                0x00000000       0x14 src/asf/common/services/usb/udc/udc.o
 .bss.udc_iface_setting.15505
                0x00000000        0x1 src/asf/common/services/usb/udc/udc.o
 .bss.udc_ep_status.15290
                0x00000000        0x2 src/asf/common/services/usb/udc/udc.o
 .debug_frame   0x00000000      0x330 src/asf/common/services/usb/udc/udc.o
 .debug_loc     0x00000000      0x433 src/asf/common/services/usb/udc/udc.o
 .debug_pubnames
                0x00000000       0x64 src/asf/common/services/usb/udc/udc.o
 .debug_aranges
                0x00000000       0x20 src/asf/common/services/usb/udc/udc.o
 .debug_ranges  0x00000000       0x18 src/asf/common/services/usb/udc/udc.o
 .debug_str     0x00000000      0xaff src/asf/common/services/usb/udc/udc.o
 .comment       0x00000000       0x31 src/asf/common/services/usb/udc/udc.o
 .text          0x00000000       0x90 src/asf/common/utils/stdio/read.o
 .data          0x00000000        0x4 src/asf/common/utils/stdio/read.o
 .bss           0x00000000        0x0 src/asf/common/utils/stdio/read.o
 .debug_abbrev  0x00000000       0xd6 src/asf/common/utils/stdio/read.o
 .debug_info    0x00000000      0x141 src/asf/common/utils/stdio/read.o
 .debug_line    0x00000000       0x66 src/asf/common/utils/stdio/read.o
 .debug_frame   0x00000000       0x30 src/asf/common/utils/stdio/read.o
 .debug_loc     0x00000000       0x2b src/asf/common/utils/stdio/read.o
 .debug_pubnames
                0x00000000       0x28 src/asf/common/utils/stdio/read.o
 .debug_aranges
                0x00000000       0x20 src/asf/common/utils/stdio/read.o
 .debug_ranges  0x00000000       0x18 src/asf/common/utils/stdio/read.o
 .debug_str     0x00000000      0x11c src/asf/common/utils/stdio/read.o
 .comment       0x00000000       0x31 src/asf/common/utils/stdio/read.o
 COMMON         0x00000000        0x4 src/asf/common/utils/stdio/read.o
 .text          0x00000000      0x1a8 src/asf/common/utils/stdio/stdio_usb/stdio_usb.o
 .data          0x00000000       0x28 src/asf/common/utils/stdio/stdio_usb/stdio_usb.o
 .bss           0x00000000        0x0 src/asf/common/utils/stdio/stdio_usb/stdio_usb.o
 .debug_abbrev  0x00000000      0x116 src/asf/common/utils/stdio/stdio_usb/stdio_usb.o
 .debug_info    0x00000000      0x249 src/asf/common/utils/stdio/stdio_usb/stdio_usb.o
 .debug_line    0x00000000       0xd6 src/asf/common/utils/stdio/stdio_usb/stdio_usb.o
 .bss.stdio_usb_interface_enable
                0x00000000        0x1 src/asf/common/utils/stdio/stdio_usb/stdio_usb.o
 .debug_frame   0x00000000      0x150 src/asf/common/utils/stdio/stdio_usb/stdio_usb.o
 .debug_loc     0x00000000      0x1ae src/asf/common/utils/stdio/stdio_usb/stdio_usb.o
 .debug_pubnames
                0x00000000       0x95 src/asf/common/utils/stdio/stdio_usb/stdio_usb.o
 .debug_aranges
                0x00000000       0x20 src/asf/common/utils/stdio/stdio_usb/stdio_usb.o
 .debug_str     0x00000000      0x1f5 src/asf/common/utils/stdio/stdio_usb/stdio_usb.o
 .comment       0x00000000       0x31 src/asf/common/utils/stdio/stdio_usb/stdio_usb.o
 .text          0x00000000       0x94 src/asf/common/utils/stdio/write.o
 .data          0x00000000        0x4 src/asf/common/utils/stdio/write.o
 .bss           0x00000000        0x0 src/asf/common/utils/stdio/write.o
 .debug_abbrev  0x00000000       0xb1 src/asf/common/utils/stdio/write.o
 .debug_info    0x00000000      0x132 src/asf/common/utils/stdio/write.o
 .debug_line    0x00000000       0x64 src/asf/common/utils/stdio/write.o
 .debug_frame   0x00000000       0x30 src/asf/common/utils/stdio/write.o
 .debug_loc     0x00000000       0x2b src/asf/common/utils/stdio/write.o
 .debug_pubnames
                0x00000000       0x38 src/asf/common/utils/stdio/write.o
 .debug_aranges
                0x00000000       0x20 src/asf/common/utils/stdio/write.o
 .debug_str     0x00000000      0x11e src/asf/common/utils/stdio/write.o
 .comment       0x00000000       0x31 src/asf/common/utils/stdio/write.o
 COMMON         0x00000000        0x8 src/asf/common/utils/stdio/write.o
 .data          0x00000000       0x18 src/boardsupport.o
 .bss           0x00000000        0x0 src/boardsupport.o
 .data.vehicle_model_parameters
                0x00000000      0x194 src/boardsupport.o
 .data.usart_opt
                0x00000000      0xac8 src/boardsupport.o
 .data          0x00000000        0xc src/main.o
 .bss           0x00000000        0x0 src/main.o
 .data.usart_opt
                0x00000000      0xac8 src/main.o
 .data.vehicle_model_parameters
                0x00000000      0x194 src/main.o
 .rodata.write_data
                0x00000000        0x8 src/main.o
 .text          0x00000000        0x0 c:/program files/atmel/atmel toolchain/avr32 gcc/native/3.4.2.1002/avr32-gnu-toolchain/bin/../lib/gcc/avr32/4.4.7/../../../../avr32/lib/ucr3fp\libm.a(lib_a-s_cos.o)
 .data          0x00000000        0x0 c:/program files/atmel/atmel toolchain/avr32 gcc/native/3.4.2.1002/avr32-gnu-toolchain/bin/../lib/gcc/avr32/4.4.7/../../../../avr32/lib/ucr3fp\libm.a(lib_a-s_cos.o)
 .bss           0x00000000        0x0 c:/program files/atmel/atmel toolchain/avr32 gcc/native/3.4.2.1002/avr32-gnu-toolchain/bin/../lib/gcc/avr32/4.4.7/../../../../avr32/lib/ucr3fp\libm.a(lib_a-s_cos.o)
 .text          0x00000000        0x0 c:/program files/atmel/atmel toolchain/avr32 gcc/native/3.4.2.1002/avr32-gnu-toolchain/bin/../lib/gcc/avr32/4.4.7/../../../../avr32/lib/ucr3fp\libm.a(lib_a-s_sin.o)
 .data          0x00000000        0x0 c:/program files/atmel/atmel toolchain/avr32 gcc/native/3.4.2.1002/avr32-gnu-toolchain/bin/../lib/gcc/avr32/4.4.7/../../../../avr32/lib/ucr3fp\libm.a(lib_a-s_sin.o)
 .bss           0x00000000        0x0 c:/program files/atmel/atmel toolchain/avr32 gcc/native/3.4.2.1002/avr32-gnu-toolchain/bin/../lib/gcc/avr32/4.4.7/../../../../avr32/lib/ucr3fp\libm.a(lib_a-s_sin.o)
 .text          0x00000000        0x0 c:/program files/atmel/atmel toolchain/avr32 gcc/native/3.4.2.1002/avr32-gnu-toolchain/bin/../lib/gcc/avr32/4.4.7/../../../../avr32/lib/ucr3fp\libm.a(lib_a-w_asin.o)
 .data          0x00000000        0x0 c:/program files/atmel/atmel toolchain/avr32 gcc/native/3.4.2.1002/avr32-gnu-toolchain/bin/../lib/gcc/avr32/4.4.7/../../../../avr32/lib/ucr3fp\libm.a(lib_a-w_asin.o)
 .bss           0x00000000        0x0 c:/program files/atmel/atmel toolchain/avr32 gcc/native/3.4.2.1002/avr32-gnu-toolchain/bin/../lib/gcc/avr32/4.4.7/../../../../avr32/lib/ucr3fp\libm.a(lib_a-w_asin.o)
 .text          0x00000000        0x0 c:/program files/atmel/atmel toolchain/avr32 gcc/native/3.4.2.1002/avr32-gnu-toolchain/bin/../lib/gcc/avr32/4.4.7/../../../../avr32/lib/ucr3fp\libm.a(lib_a-w_atan2.o)
 .data          0x00000000        0x0 c:/program files/atmel/atmel toolchain/avr32 gcc/native/3.4.2.1002/avr32-gnu-toolchain/bin/../lib/gcc/avr32/4.4.7/../../../../avr32/lib/ucr3fp\libm.a(lib_a-w_atan2.o)
 .bss           0x00000000        0x0 c:/program files/atmel/atmel toolchain/avr32 gcc/native/3.4.2.1002/avr32-gnu-toolchain/bin/../lib/gcc/avr32/4.4.7/../../../../avr32/lib/ucr3fp\libm.a(lib_a-w_atan2.o)
 .text          0x00000000        0x0 c:/program files/atmel/atmel toolchain/avr32 gcc/native/3.4.2.1002/avr32-gnu-toolchain/bin/../lib/gcc/avr32/4.4.7/../../../../avr32/lib/ucr3fp\libm.a(lib_a-w_pow.o)
 .data          0x00000000        0x0 c:/program files/atmel/atmel toolchain/avr32 gcc/native/3.4.2.1002/avr32-gnu-toolchain/bin/../lib/gcc/avr32/4.4.7/../../../../avr32/lib/ucr3fp\libm.a(lib_a-w_pow.o)
 .bss           0x00000000        0x0 c:/program files/atmel/atmel toolchain/avr32 gcc/native/3.4.2.1002/avr32-gnu-toolchain/bin/../lib/gcc/avr32/4.4.7/../../../../avr32/lib/ucr3fp\libm.a(lib_a-w_pow.o)
 .text          0x00000000        0x0 c:/program files/atmel/atmel toolchain/avr32 gcc/native/3.4.2.1002/avr32-gnu-toolchain/bin/../lib/gcc/avr32/4.4.7/../../../../avr32/lib/ucr3fp\libm.a(lib_a-w_sqrt.o)
 .data          0x00000000        0x0 c:/program files/atmel/atmel toolchain/avr32 gcc/native/3.4.2.1002/avr32-gnu-toolchain/bin/../lib/gcc/avr32/4.4.7/../../../../avr32/lib/ucr3fp\libm.a(lib_a-w_sqrt.o)
 .bss           0x00000000        0x0 c:/program files/atmel/atmel toolchain/avr32 gcc/native/3.4.2.1002/avr32-gnu-toolchain/bin/../lib/gcc/avr32/4.4.7/../../../../avr32/lib/ucr3fp\libm.a(lib_a-w_sqrt.o)
 .text          0x00000000        0x0 c:/program files/atmel/atmel toolchain/avr32 gcc/native/3.4.2.1002/avr32-gnu-toolchain/bin/../lib/gcc/avr32/4.4.7/../../../../avr32/lib/ucr3fp\libm.a(lib_a-e_asin.o)
 .data          0x00000000        0x0 c:/program files/atmel/atmel toolchain/avr32 gcc/native/3.4.2.1002/avr32-gnu-toolchain/bin/../lib/gcc/avr32/4.4.7/../../../../avr32/lib/ucr3fp\libm.a(lib_a-e_asin.o)
 .bss           0x00000000        0x0 c:/program files/atmel/atmel toolchain/avr32 gcc/native/3.4.2.1002/avr32-gnu-toolchain/bin/../lib/gcc/avr32/4.4.7/../../../../avr32/lib/ucr3fp\libm.a(lib_a-e_asin.o)
 .text          0x00000000        0x0 c:/program files/atmel/atmel toolchain/avr32 gcc/native/3.4.2.1002/avr32-gnu-toolchain/bin/../lib/gcc/avr32/4.4.7/../../../../avr32/lib/ucr3fp\libm.a(lib_a-e_atan2.o)
 .data          0x00000000        0x0 c:/program files/atmel/atmel toolchain/avr32 gcc/native/3.4.2.1002/avr32-gnu-toolchain/bin/../lib/gcc/avr32/4.4.7/../../../../avr32/lib/ucr3fp\libm.a(lib_a-e_atan2.o)
 .bss           0x00000000        0x0 c:/program files/atmel/atmel toolchain/avr32 gcc/native/3.4.2.1002/avr32-gnu-toolchain/bin/../lib/gcc/avr32/4.4.7/../../../../avr32/lib/ucr3fp\libm.a(lib_a-e_atan2.o)
 .text          0x00000000        0x0 c:/program files/atmel/atmel toolchain/avr32 gcc/native/3.4.2.1002/avr32-gnu-toolchain/bin/../lib/gcc/avr32/4.4.7/../../../../avr32/lib/ucr3fp\libm.a(lib_a-e_pow.o)
 .data          0x00000000        0x0 c:/program files/atmel/atmel toolchain/avr32 gcc/native/3.4.2.1002/avr32-gnu-toolchain/bin/../lib/gcc/avr32/4.4.7/../../../../avr32/lib/ucr3fp\libm.a(lib_a-e_pow.o)
 .bss           0x00000000        0x0 c:/program files/atmel/atmel toolchain/avr32 gcc/native/3.4.2.1002/avr32-gnu-toolchain/bin/../lib/gcc/avr32/4.4.7/../../../../avr32/lib/ucr3fp\libm.a(lib_a-e_pow.o)
 .text          0x00000000        0x0 c:/program files/atmel/atmel toolchain/avr32 gcc/native/3.4.2.1002/avr32-gnu-toolchain/bin/../lib/gcc/avr32/4.4.7/../../../../avr32/lib/ucr3fp\libm.a(lib_a-e_rem_pio2.o)
 .data          0x00000000        0x0 c:/program files/atmel/atmel toolchain/avr32 gcc/native/3.4.2.1002/avr32-gnu-toolchain/bin/../lib/gcc/avr32/4.4.7/../../../../avr32/lib/ucr3fp\libm.a(lib_a-e_rem_pio2.o)
 .bss           0x00000000        0x0 c:/program files/atmel/atmel toolchain/avr32 gcc/native/3.4.2.1002/avr32-gnu-toolchain/bin/../lib/gcc/avr32/4.4.7/../../../../avr32/lib/ucr3fp\libm.a(lib_a-e_rem_pio2.o)
 .text          0x00000000        0x0 c:/program files/atmel/atmel toolchain/avr32 gcc/native/3.4.2.1002/avr32-gnu-toolchain/bin/../lib/gcc/avr32/4.4.7/../../../../avr32/lib/ucr3fp\libm.a(lib_a-e_sqrt.o)
 .data          0x00000000        0x0 c:/program files/atmel/atmel toolchain/avr32 gcc/native/3.4.2.1002/avr32-gnu-toolchain/bin/../lib/gcc/avr32/4.4.7/../../../../avr32/lib/ucr3fp\libm.a(lib_a-e_sqrt.o)
 .bss           0x00000000        0x0 c:/program files/atmel/atmel toolchain/avr32 gcc/native/3.4.2.1002/avr32-gnu-toolchain/bin/../lib/gcc/avr32/4.4.7/../../../../avr32/lib/ucr3fp\libm.a(lib_a-e_sqrt.o)
 .text          0x00000000        0x0 c:/program files/atmel/atmel toolchain/avr32 gcc/native/3.4.2.1002/avr32-gnu-toolchain/bin/../lib/gcc/avr32/4.4.7/../../../../avr32/lib/ucr3fp\libm.a(lib_a-k_cos.o)
 .data          0x00000000        0x0 c:/program files/atmel/atmel toolchain/avr32 gcc/native/3.4.2.1002/avr32-gnu-toolchain/bin/../lib/gcc/avr32/4.4.7/../../../../avr32/lib/ucr3fp\libm.a(lib_a-k_cos.o)
 .bss           0x00000000        0x0 c:/program files/atmel/atmel toolchain/avr32 gcc/native/3.4.2.1002/avr32-gnu-toolchain/bin/../lib/gcc/avr32/4.4.7/../../../../avr32/lib/ucr3fp\libm.a(lib_a-k_cos.o)
 .text          0x00000000        0x0 c:/program files/atmel/atmel toolchain/avr32 gcc/native/3.4.2.1002/avr32-gnu-toolchain/bin/../lib/gcc/avr32/4.4.7/../../../../avr32/lib/ucr3fp\libm.a(lib_a-k_rem_pio2.o)
 .data          0x00000000        0x0 c:/program files/atmel/atmel toolchain/avr32 gcc/native/3.4.2.1002/avr32-gnu-toolchain/bin/../lib/gcc/avr32/4.4.7/../../../../avr32/lib/ucr3fp\libm.a(lib_a-k_rem_pio2.o)
 .bss           0x00000000        0x0 c:/program files/atmel/atmel toolchain/avr32 gcc/native/3.4.2.1002/avr32-gnu-toolchain/bin/../lib/gcc/avr32/4.4.7/../../../../avr32/lib/ucr3fp\libm.a(lib_a-k_rem_pio2.o)
 .text          0x00000000        0x0 c:/program files/atmel/atmel toolchain/avr32 gcc/native/3.4.2.1002/avr32-gnu-toolchain/bin/../lib/gcc/avr32/4.4.7/../../../../avr32/lib/ucr3fp\libm.a(lib_a-k_sin.o)
 .data          0x00000000        0x0 c:/program files/atmel/atmel toolchain/avr32 gcc/native/3.4.2.1002/avr32-gnu-toolchain/bin/../lib/gcc/avr32/4.4.7/../../../../avr32/lib/ucr3fp\libm.a(lib_a-k_sin.o)
 .bss           0x00000000        0x0 c:/program files/atmel/atmel toolchain/avr32 gcc/native/3.4.2.1002/avr32-gnu-toolchain/bin/../lib/gcc/avr32/4.4.7/../../../../avr32/lib/ucr3fp\libm.a(lib_a-k_sin.o)
 .text          0x00000000        0x0 c:/program files/atmel/atmel toolchain/avr32 gcc/native/3.4.2.1002/avr32-gnu-toolchain/bin/../lib/gcc/avr32/4.4.7/../../../../avr32/lib/ucr3fp\libm.a(lib_a-s_atan.o)
 .data          0x00000000        0x0 c:/program files/atmel/atmel toolchain/avr32 gcc/native/3.4.2.1002/avr32-gnu-toolchain/bin/../lib/gcc/avr32/4.4.7/../../../../avr32/lib/ucr3fp\libm.a(lib_a-s_atan.o)
 .bss           0x00000000        0x0 c:/program files/atmel/atmel toolchain/avr32 gcc/native/3.4.2.1002/avr32-gnu-toolchain/bin/../lib/gcc/avr32/4.4.7/../../../../avr32/lib/ucr3fp\libm.a(lib_a-s_atan.o)
 .text          0x00000000        0x0 c:/program files/atmel/atmel toolchain/avr32 gcc/native/3.4.2.1002/avr32-gnu-toolchain/bin/../lib/gcc/avr32/4.4.7/../../../../avr32/lib/ucr3fp\libm.a(lib_a-s_fabs.o)
 .data          0x00000000        0x0 c:/program files/atmel/atmel toolchain/avr32 gcc/native/3.4.2.1002/avr32-gnu-toolchain/bin/../lib/gcc/avr32/4.4.7/../../../../avr32/lib/ucr3fp\libm.a(lib_a-s_fabs.o)
 .bss           0x00000000        0x0 c:/program files/atmel/atmel toolchain/avr32 gcc/native/3.4.2.1002/avr32-gnu-toolchain/bin/../lib/gcc/avr32/4.4.7/../../../../avr32/lib/ucr3fp\libm.a(lib_a-s_fabs.o)
 .text          0x00000000        0x0 c:/program files/atmel/atmel toolchain/avr32 gcc/native/3.4.2.1002/avr32-gnu-toolchain/bin/../lib/gcc/avr32/4.4.7/../../../../avr32/lib/ucr3fp\libm.a(lib_a-s_finite.o)
 .data          0x00000000        0x0 c:/program files/atmel/atmel toolchain/avr32 gcc/native/3.4.2.1002/avr32-gnu-toolchain/bin/../lib/gcc/avr32/4.4.7/../../../../avr32/lib/ucr3fp\libm.a(lib_a-s_finite.o)
 .bss           0x00000000        0x0 c:/program files/atmel/atmel toolchain/avr32 gcc/native/3.4.2.1002/avr32-gnu-toolchain/bin/../lib/gcc/avr32/4.4.7/../../../../avr32/lib/ucr3fp\libm.a(lib_a-s_finite.o)
 .text          0x00000000        0x0 c:/program files/atmel/atmel toolchain/avr32 gcc/native/3.4.2.1002/avr32-gnu-toolchain/bin/../lib/gcc/avr32/4.4.7/../../../../avr32/lib/ucr3fp\libm.a(lib_a-s_floor.o)
 .data          0x00000000        0x0 c:/program files/atmel/atmel toolchain/avr32 gcc/native/3.4.2.1002/avr32-gnu-toolchain/bin/../lib/gcc/avr32/4.4.7/../../../../avr32/lib/ucr3fp\libm.a(lib_a-s_floor.o)
 .bss           0x00000000        0x0 c:/program files/atmel/atmel toolchain/avr32 gcc/native/3.4.2.1002/avr32-gnu-toolchain/bin/../lib/gcc/avr32/4.4.7/../../../../avr32/lib/ucr3fp\libm.a(lib_a-s_floor.o)
 .text          0x00000000        0x0 c:/program files/atmel/atmel toolchain/avr32 gcc/native/3.4.2.1002/avr32-gnu-toolchain/bin/../lib/gcc/avr32/4.4.7/../../../../avr32/lib/ucr3fp\libm.a(lib_a-s_isnand.o)
 .data          0x00000000        0x0 c:/program files/atmel/atmel toolchain/avr32 gcc/native/3.4.2.1002/avr32-gnu-toolchain/bin/../lib/gcc/avr32/4.4.7/../../../../avr32/lib/ucr3fp\libm.a(lib_a-s_isnand.o)
 .bss           0x00000000        0x0 c:/program files/atmel/atmel toolchain/avr32 gcc/native/3.4.2.1002/avr32-gnu-toolchain/bin/../lib/gcc/avr32/4.4.7/../../../../avr32/lib/ucr3fp\libm.a(lib_a-s_isnand.o)
 .text          0x00000000        0x0 c:/program files/atmel/atmel toolchain/avr32 gcc/native/3.4.2.1002/avr32-gnu-toolchain/bin/../lib/gcc/avr32/4.4.7/../../../../avr32/lib/ucr3fp\libm.a(lib_a-s_lib_ver.o)
 .data          0x00000000        0x0 c:/program files/atmel/atmel toolchain/avr32 gcc/native/3.4.2.1002/avr32-gnu-toolchain/bin/../lib/gcc/avr32/4.4.7/../../../../avr32/lib/ucr3fp\libm.a(lib_a-s_lib_ver.o)
 .bss           0x00000000        0x0 c:/program files/atmel/atmel toolchain/avr32 gcc/native/3.4.2.1002/avr32-gnu-toolchain/bin/../lib/gcc/avr32/4.4.7/../../../../avr32/lib/ucr3fp\libm.a(lib_a-s_lib_ver.o)
 .text          0x00000000        0x0 c:/program files/atmel/atmel toolchain/avr32 gcc/native/3.4.2.1002/avr32-gnu-toolchain/bin/../lib/gcc/avr32/4.4.7/../../../../avr32/lib/ucr3fp\libm.a(lib_a-s_matherr.o)
 .data          0x00000000        0x0 c:/program files/atmel/atmel toolchain/avr32 gcc/native/3.4.2.1002/avr32-gnu-toolchain/bin/../lib/gcc/avr32/4.4.7/../../../../avr32/lib/ucr3fp\libm.a(lib_a-s_matherr.o)
 .bss           0x00000000        0x0 c:/program files/atmel/atmel toolchain/avr32 gcc/native/3.4.2.1002/avr32-gnu-toolchain/bin/../lib/gcc/avr32/4.4.7/../../../../avr32/lib/ucr3fp\libm.a(lib_a-s_matherr.o)
 .text          0x00000000        0x0 c:/program files/atmel/atmel toolchain/avr32 gcc/native/3.4.2.1002/avr32-gnu-toolchain/bin/../lib/gcc/avr32/4.4.7/../../../../avr32/lib/ucr3fp\libm.a(lib_a-s_nan.o)
 .data          0x00000000        0x0 c:/program files/atmel/atmel toolchain/avr32 gcc/native/3.4.2.1002/avr32-gnu-toolchain/bin/../lib/gcc/avr32/4.4.7/../../../../avr32/lib/ucr3fp\libm.a(lib_a-s_nan.o)
 .bss           0x00000000        0x0 c:/program files/atmel/atmel toolchain/avr32 gcc/native/3.4.2.1002/avr32-gnu-toolchain/bin/../lib/gcc/avr32/4.4.7/../../../../avr32/lib/ucr3fp\libm.a(lib_a-s_nan.o)
 .text          0x00000000        0x0 c:/program files/atmel/atmel toolchain/avr32 gcc/native/3.4.2.1002/avr32-gnu-toolchain/bin/../lib/gcc/avr32/4.4.7/../../../../avr32/lib/ucr3fp\libm.a(lib_a-s_rint.o)
 .data          0x00000000        0x0 c:/program files/atmel/atmel toolchain/avr32 gcc/native/3.4.2.1002/avr32-gnu-toolchain/bin/../lib/gcc/avr32/4.4.7/../../../../avr32/lib/ucr3fp\libm.a(lib_a-s_rint.o)
 .bss           0x00000000        0x0 c:/program files/atmel/atmel toolchain/avr32 gcc/native/3.4.2.1002/avr32-gnu-toolchain/bin/../lib/gcc/avr32/4.4.7/../../../../avr32/lib/ucr3fp\libm.a(lib_a-s_rint.o)
 .text          0x00000000        0x0 c:/program files/atmel/atmel toolchain/avr32 gcc/native/3.4.2.1002/avr32-gnu-toolchain/bin/../lib/gcc/avr32/4.4.7/../../../../avr32/lib/ucr3fp\libm.a(lib_a-s_scalbn.o)
 .data          0x00000000        0x0 c:/program files/atmel/atmel toolchain/avr32 gcc/native/3.4.2.1002/avr32-gnu-toolchain/bin/../lib/gcc/avr32/4.4.7/../../../../avr32/lib/ucr3fp\libm.a(lib_a-s_scalbn.o)
 .bss           0x00000000        0x0 c:/program files/atmel/atmel toolchain/avr32 gcc/native/3.4.2.1002/avr32-gnu-toolchain/bin/../lib/gcc/avr32/4.4.7/../../../../avr32/lib/ucr3fp\libm.a(lib_a-s_scalbn.o)
 .text          0x00000000        0x0 c:/program files/atmel/atmel toolchain/avr32 gcc/native/3.4.2.1002/avr32-gnu-toolchain/bin/../lib/gcc/avr32/4.4.7/../../../../avr32/lib/ucr3fp\libm.a(lib_a-s_copysign.o)
 .data          0x00000000        0x0 c:/program files/atmel/atmel toolchain/avr32 gcc/native/3.4.2.1002/avr32-gnu-toolchain/bin/../lib/gcc/avr32/4.4.7/../../../../avr32/lib/ucr3fp\libm.a(lib_a-s_copysign.o)
 .bss           0x00000000        0x0 c:/program files/atmel/atmel toolchain/avr32 gcc/native/3.4.2.1002/avr32-gnu-toolchain/bin/../lib/gcc/avr32/4.4.7/../../../../avr32/lib/ucr3fp\libm.a(lib_a-s_copysign.o)
 .data          0x00000000        0x0 c:/program files/atmel/atmel toolchain/avr32 gcc/native/3.4.2.1002/avr32-gnu-toolchain/bin/../lib/gcc/avr32/4.4.7/ucr3fp\libgcc.a(_avr32_f64_mul.o)
 .bss           0x00000000        0x0 c:/program files/atmel/atmel toolchain/avr32 gcc/native/3.4.2.1002/avr32-gnu-toolchain/bin/../lib/gcc/avr32/4.4.7/ucr3fp\libgcc.a(_avr32_f64_mul.o)
 .data          0x00000000        0x0 c:/program files/atmel/atmel toolchain/avr32 gcc/native/3.4.2.1002/avr32-gnu-toolchain/bin/../lib/gcc/avr32/4.4.7/ucr3fp\libgcc.a(_avr32_f64_addsub.o)
 .bss           0x00000000        0x0 c:/program files/atmel/atmel toolchain/avr32 gcc/native/3.4.2.1002/avr32-gnu-toolchain/bin/../lib/gcc/avr32/4.4.7/ucr3fp\libgcc.a(_avr32_f64_addsub.o)
 .data          0x00000000        0x0 c:/program files/atmel/atmel toolchain/avr32 gcc/native/3.4.2.1002/avr32-gnu-toolchain/bin/../lib/gcc/avr32/4.4.7/ucr3fp\libgcc.a(_avr32_f64_to_s32.o)
 .bss           0x00000000        0x0 c:/program files/atmel/atmel toolchain/avr32 gcc/native/3.4.2.1002/avr32-gnu-toolchain/bin/../lib/gcc/avr32/4.4.7/ucr3fp\libgcc.a(_avr32_f64_to_s32.o)
 .data          0x00000000        0x0 c:/program files/atmel/atmel toolchain/avr32 gcc/native/3.4.2.1002/avr32-gnu-toolchain/bin/../lib/gcc/avr32/4.4.7/ucr3fp\libgcc.a(_avr32_s32_to_f64.o)
 .bss           0x00000000        0x0 c:/program files/atmel/atmel toolchain/avr32 gcc/native/3.4.2.1002/avr32-gnu-toolchain/bin/../lib/gcc/avr32/4.4.7/ucr3fp\libgcc.a(_avr32_s32_to_f64.o)
 .data          0x00000000        0x0 c:/program files/atmel/atmel toolchain/avr32 gcc/native/3.4.2.1002/avr32-gnu-toolchain/bin/../lib/gcc/avr32/4.4.7/ucr3fp\libgcc.a(_avr32_f64_cmp_eq.o)
 .bss           0x00000000        0x0 c:/program files/atmel/atmel toolchain/avr32 gcc/native/3.4.2.1002/avr32-gnu-toolchain/bin/../lib/gcc/avr32/4.4.7/ucr3fp\libgcc.a(_avr32_f64_cmp_eq.o)
 .data          0x00000000        0x0 c:/program files/atmel/atmel toolchain/avr32 gcc/native/3.4.2.1002/avr32-gnu-toolchain/bin/../lib/gcc/avr32/4.4.7/ucr3fp\libgcc.a(_avr32_f64_cmp_ge.o)
 .bss           0x00000000        0x0 c:/program files/atmel/atmel toolchain/avr32 gcc/native/3.4.2.1002/avr32-gnu-toolchain/bin/../lib/gcc/avr32/4.4.7/ucr3fp\libgcc.a(_avr32_f64_cmp_ge.o)
 .data          0x00000000        0x0 c:/program files/atmel/atmel toolchain/avr32 gcc/native/3.4.2.1002/avr32-gnu-toolchain/bin/../lib/gcc/avr32/4.4.7/ucr3fp\libgcc.a(_avr32_f64_cmp_lt.o)
 .bss           0x00000000        0x0 c:/program files/atmel/atmel toolchain/avr32 gcc/native/3.4.2.1002/avr32-gnu-toolchain/bin/../lib/gcc/avr32/4.4.7/ucr3fp\libgcc.a(_avr32_f64_cmp_lt.o)
 .data          0x00000000        0x0 c:/program files/atmel/atmel toolchain/avr32 gcc/native/3.4.2.1002/avr32-gnu-toolchain/bin/../lib/gcc/avr32/4.4.7/ucr3fp\libgcc.a(_avr32_f64_div.o)
 .bss           0x00000000        0x0 c:/program files/atmel/atmel toolchain/avr32 gcc/native/3.4.2.1002/avr32-gnu-toolchain/bin/../lib/gcc/avr32/4.4.7/ucr3fp\libgcc.a(_avr32_f64_div.o)
 .data          0x00000000        0x0 c:/program files/atmel/atmel toolchain/avr32 gcc/native/3.4.2.1002/avr32-gnu-toolchain/bin/../lib/gcc/avr32/4.4.7/ucr3fp\libgcc.a(_avr32_f32_div.o)
 .bss           0x00000000        0x0 c:/program files/atmel/atmel toolchain/avr32 gcc/native/3.4.2.1002/avr32-gnu-toolchain/bin/../lib/gcc/avr32/4.4.7/ucr3fp\libgcc.a(_avr32_f32_div.o)
 .data          0x00000000        0x0 c:/program files/atmel/atmel toolchain/avr32 gcc/native/3.4.2.1002/avr32-gnu-toolchain/bin/../lib/gcc/avr32/4.4.7/ucr3fp\libgcc.a(_avr32_f32_to_f64.o)
 .bss           0x00000000        0x0 c:/program files/atmel/atmel toolchain/avr32 gcc/native/3.4.2.1002/avr32-gnu-toolchain/bin/../lib/gcc/avr32/4.4.7/ucr3fp\libgcc.a(_avr32_f32_to_f64.o)
 .data          0x00000000        0x0 c:/program files/atmel/atmel toolchain/avr32 gcc/native/3.4.2.1002/avr32-gnu-toolchain/bin/../lib/gcc/avr32/4.4.7/ucr3fp\libgcc.a(_avr32_f64_to_f32.o)
 .bss           0x00000000        0x0 c:/program files/atmel/atmel toolchain/avr32 gcc/native/3.4.2.1002/avr32-gnu-toolchain/bin/../lib/gcc/avr32/4.4.7/ucr3fp\libgcc.a(_avr32_f64_to_f32.o)
 .data          0x00000000        0x0 c:/program files/atmel/atmel toolchain/avr32 gcc/native/3.4.2.1002/avr32-gnu-toolchain/bin/../lib/gcc/avr32/4.4.7/ucr3fp\libgcc.a(_udivdi3.o)
 .bss           0x00000000        0x0 c:/program files/atmel/atmel toolchain/avr32 gcc/native/3.4.2.1002/avr32-gnu-toolchain/bin/../lib/gcc/avr32/4.4.7/ucr3fp\libgcc.a(_udivdi3.o)
 .text          0x00000000        0x0 c:/program files/atmel/atmel toolchain/avr32 gcc/native/3.4.2.1002/avr32-gnu-toolchain/bin/../lib/gcc/avr32/4.4.7/../../../../avr32/lib/ucr3fp\libc.a(lib_a-errno.o)
 .data          0x00000000        0x0 c:/program files/atmel/atmel toolchain/avr32 gcc/native/3.4.2.1002/avr32-gnu-toolchain/bin/../lib/gcc/avr32/4.4.7/../../../../avr32/lib/ucr3fp\libc.a(lib_a-errno.o)
 .bss           0x00000000        0x0 c:/program files/atmel/atmel toolchain/avr32 gcc/native/3.4.2.1002/avr32-gnu-toolchain/bin/../lib/gcc/avr32/4.4.7/../../../../avr32/lib/ucr3fp\libc.a(lib_a-errno.o)
 .text          0x00000000        0x0 c:/program files/atmel/atmel toolchain/avr32 gcc/native/3.4.2.1002/avr32-gnu-toolchain/bin/../lib/gcc/avr32/4.4.7/../../../../avr32/lib/ucr3fp\libc.a(lib_a-impure.o)
 .data          0x00000000        0x0 c:/program files/atmel/atmel toolchain/avr32 gcc/native/3.4.2.1002/avr32-gnu-toolchain/bin/../lib/gcc/avr32/4.4.7/../../../../avr32/lib/ucr3fp\libc.a(lib_a-impure.o)
 .bss           0x00000000        0x0 c:/program files/atmel/atmel toolchain/avr32 gcc/native/3.4.2.1002/avr32-gnu-toolchain/bin/../lib/gcc/avr32/4.4.7/../../../../avr32/lib/ucr3fp\libc.a(lib_a-impure.o)
 .rodata._global_impure_ptr
                0x00000000        0x4 c:/program files/atmel/atmel toolchain/avr32 gcc/native/3.4.2.1002/avr32-gnu-toolchain/bin/../lib/gcc/avr32/4.4.7/../../../../avr32/lib/ucr3fp\libc.a(lib_a-impure.o)
 .data          0x00000000        0x0 c:/program files/atmel/atmel toolchain/avr32 gcc/native/3.4.2.1002/avr32-gnu-toolchain/bin/../lib/gcc/avr32/4.4.7/../../../../avr32/lib/ucr3fp\libc.a(lib_a-memcpy.o)
 .bss           0x00000000        0x0 c:/program files/atmel/atmel toolchain/avr32 gcc/native/3.4.2.1002/avr32-gnu-toolchain/bin/../lib/gcc/avr32/4.4.7/../../../../avr32/lib/ucr3fp\libc.a(lib_a-memcpy.o)
 .text          0x00000000        0x0 c:/program files/atmel/atmel toolchain/avr32 gcc/native/3.4.2.1002/avr32-gnu-toolchain/bin/../lib/gcc/avr32/4.4.7/../../../../avr32/lib/ucr3fp\libc.a(lib_a-memset.o)
 .data          0x00000000        0x0 c:/program files/atmel/atmel toolchain/avr32 gcc/native/3.4.2.1002/avr32-gnu-toolchain/bin/../lib/gcc/avr32/4.4.7/../../../../avr32/lib/ucr3fp\libc.a(lib_a-memset.o)
 .bss           0x00000000        0x0 c:/program files/atmel/atmel toolchain/avr32 gcc/native/3.4.2.1002/avr32-gnu-toolchain/bin/../lib/gcc/avr32/4.4.7/../../../../avr32/lib/ucr3fp\libc.a(lib_a-memset.o)
 .text          0x00000000        0x0 c:/program files/atmel/atmel toolchain/avr32 gcc/native/3.4.2.1002/avr32-gnu-toolchain/bin/../lib/gcc/avr32/4.4.7/../../../../avr32/lib/ucr3fp\libc.a(lib_a-strcpy.o)
 .data          0x00000000        0x0 c:/program files/atmel/atmel toolchain/avr32 gcc/native/3.4.2.1002/avr32-gnu-toolchain/bin/../lib/gcc/avr32/4.4.7/../../../../avr32/lib/ucr3fp\libc.a(lib_a-strcpy.o)
 .bss           0x00000000        0x0 c:/program files/atmel/atmel toolchain/avr32 gcc/native/3.4.2.1002/avr32-gnu-toolchain/bin/../lib/gcc/avr32/4.4.7/../../../../avr32/lib/ucr3fp\libc.a(lib_a-strcpy.o)
 .text          0x00000000        0x0 c:/program files/atmel/atmel toolchain/avr32 gcc/native/3.4.2.1002/avr32-gnu-toolchain/bin/../lib/gcc/avr32/4.4.7/../../../../avr32/lib/ucr3fp\libc.a(lib_a-strlen.o)
 .data          0x00000000        0x0 c:/program files/atmel/atmel toolchain/avr32 gcc/native/3.4.2.1002/avr32-gnu-toolchain/bin/../lib/gcc/avr32/4.4.7/../../../../avr32/lib/ucr3fp\libc.a(lib_a-strlen.o)
 .bss           0x00000000        0x0 c:/program files/atmel/atmel toolchain/avr32 gcc/native/3.4.2.1002/avr32-gnu-toolchain/bin/../lib/gcc/avr32/4.4.7/../../../../avr32/lib/ucr3fp\libc.a(lib_a-strlen.o)
 .text          0x00000000        0x0 c:/program files/atmel/atmel toolchain/avr32 gcc/native/3.4.2.1002/avr32-gnu-toolchain/bin/../lib/gcc/avr32/4.4.7/../../../../avr32/lib/ucr3fp\libc.a(lib_a-findfp.o)
 .data          0x00000000        0x0 c:/program files/atmel/atmel toolchain/avr32 gcc/native/3.4.2.1002/avr32-gnu-toolchain/bin/../lib/gcc/avr32/4.4.7/../../../../avr32/lib/ucr3fp\libc.a(lib_a-findfp.o)
 .bss           0x00000000        0x0 c:/program files/atmel/atmel toolchain/avr32 gcc/native/3.4.2.1002/avr32-gnu-toolchain/bin/../lib/gcc/avr32/4.4.7/../../../../avr32/lib/ucr3fp\libc.a(lib_a-findfp.o)
 .text.__sfp_lock_acquire
                0x00000000        0x2 c:/program files/atmel/atmel toolchain/avr32 gcc/native/3.4.2.1002/avr32-gnu-toolchain/bin/../lib/gcc/avr32/4.4.7/../../../../avr32/lib/ucr3fp\libc.a(lib_a-findfp.o)
 .text.__sfp_lock_release
                0x00000000        0x2 c:/program files/atmel/atmel toolchain/avr32 gcc/native/3.4.2.1002/avr32-gnu-toolchain/bin/../lib/gcc/avr32/4.4.7/../../../../avr32/lib/ucr3fp\libc.a(lib_a-findfp.o)
 .text.__sinit_lock_acquire
                0x00000000        0x2 c:/program files/atmel/atmel toolchain/avr32 gcc/native/3.4.2.1002/avr32-gnu-toolchain/bin/../lib/gcc/avr32/4.4.7/../../../../avr32/lib/ucr3fp\libc.a(lib_a-findfp.o)
 .text.__sinit_lock_release
                0x00000000        0x2 c:/program files/atmel/atmel toolchain/avr32 gcc/native/3.4.2.1002/avr32-gnu-toolchain/bin/../lib/gcc/avr32/4.4.7/../../../../avr32/lib/ucr3fp\libc.a(lib_a-findfp.o)
 .text.__fp_lock
                0x00000000        0x2 c:/program files/atmel/atmel toolchain/avr32 gcc/native/3.4.2.1002/avr32-gnu-toolchain/bin/../lib/gcc/avr32/4.4.7/../../../../avr32/lib/ucr3fp\libc.a(lib_a-findfp.o)
 .text.__fp_unlock
                0x00000000        0x2 c:/program files/atmel/atmel toolchain/avr32 gcc/native/3.4.2.1002/avr32-gnu-toolchain/bin/../lib/gcc/avr32/4.4.7/../../../../avr32/lib/ucr3fp\libc.a(lib_a-findfp.o)
 .text.__fp_unlock_all
                0x00000000       0x1c c:/program files/atmel/atmel toolchain/avr32 gcc/native/3.4.2.1002/avr32-gnu-toolchain/bin/../lib/gcc/avr32/4.4.7/../../../../avr32/lib/ucr3fp\libc.a(lib_a-findfp.o)
 .text.__fp_lock_all
                0x00000000       0x1c c:/program files/atmel/atmel toolchain/avr32 gcc/native/3.4.2.1002/avr32-gnu-toolchain/bin/../lib/gcc/avr32/4.4.7/../../../../avr32/lib/ucr3fp\libc.a(lib_a-findfp.o)
 .text._cleanup_r
                0x00000000       0x14 c:/program files/atmel/atmel toolchain/avr32 gcc/native/3.4.2.1002/avr32-gnu-toolchain/bin/../lib/gcc/avr32/4.4.7/../../../../avr32/lib/ucr3fp\libc.a(lib_a-findfp.o)
 .text._cleanup
                0x00000000       0x14 c:/program files/atmel/atmel toolchain/avr32 gcc/native/3.4.2.1002/avr32-gnu-toolchain/bin/../lib/gcc/avr32/4.4.7/../../../../avr32/lib/ucr3fp\libc.a(lib_a-findfp.o)
 .text.__sfmoreglue
                0x00000000       0x30 c:/program files/atmel/atmel toolchain/avr32 gcc/native/3.4.2.1002/avr32-gnu-toolchain/bin/../lib/gcc/avr32/4.4.7/../../../../avr32/lib/ucr3fp\libc.a(lib_a-findfp.o)
 .text.__sfp    0x00000000       0x7c c:/program files/atmel/atmel toolchain/avr32 gcc/native/3.4.2.1002/avr32-gnu-toolchain/bin/../lib/gcc/avr32/4.4.7/../../../../avr32/lib/ucr3fp\libc.a(lib_a-findfp.o)
 .text.__sinit  0x00000000       0xb0 c:/program files/atmel/atmel toolchain/avr32 gcc/native/3.4.2.1002/avr32-gnu-toolchain/bin/../lib/gcc/avr32/4.4.7/../../../../avr32/lib/ucr3fp\libc.a(lib_a-findfp.o)
 .text          0x00000000        0x0 c:/program files/atmel/atmel toolchain/avr32 gcc/native/3.4.2.1002/avr32-gnu-toolchain/bin/../lib/gcc/avr32/4.4.7/../../../../avr32/lib/ucr3fp\libc.a(lib_a-fwalk.o)
 .data          0x00000000        0x0 c:/program files/atmel/atmel toolchain/avr32 gcc/native/3.4.2.1002/avr32-gnu-toolchain/bin/../lib/gcc/avr32/4.4.7/../../../../avr32/lib/ucr3fp\libc.a(lib_a-fwalk.o)
 .bss           0x00000000        0x0 c:/program files/atmel/atmel toolchain/avr32 gcc/native/3.4.2.1002/avr32-gnu-toolchain/bin/../lib/gcc/avr32/4.4.7/../../../../avr32/lib/ucr3fp\libc.a(lib_a-fwalk.o)
 .debug_abbrev  0x00000000      0x1df c:/program files/atmel/atmel toolchain/avr32 gcc/native/3.4.2.1002/avr32-gnu-toolchain/bin/../lib/gcc/avr32/4.4.7/../../../../avr32/lib/ucr3fp\libc.a(lib_a-fwalk.o)
 .debug_info    0x00000000      0xa61 c:/program files/atmel/atmel toolchain/avr32 gcc/native/3.4.2.1002/avr32-gnu-toolchain/bin/../lib/gcc/avr32/4.4.7/../../../../avr32/lib/ucr3fp\libc.a(lib_a-fwalk.o)
 .debug_line    0x00000000      0x2f1 c:/program files/atmel/atmel toolchain/avr32 gcc/native/3.4.2.1002/avr32-gnu-toolchain/bin/../lib/gcc/avr32/4.4.7/../../../../avr32/lib/ucr3fp\libc.a(lib_a-fwalk.o)
 .text._fwalk_reent
                0x00000000       0x58 c:/program files/atmel/atmel toolchain/avr32 gcc/native/3.4.2.1002/avr32-gnu-toolchain/bin/../lib/gcc/avr32/4.4.7/../../../../avr32/lib/ucr3fp\libc.a(lib_a-fwalk.o)
 .text._fwalk   0x00000000       0x54 c:/program files/atmel/atmel toolchain/avr32 gcc/native/3.4.2.1002/avr32-gnu-toolchain/bin/../lib/gcc/avr32/4.4.7/../../../../avr32/lib/ucr3fp\libc.a(lib_a-fwalk.o)
 .debug_frame   0x00000000       0x70 c:/program files/atmel/atmel toolchain/avr32 gcc/native/3.4.2.1002/avr32-gnu-toolchain/bin/../lib/gcc/avr32/4.4.7/../../../../avr32/lib/ucr3fp\libc.a(lib_a-fwalk.o)
 .debug_loc     0x00000000       0xe7 c:/program files/atmel/atmel toolchain/avr32 gcc/native/3.4.2.1002/avr32-gnu-toolchain/bin/../lib/gcc/avr32/4.4.7/../../../../avr32/lib/ucr3fp\libc.a(lib_a-fwalk.o)
 .debug_pubnames
                0x00000000       0x2e c:/program files/atmel/atmel toolchain/avr32 gcc/native/3.4.2.1002/avr32-gnu-toolchain/bin/../lib/gcc/avr32/4.4.7/../../../../avr32/lib/ucr3fp\libc.a(lib_a-fwalk.o)
 .debug_aranges
                0x00000000       0x28 c:/program files/atmel/atmel toolchain/avr32 gcc/native/3.4.2.1002/avr32-gnu-toolchain/bin/../lib/gcc/avr32/4.4.7/../../../../avr32/lib/ucr3fp\libc.a(lib_a-fwalk.o)
 .debug_ranges  0x00000000       0xa0 c:/program files/atmel/atmel toolchain/avr32 gcc/native/3.4.2.1002/avr32-gnu-toolchain/bin/../lib/gcc/avr32/4.4.7/../../../../avr32/lib/ucr3fp\libc.a(lib_a-fwalk.o)
 .debug_str     0x00000000      0x4da c:/program files/atmel/atmel toolchain/avr32 gcc/native/3.4.2.1002/avr32-gnu-toolchain/bin/../lib/gcc/avr32/4.4.7/../../../../avr32/lib/ucr3fp\libc.a(lib_a-fwalk.o)
 .comment       0x00000000       0x31 c:/program files/atmel/atmel toolchain/avr32 gcc/native/3.4.2.1002/avr32-gnu-toolchain/bin/../lib/gcc/avr32/4.4.7/../../../../avr32/lib/ucr3fp\libc.a(lib_a-fwalk.o)
 .text          0x00000000        0x0 c:/program files/atmel/atmel toolchain/avr32 gcc/native/3.4.2.1002/avr32-gnu-toolchain/bin/../lib/gcc/avr32/4.4.7/../../../../avr32/lib/ucr3fp\libc.a(lib_a-mallocr.o)
 .data          0x00000000        0x0 c:/program files/atmel/atmel toolchain/avr32 gcc/native/3.4.2.1002/avr32-gnu-toolchain/bin/../lib/gcc/avr32/4.4.7/../../../../avr32/lib/ucr3fp\libc.a(lib_a-mallocr.o)
 .bss           0x00000000        0x0 c:/program files/atmel/atmel toolchain/avr32 gcc/native/3.4.2.1002/avr32-gnu-toolchain/bin/../lib/gcc/avr32/4.4.7/../../../../avr32/lib/ucr3fp\libc.a(lib_a-mallocr.o)
 .debug_abbrev  0x00000000      0x205 c:/program files/atmel/atmel toolchain/avr32 gcc/native/3.4.2.1002/avr32-gnu-toolchain/bin/../lib/gcc/avr32/4.4.7/../../../../avr32/lib/ucr3fp\libc.a(lib_a-mallocr.o)
 .debug_info    0x00000000      0xc4e c:/program files/atmel/atmel toolchain/avr32 gcc/native/3.4.2.1002/avr32-gnu-toolchain/bin/../lib/gcc/avr32/4.4.7/../../../../avr32/lib/ucr3fp\libc.a(lib_a-mallocr.o)
 .debug_line    0x00000000      0x56c c:/program files/atmel/atmel toolchain/avr32 gcc/native/3.4.2.1002/avr32-gnu-toolchain/bin/../lib/gcc/avr32/4.4.7/../../../../avr32/lib/ucr3fp\libc.a(lib_a-mallocr.o)
 .text._malloc_r
                0x00000000      0x450 c:/program files/atmel/atmel toolchain/avr32 gcc/native/3.4.2.1002/avr32-gnu-toolchain/bin/../lib/gcc/avr32/4.4.7/../../../../avr32/lib/ucr3fp\libc.a(lib_a-mallocr.o)
 .data.__malloc_av_
                0x00000000      0x408 c:/program files/atmel/atmel toolchain/avr32 gcc/native/3.4.2.1002/avr32-gnu-toolchain/bin/../lib/gcc/avr32/4.4.7/../../../../avr32/lib/ucr3fp\libc.a(lib_a-mallocr.o)
 .data.__malloc_trim_threshold
                0x00000000        0x4 c:/program files/atmel/atmel toolchain/avr32 gcc/native/3.4.2.1002/avr32-gnu-toolchain/bin/../lib/gcc/avr32/4.4.7/../../../../avr32/lib/ucr3fp\libc.a(lib_a-mallocr.o)
 .bss.__malloc_max_total_mem
                0x00000000        0x4 c:/program files/atmel/atmel toolchain/avr32 gcc/native/3.4.2.1002/avr32-gnu-toolchain/bin/../lib/gcc/avr32/4.4.7/../../../../avr32/lib/ucr3fp\libc.a(lib_a-mallocr.o)
 .bss.__malloc_max_sbrked_mem
                0x00000000        0x4 c:/program files/atmel/atmel toolchain/avr32 gcc/native/3.4.2.1002/avr32-gnu-toolchain/bin/../lib/gcc/avr32/4.4.7/../../../../avr32/lib/ucr3fp\libc.a(lib_a-mallocr.o)
 .bss.__malloc_top_pad
                0x00000000        0x4 c:/program files/atmel/atmel toolchain/avr32 gcc/native/3.4.2.1002/avr32-gnu-toolchain/bin/../lib/gcc/avr32/4.4.7/../../../../avr32/lib/ucr3fp\libc.a(lib_a-mallocr.o)
 .bss.__malloc_current_mallinfo
                0x00000000       0x28 c:/program files/atmel/atmel toolchain/avr32 gcc/native/3.4.2.1002/avr32-gnu-toolchain/bin/../lib/gcc/avr32/4.4.7/../../../../avr32/lib/ucr3fp\libc.a(lib_a-mallocr.o)
 .data.__malloc_sbrk_base
                0x00000000        0x4 c:/program files/atmel/atmel toolchain/avr32 gcc/native/3.4.2.1002/avr32-gnu-toolchain/bin/../lib/gcc/avr32/4.4.7/../../../../avr32/lib/ucr3fp\libc.a(lib_a-mallocr.o)
 .debug_frame   0x00000000       0x40 c:/program files/atmel/atmel toolchain/avr32 gcc/native/3.4.2.1002/avr32-gnu-toolchain/bin/../lib/gcc/avr32/4.4.7/../../../../avr32/lib/ucr3fp\libc.a(lib_a-mallocr.o)
 .debug_loc     0x00000000      0x59a c:/program files/atmel/atmel toolchain/avr32 gcc/native/3.4.2.1002/avr32-gnu-toolchain/bin/../lib/gcc/avr32/4.4.7/../../../../avr32/lib/ucr3fp\libc.a(lib_a-mallocr.o)
 .debug_pubnames
                0x00000000       0xce c:/program files/atmel/atmel toolchain/avr32 gcc/native/3.4.2.1002/avr32-gnu-toolchain/bin/../lib/gcc/avr32/4.4.7/../../../../avr32/lib/ucr3fp\libc.a(lib_a-mallocr.o)
 .debug_aranges
                0x00000000       0x20 c:/program files/atmel/atmel toolchain/avr32 gcc/native/3.4.2.1002/avr32-gnu-toolchain/bin/../lib/gcc/avr32/4.4.7/../../../../avr32/lib/ucr3fp\libc.a(lib_a-mallocr.o)
 .debug_ranges  0x00000000       0x18 c:/program files/atmel/atmel toolchain/avr32 gcc/native/3.4.2.1002/avr32-gnu-toolchain/bin/../lib/gcc/avr32/4.4.7/../../../../avr32/lib/ucr3fp\libc.a(lib_a-mallocr.o)
 .debug_str     0x00000000      0x695 c:/program files/atmel/atmel toolchain/avr32 gcc/native/3.4.2.1002/avr32-gnu-toolchain/bin/../lib/gcc/avr32/4.4.7/../../../../avr32/lib/ucr3fp\libc.a(lib_a-mallocr.o)
 .comment       0x00000000       0x31 c:/program files/atmel/atmel toolchain/avr32 gcc/native/3.4.2.1002/avr32-gnu-toolchain/bin/../lib/gcc/avr32/4.4.7/../../../../avr32/lib/ucr3fp\libc.a(lib_a-mallocr.o)
 .text          0x00000000        0x0 c:/program files/atmel/atmel toolchain/avr32 gcc/native/3.4.2.1002/avr32-gnu-toolchain/bin/../lib/gcc/avr32/4.4.7/../../../../avr32/lib/ucr3fp\libc.a(lib_a-mlock.o)
 .data          0x00000000        0x0 c:/program files/atmel/atmel toolchain/avr32 gcc/native/3.4.2.1002/avr32-gnu-toolchain/bin/../lib/gcc/avr32/4.4.7/../../../../avr32/lib/ucr3fp\libc.a(lib_a-mlock.o)
 .bss           0x00000000        0x0 c:/program files/atmel/atmel toolchain/avr32 gcc/native/3.4.2.1002/avr32-gnu-toolchain/bin/../lib/gcc/avr32/4.4.7/../../../../avr32/lib/ucr3fp\libc.a(lib_a-mlock.o)
 .debug_abbrev  0x00000000      0x15b c:/program files/atmel/atmel toolchain/avr32 gcc/native/3.4.2.1002/avr32-gnu-toolchain/bin/../lib/gcc/avr32/4.4.7/../../../../avr32/lib/ucr3fp\libc.a(lib_a-mlock.o)
 .debug_info    0x00000000      0x8cf c:/program files/atmel/atmel toolchain/avr32 gcc/native/3.4.2.1002/avr32-gnu-toolchain/bin/../lib/gcc/avr32/4.4.7/../../../../avr32/lib/ucr3fp\libc.a(lib_a-mlock.o)
 .debug_line    0x00000000      0x1cf c:/program files/atmel/atmel toolchain/avr32 gcc/native/3.4.2.1002/avr32-gnu-toolchain/bin/../lib/gcc/avr32/4.4.7/../../../../avr32/lib/ucr3fp\libc.a(lib_a-mlock.o)
 .text.__malloc_lock
                0x00000000        0x2 c:/program files/atmel/atmel toolchain/avr32 gcc/native/3.4.2.1002/avr32-gnu-toolchain/bin/../lib/gcc/avr32/4.4.7/../../../../avr32/lib/ucr3fp\libc.a(lib_a-mlock.o)
 .text.__malloc_unlock
                0x00000000        0x2 c:/program files/atmel/atmel toolchain/avr32 gcc/native/3.4.2.1002/avr32-gnu-toolchain/bin/../lib/gcc/avr32/4.4.7/../../../../avr32/lib/ucr3fp\libc.a(lib_a-mlock.o)
 .debug_frame   0x00000000       0x30 c:/program files/atmel/atmel toolchain/avr32 gcc/native/3.4.2.1002/avr32-gnu-toolchain/bin/../lib/gcc/avr32/4.4.7/../../../../avr32/lib/ucr3fp\libc.a(lib_a-mlock.o)
 .debug_pubnames
                0x00000000       0x38 c:/program files/atmel/atmel toolchain/avr32 gcc/native/3.4.2.1002/avr32-gnu-toolchain/bin/../lib/gcc/avr32/4.4.7/../../../../avr32/lib/ucr3fp\libc.a(lib_a-mlock.o)
 .debug_aranges
                0x00000000       0x28 c:/program files/atmel/atmel toolchain/avr32 gcc/native/3.4.2.1002/avr32-gnu-toolchain/bin/../lib/gcc/avr32/4.4.7/../../../../avr32/lib/ucr3fp\libc.a(lib_a-mlock.o)
 .debug_ranges  0x00000000       0x20 c:/program files/atmel/atmel toolchain/avr32 gcc/native/3.4.2.1002/avr32-gnu-toolchain/bin/../lib/gcc/avr32/4.4.7/../../../../avr32/lib/ucr3fp\libc.a(lib_a-mlock.o)
 .debug_str     0x00000000      0x4c7 c:/program files/atmel/atmel toolchain/avr32 gcc/native/3.4.2.1002/avr32-gnu-toolchain/bin/../lib/gcc/avr32/4.4.7/../../../../avr32/lib/ucr3fp\libc.a(lib_a-mlock.o)
 .comment       0x00000000       0x31 c:/program files/atmel/atmel toolchain/avr32 gcc/native/3.4.2.1002/avr32-gnu-toolchain/bin/../lib/gcc/avr32/4.4.7/../../../../avr32/lib/ucr3fp\libc.a(lib_a-mlock.o)
 .text          0x00000000        0x0 c:/program files/atmel/atmel toolchain/avr32 gcc/native/3.4.2.1002/avr32-gnu-toolchain/bin/../lib/gcc/avr32/4.4.7/../../../../avr32/lib/ucr3fp\libc.a(lib_a-sbrkr.o)
 .data          0x00000000        0x0 c:/program files/atmel/atmel toolchain/avr32 gcc/native/3.4.2.1002/avr32-gnu-toolchain/bin/../lib/gcc/avr32/4.4.7/../../../../avr32/lib/ucr3fp\libc.a(lib_a-sbrkr.o)
 .bss           0x00000000        0x0 c:/program files/atmel/atmel toolchain/avr32 gcc/native/3.4.2.1002/avr32-gnu-toolchain/bin/../lib/gcc/avr32/4.4.7/../../../../avr32/lib/ucr3fp\libc.a(lib_a-sbrkr.o)
 .debug_abbrev  0x00000000      0x17f c:/program files/atmel/atmel toolchain/avr32 gcc/native/3.4.2.1002/avr32-gnu-toolchain/bin/../lib/gcc/avr32/4.4.7/../../../../avr32/lib/ucr3fp\libc.a(lib_a-sbrkr.o)
 .debug_info    0x00000000      0x8de c:/program files/atmel/atmel toolchain/avr32 gcc/native/3.4.2.1002/avr32-gnu-toolchain/bin/../lib/gcc/avr32/4.4.7/../../../../avr32/lib/ucr3fp\libc.a(lib_a-sbrkr.o)
 .debug_line    0x00000000      0x24f c:/program files/atmel/atmel toolchain/avr32 gcc/native/3.4.2.1002/avr32-gnu-toolchain/bin/../lib/gcc/avr32/4.4.7/../../../../avr32/lib/ucr3fp\libc.a(lib_a-sbrkr.o)
 .text._sbrk_r  0x00000000       0x28 c:/program files/atmel/atmel toolchain/avr32 gcc/native/3.4.2.1002/avr32-gnu-toolchain/bin/../lib/gcc/avr32/4.4.7/../../../../avr32/lib/ucr3fp\libc.a(lib_a-sbrkr.o)
 .debug_frame   0x00000000       0x34 c:/program files/atmel/atmel toolchain/avr32 gcc/native/3.4.2.1002/avr32-gnu-toolchain/bin/../lib/gcc/avr32/4.4.7/../../../../avr32/lib/ucr3fp\libc.a(lib_a-sbrkr.o)
 .debug_loc     0x00000000       0x63 c:/program files/atmel/atmel toolchain/avr32 gcc/native/3.4.2.1002/avr32-gnu-toolchain/bin/../lib/gcc/avr32/4.4.7/../../../../avr32/lib/ucr3fp\libc.a(lib_a-sbrkr.o)
 .debug_pubnames
                0x00000000       0x1e c:/program files/atmel/atmel toolchain/avr32 gcc/native/3.4.2.1002/avr32-gnu-toolchain/bin/../lib/gcc/avr32/4.4.7/../../../../avr32/lib/ucr3fp\libc.a(lib_a-sbrkr.o)
 .debug_aranges
                0x00000000       0x20 c:/program files/atmel/atmel toolchain/avr32 gcc/native/3.4.2.1002/avr32-gnu-toolchain/bin/../lib/gcc/avr32/4.4.7/../../../../avr32/lib/ucr3fp\libc.a(lib_a-sbrkr.o)
 .debug_ranges  0x00000000       0x18 c:/program files/atmel/atmel toolchain/avr32 gcc/native/3.4.2.1002/avr32-gnu-toolchain/bin/../lib/gcc/avr32/4.4.7/../../../../avr32/lib/ucr3fp\libc.a(lib_a-sbrkr.o)
 .debug_str     0x00000000      0x4b0 c:/program files/atmel/atmel toolchain/avr32 gcc/native/3.4.2.1002/avr32-gnu-toolchain/bin/../lib/gcc/avr32/4.4.7/../../../../avr32/lib/ucr3fp\libc.a(lib_a-sbrkr.o)
 .comment       0x00000000       0x31 c:/program files/atmel/atmel toolchain/avr32 gcc/native/3.4.2.1002/avr32-gnu-toolchain/bin/../lib/gcc/avr32/4.4.7/../../../../avr32/lib/ucr3fp\libc.a(lib_a-sbrkr.o)
 .text          0x00000000        0x0 c:/program files/atmel/atmel toolchain/avr32 gcc/native/3.4.2.1002/avr32-gnu-toolchain/bin/../lib/gcc/avr32/4.4.7/../../../../avr32/lib/ucr3fp\libc.a(lib_a-stdio.o)
 .data          0x00000000        0x0 c:/program files/atmel/atmel toolchain/avr32 gcc/native/3.4.2.1002/avr32-gnu-toolchain/bin/../lib/gcc/avr32/4.4.7/../../../../avr32/lib/ucr3fp\libc.a(lib_a-stdio.o)
 .bss           0x00000000        0x0 c:/program files/atmel/atmel toolchain/avr32 gcc/native/3.4.2.1002/avr32-gnu-toolchain/bin/../lib/gcc/avr32/4.4.7/../../../../avr32/lib/ucr3fp\libc.a(lib_a-stdio.o)
 .debug_abbrev  0x00000000      0x192 c:/program files/atmel/atmel toolchain/avr32 gcc/native/3.4.2.1002/avr32-gnu-toolchain/bin/../lib/gcc/avr32/4.4.7/../../../../avr32/lib/ucr3fp\libc.a(lib_a-stdio.o)
 .debug_info    0x00000000      0xa28 c:/program files/atmel/atmel toolchain/avr32 gcc/native/3.4.2.1002/avr32-gnu-toolchain/bin/../lib/gcc/avr32/4.4.7/../../../../avr32/lib/ucr3fp\libc.a(lib_a-stdio.o)
 .debug_line    0x00000000      0x2fa c:/program files/atmel/atmel toolchain/avr32 gcc/native/3.4.2.1002/avr32-gnu-toolchain/bin/../lib/gcc/avr32/4.4.7/../../../../avr32/lib/ucr3fp\libc.a(lib_a-stdio.o)
 .text.__sclose
                0x00000000       0x10 c:/program files/atmel/atmel toolchain/avr32 gcc/native/3.4.2.1002/avr32-gnu-toolchain/bin/../lib/gcc/avr32/4.4.7/../../../../avr32/lib/ucr3fp\libc.a(lib_a-stdio.o)
 .text.__sseek  0x00000000       0x28 c:/program files/atmel/atmel toolchain/avr32 gcc/native/3.4.2.1002/avr32-gnu-toolchain/bin/../lib/gcc/avr32/4.4.7/../../../../avr32/lib/ucr3fp\libc.a(lib_a-stdio.o)
 .text.__swrite
                0x00000000       0x38 c:/program files/atmel/atmel toolchain/avr32 gcc/native/3.4.2.1002/avr32-gnu-toolchain/bin/../lib/gcc/avr32/4.4.7/../../../../avr32/lib/ucr3fp\libc.a(lib_a-stdio.o)
 .text.__sread  0x00000000       0x24 c:/program files/atmel/atmel toolchain/avr32 gcc/native/3.4.2.1002/avr32-gnu-toolchain/bin/../lib/gcc/avr32/4.4.7/../../../../avr32/lib/ucr3fp\libc.a(lib_a-stdio.o)
 .debug_frame   0x00000000       0x94 c:/program files/atmel/atmel toolchain/avr32 gcc/native/3.4.2.1002/avr32-gnu-toolchain/bin/../lib/gcc/avr32/4.4.7/../../../../avr32/lib/ucr3fp\libc.a(lib_a-stdio.o)
 .debug_loc     0x00000000      0x1ee c:/program files/atmel/atmel toolchain/avr32 gcc/native/3.4.2.1002/avr32-gnu-toolchain/bin/../lib/gcc/avr32/4.4.7/../../../../avr32/lib/ucr3fp\libc.a(lib_a-stdio.o)
 .debug_pubnames
                0x00000000       0x44 c:/program files/atmel/atmel toolchain/avr32 gcc/native/3.4.2.1002/avr32-gnu-toolchain/bin/../lib/gcc/avr32/4.4.7/../../../../avr32/lib/ucr3fp\libc.a(lib_a-stdio.o)
 .debug_aranges
                0x00000000       0x38 c:/program files/atmel/atmel toolchain/avr32 gcc/native/3.4.2.1002/avr32-gnu-toolchain/bin/../lib/gcc/avr32/4.4.7/../../../../avr32/lib/ucr3fp\libc.a(lib_a-stdio.o)
 .debug_ranges  0x00000000       0x30 c:/program files/atmel/atmel toolchain/avr32 gcc/native/3.4.2.1002/avr32-gnu-toolchain/bin/../lib/gcc/avr32/4.4.7/../../../../avr32/lib/ucr3fp\libc.a(lib_a-stdio.o)
 .debug_str     0x00000000      0x4d6 c:/program files/atmel/atmel toolchain/avr32 gcc/native/3.4.2.1002/avr32-gnu-toolchain/bin/../lib/gcc/avr32/4.4.7/../../../../avr32/lib/ucr3fp\libc.a(lib_a-stdio.o)
 .comment       0x00000000       0x31 c:/program files/atmel/atmel toolchain/avr32 gcc/native/3.4.2.1002/avr32-gnu-toolchain/bin/../lib/gcc/avr32/4.4.7/../../../../avr32/lib/ucr3fp\libc.a(lib_a-stdio.o)
 .text          0x00000000        0x0 c:/program files/atmel/atmel toolchain/avr32 gcc/native/3.4.2.1002/avr32-gnu-toolchain/bin/../lib/gcc/avr32/4.4.7/../../../../avr32/lib/ucr3fp\libc.a(lib_a-syscalls.o)
 .data          0x00000000        0x0 c:/program files/atmel/atmel toolchain/avr32 gcc/native/3.4.2.1002/avr32-gnu-toolchain/bin/../lib/gcc/avr32/4.4.7/../../../../avr32/lib/ucr3fp\libc.a(lib_a-syscalls.o)
 .bss           0x00000000        0x0 c:/program files/atmel/atmel toolchain/avr32 gcc/native/3.4.2.1002/avr32-gnu-toolchain/bin/../lib/gcc/avr32/4.4.7/../../../../avr32/lib/ucr3fp\libc.a(lib_a-syscalls.o)
 .debug_abbrev  0x00000000      0x19a c:/program files/atmel/atmel toolchain/avr32 gcc/native/3.4.2.1002/avr32-gnu-toolchain/bin/../lib/gcc/avr32/4.4.7/../../../../avr32/lib/ucr3fp\libc.a(lib_a-syscalls.o)
 .debug_info    0x00000000      0x93a c:/program files/atmel/atmel toolchain/avr32 gcc/native/3.4.2.1002/avr32-gnu-toolchain/bin/../lib/gcc/avr32/4.4.7/../../../../avr32/lib/ucr3fp\libc.a(lib_a-syscalls.o)
 .debug_line    0x00000000      0x586 c:/program files/atmel/atmel toolchain/avr32 gcc/native/3.4.2.1002/avr32-gnu-toolchain/bin/../lib/gcc/avr32/4.4.7/../../../../avr32/lib/ucr3fp\libc.a(lib_a-syscalls.o)
 .text._init_startup
                0x00000000        0x2 c:/program files/atmel/atmel toolchain/avr32 gcc/native/3.4.2.1002/avr32-gnu-toolchain/bin/../lib/gcc/avr32/4.4.7/../../../../avr32/lib/ucr3fp\libc.a(lib_a-syscalls.o)
 .text._init_argv
                0x00000000        0xa c:/program files/atmel/atmel toolchain/avr32 gcc/native/3.4.2.1002/avr32-gnu-toolchain/bin/../lib/gcc/avr32/4.4.7/../../../../avr32/lib/ucr3fp\libc.a(lib_a-syscalls.o)
 .text._exit    0x00000000        0xa c:/program files/atmel/atmel toolchain/avr32 gcc/native/3.4.2.1002/avr32-gnu-toolchain/bin/../lib/gcc/avr32/4.4.7/../../../../avr32/lib/ucr3fp\libc.a(lib_a-syscalls.o)
 .text._open    0x00000000       0x18 c:/program files/atmel/atmel toolchain/avr32 gcc/native/3.4.2.1002/avr32-gnu-toolchain/bin/../lib/gcc/avr32/4.4.7/../../../../avr32/lib/ucr3fp\libc.a(lib_a-syscalls.o)
 .text._close   0x00000000       0x18 c:/program files/atmel/atmel toolchain/avr32 gcc/native/3.4.2.1002/avr32-gnu-toolchain/bin/../lib/gcc/avr32/4.4.7/../../../../avr32/lib/ucr3fp\libc.a(lib_a-syscalls.o)
 .text._lseek   0x00000000       0x18 c:/program files/atmel/atmel toolchain/avr32 gcc/native/3.4.2.1002/avr32-gnu-toolchain/bin/../lib/gcc/avr32/4.4.7/../../../../avr32/lib/ucr3fp\libc.a(lib_a-syscalls.o)
 .text._read    0x00000000       0x18 c:/program files/atmel/atmel toolchain/avr32 gcc/native/3.4.2.1002/avr32-gnu-toolchain/bin/../lib/gcc/avr32/4.4.7/../../../../avr32/lib/ucr3fp\libc.a(lib_a-syscalls.o)
 .text._write   0x00000000       0x18 c:/program files/atmel/atmel toolchain/avr32 gcc/native/3.4.2.1002/avr32-gnu-toolchain/bin/../lib/gcc/avr32/4.4.7/../../../../avr32/lib/ucr3fp\libc.a(lib_a-syscalls.o)
 .text.isatty   0x00000000       0x18 c:/program files/atmel/atmel toolchain/avr32 gcc/native/3.4.2.1002/avr32-gnu-toolchain/bin/../lib/gcc/avr32/4.4.7/../../../../avr32/lib/ucr3fp\libc.a(lib_a-syscalls.o)
 .text._fstat_host
                0x00000000       0x18 c:/program files/atmel/atmel toolchain/avr32 gcc/native/3.4.2.1002/avr32-gnu-toolchain/bin/../lib/gcc/avr32/4.4.7/../../../../avr32/lib/ucr3fp\libc.a(lib_a-syscalls.o)
 .text._stat_host
                0x00000000       0x18 c:/program files/atmel/atmel toolchain/avr32 gcc/native/3.4.2.1002/avr32-gnu-toolchain/bin/../lib/gcc/avr32/4.4.7/../../../../avr32/lib/ucr3fp\libc.a(lib_a-syscalls.o)
 .text._fstat   0x00000000       0x50 c:/program files/atmel/atmel toolchain/avr32 gcc/native/3.4.2.1002/avr32-gnu-toolchain/bin/../lib/gcc/avr32/4.4.7/../../../../avr32/lib/ucr3fp\libc.a(lib_a-syscalls.o)
 .text._stat    0x00000000       0x50 c:/program files/atmel/atmel toolchain/avr32 gcc/native/3.4.2.1002/avr32-gnu-toolchain/bin/../lib/gcc/avr32/4.4.7/../../../../avr32/lib/ucr3fp\libc.a(lib_a-syscalls.o)
 .text._gettimeofday_host
                0x00000000       0x18 c:/program files/atmel/atmel toolchain/avr32 gcc/native/3.4.2.1002/avr32-gnu-toolchain/bin/../lib/gcc/avr32/4.4.7/../../../../avr32/lib/ucr3fp\libc.a(lib_a-syscalls.o)
 .text._gettimeofday
                0x00000000       0x24 c:/program files/atmel/atmel toolchain/avr32 gcc/native/3.4.2.1002/avr32-gnu-toolchain/bin/../lib/gcc/avr32/4.4.7/../../../../avr32/lib/ucr3fp\libc.a(lib_a-syscalls.o)
 .text._unlink  0x00000000       0x18 c:/program files/atmel/atmel toolchain/avr32 gcc/native/3.4.2.1002/avr32-gnu-toolchain/bin/../lib/gcc/avr32/4.4.7/../../../../avr32/lib/ucr3fp\libc.a(lib_a-syscalls.o)
 .text._system  0x00000000       0x18 c:/program files/atmel/atmel toolchain/avr32 gcc/native/3.4.2.1002/avr32-gnu-toolchain/bin/../lib/gcc/avr32/4.4.7/../../../../avr32/lib/ucr3fp\libc.a(lib_a-syscalls.o)
 .text._execve  0x00000000        0x2 c:/program files/atmel/atmel toolchain/avr32 gcc/native/3.4.2.1002/avr32-gnu-toolchain/bin/../lib/gcc/avr32/4.4.7/../../../../avr32/lib/ucr3fp\libc.a(lib_a-syscalls.o)
 .text._fork    0x00000000        0x2 c:/program files/atmel/atmel toolchain/avr32 gcc/native/3.4.2.1002/avr32-gnu-toolchain/bin/../lib/gcc/avr32/4.4.7/../../../../avr32/lib/ucr3fp\libc.a(lib_a-syscalls.o)
 .text._wait    0x00000000        0x2 c:/program files/atmel/atmel toolchain/avr32 gcc/native/3.4.2.1002/avr32-gnu-toolchain/bin/../lib/gcc/avr32/4.4.7/../../../../avr32/lib/ucr3fp\libc.a(lib_a-syscalls.o)
 .text.sigfillset
                0x00000000        0x2 c:/program files/atmel/atmel toolchain/avr32 gcc/native/3.4.2.1002/avr32-gnu-toolchain/bin/../lib/gcc/avr32/4.4.7/../../../../avr32/lib/ucr3fp\libc.a(lib_a-syscalls.o)
 .text.sigprocmask
                0x00000000        0x2 c:/program files/atmel/atmel toolchain/avr32 gcc/native/3.4.2.1002/avr32-gnu-toolchain/bin/../lib/gcc/avr32/4.4.7/../../../../avr32/lib/ucr3fp\libc.a(lib_a-syscalls.o)
 .text._fcntl   0x00000000        0x2 c:/program files/atmel/atmel toolchain/avr32 gcc/native/3.4.2.1002/avr32-gnu-toolchain/bin/../lib/gcc/avr32/4.4.7/../../../../avr32/lib/ucr3fp\libc.a(lib_a-syscalls.o)
 .text._link    0x00000000        0x2 c:/program files/atmel/atmel toolchain/avr32 gcc/native/3.4.2.1002/avr32-gnu-toolchain/bin/../lib/gcc/avr32/4.4.7/../../../../avr32/lib/ucr3fp\libc.a(lib_a-syscalls.o)
 .text._kill    0x00000000        0x2 c:/program files/atmel/atmel toolchain/avr32 gcc/native/3.4.2.1002/avr32-gnu-toolchain/bin/../lib/gcc/avr32/4.4.7/../../../../avr32/lib/ucr3fp\libc.a(lib_a-syscalls.o)
 .text._getpid  0x00000000        0x2 c:/program files/atmel/atmel toolchain/avr32 gcc/native/3.4.2.1002/avr32-gnu-toolchain/bin/../lib/gcc/avr32/4.4.7/../../../../avr32/lib/ucr3fp\libc.a(lib_a-syscalls.o)
 .text._sbrk    0x00000000       0x40 c:/program files/atmel/atmel toolchain/avr32 gcc/native/3.4.2.1002/avr32-gnu-toolchain/bin/../lib/gcc/avr32/4.4.7/../../../../avr32/lib/ucr3fp\libc.a(lib_a-syscalls.o)
 .text._times   0x00000000       0x12 c:/program files/atmel/atmel toolchain/avr32 gcc/native/3.4.2.1002/avr32-gnu-toolchain/bin/../lib/gcc/avr32/4.4.7/../../../../avr32/lib/ucr3fp\libc.a(lib_a-syscalls.o)
 .bss.cur_heap_pos.1869
                0x00000000        0x4 c:/program files/atmel/atmel toolchain/avr32 gcc/native/3.4.2.1002/avr32-gnu-toolchain/bin/../lib/gcc/avr32/4.4.7/../../../../avr32/lib/ucr3fp\libc.a(lib_a-syscalls.o)
 .debug_frame   0x00000000      0x220 c:/program files/atmel/atmel toolchain/avr32 gcc/native/3.4.2.1002/avr32-gnu-toolchain/bin/../lib/gcc/avr32/4.4.7/../../../../avr32/lib/ucr3fp\libc.a(lib_a-syscalls.o)
 .debug_loc     0x00000000      0x268 c:/program files/atmel/atmel toolchain/avr32 gcc/native/3.4.2.1002/avr32-gnu-toolchain/bin/../lib/gcc/avr32/4.4.7/../../../../avr32/lib/ucr3fp\libc.a(lib_a-syscalls.o)
 .debug_pubnames
                0x00000000      0x171 c:/program files/atmel/atmel toolchain/avr32 gcc/native/3.4.2.1002/avr32-gnu-toolchain/bin/../lib/gcc/avr32/4.4.7/../../../../avr32/lib/ucr3fp\libc.a(lib_a-syscalls.o)
 .debug_aranges
                0x00000000       0xf8 c:/program files/atmel/atmel toolchain/avr32 gcc/native/3.4.2.1002/avr32-gnu-toolchain/bin/../lib/gcc/avr32/4.4.7/../../../../avr32/lib/ucr3fp\libc.a(lib_a-syscalls.o)
 .debug_ranges  0x00000000       0xf0 c:/program files/atmel/atmel toolchain/avr32 gcc/native/3.4.2.1002/avr32-gnu-toolchain/bin/../lib/gcc/avr32/4.4.7/../../../../avr32/lib/ucr3fp\libc.a(lib_a-syscalls.o)
 .debug_str     0x00000000      0x439 c:/program files/atmel/atmel toolchain/avr32 gcc/native/3.4.2.1002/avr32-gnu-toolchain/bin/../lib/gcc/avr32/4.4.7/../../../../avr32/lib/ucr3fp\libc.a(lib_a-syscalls.o)
 .comment       0x00000000       0x31 c:/program files/atmel/atmel toolchain/avr32 gcc/native/3.4.2.1002/avr32-gnu-toolchain/bin/../lib/gcc/avr32/4.4.7/../../../../avr32/lib/ucr3fp\libc.a(lib_a-syscalls.o)
 .text          0x00000000        0x0 c:/program files/atmel/atmel toolchain/avr32 gcc/native/3.4.2.1002/avr32-gnu-toolchain/bin/../lib/gcc/avr32/4.4.7/../../../../avr32/lib/ucr3fp\libc.a(lib_a-writer.o)
 .data          0x00000000        0x0 c:/program files/atmel/atmel toolchain/avr32 gcc/native/3.4.2.1002/avr32-gnu-toolchain/bin/../lib/gcc/avr32/4.4.7/../../../../avr32/lib/ucr3fp\libc.a(lib_a-writer.o)
 .bss           0x00000000        0x0 c:/program files/atmel/atmel toolchain/avr32 gcc/native/3.4.2.1002/avr32-gnu-toolchain/bin/../lib/gcc/avr32/4.4.7/../../../../avr32/lib/ucr3fp\libc.a(lib_a-writer.o)
 .debug_abbrev  0x00000000      0x175 c:/program files/atmel/atmel toolchain/avr32 gcc/native/3.4.2.1002/avr32-gnu-toolchain/bin/../lib/gcc/avr32/4.4.7/../../../../avr32/lib/ucr3fp\libc.a(lib_a-writer.o)
 .debug_info    0x00000000      0x90d c:/program files/atmel/atmel toolchain/avr32 gcc/native/3.4.2.1002/avr32-gnu-toolchain/bin/../lib/gcc/avr32/4.4.7/../../../../avr32/lib/ucr3fp\libc.a(lib_a-writer.o)
 .debug_line    0x00000000      0x25c c:/program files/atmel/atmel toolchain/avr32 gcc/native/3.4.2.1002/avr32-gnu-toolchain/bin/../lib/gcc/avr32/4.4.7/../../../../avr32/lib/ucr3fp\libc.a(lib_a-writer.o)
 .text._write_r
                0x00000000       0x2c c:/program files/atmel/atmel toolchain/avr32 gcc/native/3.4.2.1002/avr32-gnu-toolchain/bin/../lib/gcc/avr32/4.4.7/../../../../avr32/lib/ucr3fp\libc.a(lib_a-writer.o)
 .debug_frame   0x00000000       0x34 c:/program files/atmel/atmel toolchain/avr32 gcc/native/3.4.2.1002/avr32-gnu-toolchain/bin/../lib/gcc/avr32/4.4.7/../../../../avr32/lib/ucr3fp\libc.a(lib_a-writer.o)
 .debug_loc     0x00000000       0x94 c:/program files/atmel/atmel toolchain/avr32 gcc/native/3.4.2.1002/avr32-gnu-toolchain/bin/../lib/gcc/avr32/4.4.7/../../../../avr32/lib/ucr3fp\libc.a(lib_a-writer.o)
 .debug_pubnames
                0x00000000       0x1f c:/program files/atmel/atmel toolchain/avr32 gcc/native/3.4.2.1002/avr32-gnu-toolchain/bin/../lib/gcc/avr32/4.4.7/../../../../avr32/lib/ucr3fp\libc.a(lib_a-writer.o)
 .debug_aranges
                0x00000000       0x20 c:/program files/atmel/atmel toolchain/avr32 gcc/native/3.4.2.1002/avr32-gnu-toolchain/bin/../lib/gcc/avr32/4.4.7/../../../../avr32/lib/ucr3fp\libc.a(lib_a-writer.o)
 .debug_ranges  0x00000000       0x18 c:/program files/atmel/atmel toolchain/avr32 gcc/native/3.4.2.1002/avr32-gnu-toolchain/bin/../lib/gcc/avr32/4.4.7/../../../../avr32/lib/ucr3fp\libc.a(lib_a-writer.o)
 .debug_str     0x00000000      0x4b3 c:/program files/atmel/atmel toolchain/avr32 gcc/native/3.4.2.1002/avr32-gnu-toolchain/bin/../lib/gcc/avr32/4.4.7/../../../../avr32/lib/ucr3fp\libc.a(lib_a-writer.o)
 .comment       0x00000000       0x31 c:/program files/atmel/atmel toolchain/avr32 gcc/native/3.4.2.1002/avr32-gnu-toolchain/bin/../lib/gcc/avr32/4.4.7/../../../../avr32/lib/ucr3fp\libc.a(lib_a-writer.o)
 .text          0x00000000        0x0 c:/program files/atmel/atmel toolchain/avr32 gcc/native/3.4.2.1002/avr32-gnu-toolchain/bin/../lib/gcc/avr32/4.4.7/../../../../avr32/lib/ucr3fp\libc.a(lib_a-closer.o)
 .data          0x00000000        0x0 c:/program files/atmel/atmel toolchain/avr32 gcc/native/3.4.2.1002/avr32-gnu-toolchain/bin/../lib/gcc/avr32/4.4.7/../../../../avr32/lib/ucr3fp\libc.a(lib_a-closer.o)
 .bss           0x00000000        0x0 c:/program files/atmel/atmel toolchain/avr32 gcc/native/3.4.2.1002/avr32-gnu-toolchain/bin/../lib/gcc/avr32/4.4.7/../../../../avr32/lib/ucr3fp\libc.a(lib_a-closer.o)
 .debug_abbrev  0x00000000      0x170 c:/program files/atmel/atmel toolchain/avr32 gcc/native/3.4.2.1002/avr32-gnu-toolchain/bin/../lib/gcc/avr32/4.4.7/../../../../avr32/lib/ucr3fp\libc.a(lib_a-closer.o)
 .debug_info    0x00000000      0x8d2 c:/program files/atmel/atmel toolchain/avr32 gcc/native/3.4.2.1002/avr32-gnu-toolchain/bin/../lib/gcc/avr32/4.4.7/../../../../avr32/lib/ucr3fp\libc.a(lib_a-closer.o)
 .debug_line    0x00000000      0x250 c:/program files/atmel/atmel toolchain/avr32 gcc/native/3.4.2.1002/avr32-gnu-toolchain/bin/../lib/gcc/avr32/4.4.7/../../../../avr32/lib/ucr3fp\libc.a(lib_a-closer.o)
 .text._close_r
                0x00000000       0x28 c:/program files/atmel/atmel toolchain/avr32 gcc/native/3.4.2.1002/avr32-gnu-toolchain/bin/../lib/gcc/avr32/4.4.7/../../../../avr32/lib/ucr3fp\libc.a(lib_a-closer.o)
 .debug_frame   0x00000000       0x34 c:/program files/atmel/atmel toolchain/avr32 gcc/native/3.4.2.1002/avr32-gnu-toolchain/bin/../lib/gcc/avr32/4.4.7/../../../../avr32/lib/ucr3fp\libc.a(lib_a-closer.o)
 .debug_loc     0x00000000       0x63 c:/program files/atmel/atmel toolchain/avr32 gcc/native/3.4.2.1002/avr32-gnu-toolchain/bin/../lib/gcc/avr32/4.4.7/../../../../avr32/lib/ucr3fp\libc.a(lib_a-closer.o)
 .debug_pubnames
                0x00000000       0x1f c:/program files/atmel/atmel toolchain/avr32 gcc/native/3.4.2.1002/avr32-gnu-toolchain/bin/../lib/gcc/avr32/4.4.7/../../../../avr32/lib/ucr3fp\libc.a(lib_a-closer.o)
 .debug_aranges
                0x00000000       0x20 c:/program files/atmel/atmel toolchain/avr32 gcc/native/3.4.2.1002/avr32-gnu-toolchain/bin/../lib/gcc/avr32/4.4.7/../../../../avr32/lib/ucr3fp\libc.a(lib_a-closer.o)
 .debug_ranges  0x00000000       0x18 c:/program files/atmel/atmel toolchain/avr32 gcc/native/3.4.2.1002/avr32-gnu-toolchain/bin/../lib/gcc/avr32/4.4.7/../../../../avr32/lib/ucr3fp\libc.a(lib_a-closer.o)
 .debug_str     0x00000000      0x4a3 c:/program files/atmel/atmel toolchain/avr32 gcc/native/3.4.2.1002/avr32-gnu-toolchain/bin/../lib/gcc/avr32/4.4.7/../../../../avr32/lib/ucr3fp\libc.a(lib_a-closer.o)
 .comment       0x00000000       0x31 c:/program files/atmel/atmel toolchain/avr32 gcc/native/3.4.2.1002/avr32-gnu-toolchain/bin/../lib/gcc/avr32/4.4.7/../../../../avr32/lib/ucr3fp\libc.a(lib_a-closer.o)
 .text          0x00000000        0x0 c:/program files/atmel/atmel toolchain/avr32 gcc/native/3.4.2.1002/avr32-gnu-toolchain/bin/../lib/gcc/avr32/4.4.7/../../../../avr32/lib/ucr3fp\libc.a(lib_a-fclose.o)
 .data          0x00000000        0x0 c:/program files/atmel/atmel toolchain/avr32 gcc/native/3.4.2.1002/avr32-gnu-toolchain/bin/../lib/gcc/avr32/4.4.7/../../../../avr32/lib/ucr3fp\libc.a(lib_a-fclose.o)
 .bss           0x00000000        0x0 c:/program files/atmel/atmel toolchain/avr32 gcc/native/3.4.2.1002/avr32-gnu-toolchain/bin/../lib/gcc/avr32/4.4.7/../../../../avr32/lib/ucr3fp\libc.a(lib_a-fclose.o)
 .debug_abbrev  0x00000000      0x1a1 c:/program files/atmel/atmel toolchain/avr32 gcc/native/3.4.2.1002/avr32-gnu-toolchain/bin/../lib/gcc/avr32/4.4.7/../../../../avr32/lib/ucr3fp\libc.a(lib_a-fclose.o)
 .debug_info    0x00000000      0x9bc c:/program files/atmel/atmel toolchain/avr32 gcc/native/3.4.2.1002/avr32-gnu-toolchain/bin/../lib/gcc/avr32/4.4.7/../../../../avr32/lib/ucr3fp\libc.a(lib_a-fclose.o)
 .debug_line    0x00000000      0x2b6 c:/program files/atmel/atmel toolchain/avr32 gcc/native/3.4.2.1002/avr32-gnu-toolchain/bin/../lib/gcc/avr32/4.4.7/../../../../avr32/lib/ucr3fp\libc.a(lib_a-fclose.o)
 .text._fclose_r
                0x00000000       0xd0 c:/program files/atmel/atmel toolchain/avr32 gcc/native/3.4.2.1002/avr32-gnu-toolchain/bin/../lib/gcc/avr32/4.4.7/../../../../avr32/lib/ucr3fp\libc.a(lib_a-fclose.o)
 .text.fclose   0x00000000       0x18 c:/program files/atmel/atmel toolchain/avr32 gcc/native/3.4.2.1002/avr32-gnu-toolchain/bin/../lib/gcc/avr32/4.4.7/../../../../avr32/lib/ucr3fp\libc.a(lib_a-fclose.o)
 .debug_frame   0x00000000       0x4c c:/program files/atmel/atmel toolchain/avr32 gcc/native/3.4.2.1002/avr32-gnu-toolchain/bin/../lib/gcc/avr32/4.4.7/../../../../avr32/lib/ucr3fp\libc.a(lib_a-fclose.o)
 .debug_loc     0x00000000       0xb6 c:/program files/atmel/atmel toolchain/avr32 gcc/native/3.4.2.1002/avr32-gnu-toolchain/bin/../lib/gcc/avr32/4.4.7/../../../../avr32/lib/ucr3fp\libc.a(lib_a-fclose.o)
 .debug_pubnames
                0x00000000       0x2b c:/program files/atmel/atmel toolchain/avr32 gcc/native/3.4.2.1002/avr32-gnu-toolchain/bin/../lib/gcc/avr32/4.4.7/../../../../avr32/lib/ucr3fp\libc.a(lib_a-fclose.o)
 .debug_aranges
                0x00000000       0x28 c:/program files/atmel/atmel toolchain/avr32 gcc/native/3.4.2.1002/avr32-gnu-toolchain/bin/../lib/gcc/avr32/4.4.7/../../../../avr32/lib/ucr3fp\libc.a(lib_a-fclose.o)
 .debug_ranges  0x00000000       0x20 c:/program files/atmel/atmel toolchain/avr32 gcc/native/3.4.2.1002/avr32-gnu-toolchain/bin/../lib/gcc/avr32/4.4.7/../../../../avr32/lib/ucr3fp\libc.a(lib_a-fclose.o)
 .debug_str     0x00000000      0x4fa c:/program files/atmel/atmel toolchain/avr32 gcc/native/3.4.2.1002/avr32-gnu-toolchain/bin/../lib/gcc/avr32/4.4.7/../../../../avr32/lib/ucr3fp\libc.a(lib_a-fclose.o)
 .comment       0x00000000       0x31 c:/program files/atmel/atmel toolchain/avr32 gcc/native/3.4.2.1002/avr32-gnu-toolchain/bin/../lib/gcc/avr32/4.4.7/../../../../avr32/lib/ucr3fp\libc.a(lib_a-fclose.o)
 .text          0x00000000        0x0 c:/program files/atmel/atmel toolchain/avr32 gcc/native/3.4.2.1002/avr32-gnu-toolchain/bin/../lib/gcc/avr32/4.4.7/../../../../avr32/lib/ucr3fp\libc.a(lib_a-fflush.o)
 .data          0x00000000        0x0 c:/program files/atmel/atmel toolchain/avr32 gcc/native/3.4.2.1002/avr32-gnu-toolchain/bin/../lib/gcc/avr32/4.4.7/../../../../avr32/lib/ucr3fp\libc.a(lib_a-fflush.o)
 .bss           0x00000000        0x0 c:/program files/atmel/atmel toolchain/avr32 gcc/native/3.4.2.1002/avr32-gnu-toolchain/bin/../lib/gcc/avr32/4.4.7/../../../../avr32/lib/ucr3fp\libc.a(lib_a-fflush.o)
 .debug_abbrev  0x00000000      0x1c6 c:/program files/atmel/atmel toolchain/avr32 gcc/native/3.4.2.1002/avr32-gnu-toolchain/bin/../lib/gcc/avr32/4.4.7/../../../../avr32/lib/ucr3fp\libc.a(lib_a-fflush.o)
 .debug_info    0x00000000      0xa22 c:/program files/atmel/atmel toolchain/avr32 gcc/native/3.4.2.1002/avr32-gnu-toolchain/bin/../lib/gcc/avr32/4.4.7/../../../../avr32/lib/ucr3fp\libc.a(lib_a-fflush.o)
 .debug_line    0x00000000      0x34c c:/program files/atmel/atmel toolchain/avr32 gcc/native/3.4.2.1002/avr32-gnu-toolchain/bin/../lib/gcc/avr32/4.4.7/../../../../avr32/lib/ucr3fp\libc.a(lib_a-fflush.o)
 .text._fflush_r
                0x00000000      0x118 c:/program files/atmel/atmel toolchain/avr32 gcc/native/3.4.2.1002/avr32-gnu-toolchain/bin/../lib/gcc/avr32/4.4.7/../../../../avr32/lib/ucr3fp\libc.a(lib_a-fflush.o)
 .text.fflush   0x00000000       0x30 c:/program files/atmel/atmel toolchain/avr32 gcc/native/3.4.2.1002/avr32-gnu-toolchain/bin/../lib/gcc/avr32/4.4.7/../../../../avr32/lib/ucr3fp\libc.a(lib_a-fflush.o)
 .debug_frame   0x00000000       0x4c c:/program files/atmel/atmel toolchain/avr32 gcc/native/3.4.2.1002/avr32-gnu-toolchain/bin/../lib/gcc/avr32/4.4.7/../../../../avr32/lib/ucr3fp\libc.a(lib_a-fflush.o)
 .debug_loc     0x00000000      0x13f c:/program files/atmel/atmel toolchain/avr32 gcc/native/3.4.2.1002/avr32-gnu-toolchain/bin/../lib/gcc/avr32/4.4.7/../../../../avr32/lib/ucr3fp\libc.a(lib_a-fflush.o)
 .debug_pubnames
                0x00000000       0x2b c:/program files/atmel/atmel toolchain/avr32 gcc/native/3.4.2.1002/avr32-gnu-toolchain/bin/../lib/gcc/avr32/4.4.7/../../../../avr32/lib/ucr3fp\libc.a(lib_a-fflush.o)
 .debug_aranges
                0x00000000       0x28 c:/program files/atmel/atmel toolchain/avr32 gcc/native/3.4.2.1002/avr32-gnu-toolchain/bin/../lib/gcc/avr32/4.4.7/../../../../avr32/lib/ucr3fp\libc.a(lib_a-fflush.o)
 .debug_ranges  0x00000000       0x20 c:/program files/atmel/atmel toolchain/avr32 gcc/native/3.4.2.1002/avr32-gnu-toolchain/bin/../lib/gcc/avr32/4.4.7/../../../../avr32/lib/ucr3fp\libc.a(lib_a-fflush.o)
 .debug_str     0x00000000      0x516 c:/program files/atmel/atmel toolchain/avr32 gcc/native/3.4.2.1002/avr32-gnu-toolchain/bin/../lib/gcc/avr32/4.4.7/../../../../avr32/lib/ucr3fp\libc.a(lib_a-fflush.o)
 .comment       0x00000000       0x31 c:/program files/atmel/atmel toolchain/avr32 gcc/native/3.4.2.1002/avr32-gnu-toolchain/bin/../lib/gcc/avr32/4.4.7/../../../../avr32/lib/ucr3fp\libc.a(lib_a-fflush.o)
 .text          0x00000000        0x0 c:/program files/atmel/atmel toolchain/avr32 gcc/native/3.4.2.1002/avr32-gnu-toolchain/bin/../lib/gcc/avr32/4.4.7/../../../../avr32/lib/ucr3fp\libc.a(lib_a-freer.o)
 .data          0x00000000        0x0 c:/program files/atmel/atmel toolchain/avr32 gcc/native/3.4.2.1002/avr32-gnu-toolchain/bin/../lib/gcc/avr32/4.4.7/../../../../avr32/lib/ucr3fp\libc.a(lib_a-freer.o)
 .bss           0x00000000        0x0 c:/program files/atmel/atmel toolchain/avr32 gcc/native/3.4.2.1002/avr32-gnu-toolchain/bin/../lib/gcc/avr32/4.4.7/../../../../avr32/lib/ucr3fp\libc.a(lib_a-freer.o)
 .debug_abbrev  0x00000000      0x1d9 c:/program files/atmel/atmel toolchain/avr32 gcc/native/3.4.2.1002/avr32-gnu-toolchain/bin/../lib/gcc/avr32/4.4.7/../../../../avr32/lib/ucr3fp\libc.a(lib_a-freer.o)
 .debug_info    0x00000000      0xb3d c:/program files/atmel/atmel toolchain/avr32 gcc/native/3.4.2.1002/avr32-gnu-toolchain/bin/../lib/gcc/avr32/4.4.7/../../../../avr32/lib/ucr3fp\libc.a(lib_a-freer.o)
 .debug_line    0x00000000      0x347 c:/program files/atmel/atmel toolchain/avr32 gcc/native/3.4.2.1002/avr32-gnu-toolchain/bin/../lib/gcc/avr32/4.4.7/../../../../avr32/lib/ucr3fp\libc.a(lib_a-freer.o)
 .text._malloc_trim_r
                0x00000000       0xa8 c:/program files/atmel/atmel toolchain/avr32 gcc/native/3.4.2.1002/avr32-gnu-toolchain/bin/../lib/gcc/avr32/4.4.7/../../../../avr32/lib/ucr3fp\libc.a(lib_a-freer.o)
 .text._free_r  0x00000000      0x1a0 c:/program files/atmel/atmel toolchain/avr32 gcc/native/3.4.2.1002/avr32-gnu-toolchain/bin/../lib/gcc/avr32/4.4.7/../../../../avr32/lib/ucr3fp\libc.a(lib_a-freer.o)
 .debug_frame   0x00000000       0x58 c:/program files/atmel/atmel toolchain/avr32 gcc/native/3.4.2.1002/avr32-gnu-toolchain/bin/../lib/gcc/avr32/4.4.7/../../../../avr32/lib/ucr3fp\libc.a(lib_a-freer.o)
 .debug_loc     0x00000000      0x32c c:/program files/atmel/atmel toolchain/avr32 gcc/native/3.4.2.1002/avr32-gnu-toolchain/bin/../lib/gcc/avr32/4.4.7/../../../../avr32/lib/ucr3fp\libc.a(lib_a-freer.o)
 .debug_pubnames
                0x00000000       0x31 c:/program files/atmel/atmel toolchain/avr32 gcc/native/3.4.2.1002/avr32-gnu-toolchain/bin/../lib/gcc/avr32/4.4.7/../../../../avr32/lib/ucr3fp\libc.a(lib_a-freer.o)
 .debug_aranges
                0x00000000       0x28 c:/program files/atmel/atmel toolchain/avr32 gcc/native/3.4.2.1002/avr32-gnu-toolchain/bin/../lib/gcc/avr32/4.4.7/../../../../avr32/lib/ucr3fp\libc.a(lib_a-freer.o)
 .debug_ranges  0x00000000       0x20 c:/program files/atmel/atmel toolchain/avr32 gcc/native/3.4.2.1002/avr32-gnu-toolchain/bin/../lib/gcc/avr32/4.4.7/../../../../avr32/lib/ucr3fp\libc.a(lib_a-freer.o)
 .debug_str     0x00000000      0x5e7 c:/program files/atmel/atmel toolchain/avr32 gcc/native/3.4.2.1002/avr32-gnu-toolchain/bin/../lib/gcc/avr32/4.4.7/../../../../avr32/lib/ucr3fp\libc.a(lib_a-freer.o)
 .comment       0x00000000       0x31 c:/program files/atmel/atmel toolchain/avr32 gcc/native/3.4.2.1002/avr32-gnu-toolchain/bin/../lib/gcc/avr32/4.4.7/../../../../avr32/lib/ucr3fp\libc.a(lib_a-freer.o)
 .text          0x00000000        0x0 c:/program files/atmel/atmel toolchain/avr32 gcc/native/3.4.2.1002/avr32-gnu-toolchain/bin/../lib/gcc/avr32/4.4.7/../../../../avr32/lib/ucr3fp\libc.a(lib_a-lseekr.o)
 .data          0x00000000        0x0 c:/program files/atmel/atmel toolchain/avr32 gcc/native/3.4.2.1002/avr32-gnu-toolchain/bin/../lib/gcc/avr32/4.4.7/../../../../avr32/lib/ucr3fp\libc.a(lib_a-lseekr.o)
 .bss           0x00000000        0x0 c:/program files/atmel/atmel toolchain/avr32 gcc/native/3.4.2.1002/avr32-gnu-toolchain/bin/../lib/gcc/avr32/4.4.7/../../../../avr32/lib/ucr3fp\libc.a(lib_a-lseekr.o)
 .debug_abbrev  0x00000000      0x17f c:/program files/atmel/atmel toolchain/avr32 gcc/native/3.4.2.1002/avr32-gnu-toolchain/bin/../lib/gcc/avr32/4.4.7/../../../../avr32/lib/ucr3fp\libc.a(lib_a-lseekr.o)
 .debug_info    0x00000000      0x8fb c:/program files/atmel/atmel toolchain/avr32 gcc/native/3.4.2.1002/avr32-gnu-toolchain/bin/../lib/gcc/avr32/4.4.7/../../../../avr32/lib/ucr3fp\libc.a(lib_a-lseekr.o)
 .debug_line    0x00000000      0x25c c:/program files/atmel/atmel toolchain/avr32 gcc/native/3.4.2.1002/avr32-gnu-toolchain/bin/../lib/gcc/avr32/4.4.7/../../../../avr32/lib/ucr3fp\libc.a(lib_a-lseekr.o)
 .text._lseek_r
                0x00000000       0x2c c:/program files/atmel/atmel toolchain/avr32 gcc/native/3.4.2.1002/avr32-gnu-toolchain/bin/../lib/gcc/avr32/4.4.7/../../../../avr32/lib/ucr3fp\libc.a(lib_a-lseekr.o)
 .debug_frame   0x00000000       0x34 c:/program files/atmel/atmel toolchain/avr32 gcc/native/3.4.2.1002/avr32-gnu-toolchain/bin/../lib/gcc/avr32/4.4.7/../../../../avr32/lib/ucr3fp\libc.a(lib_a-lseekr.o)
 .debug_loc     0x00000000       0x94 c:/program files/atmel/atmel toolchain/avr32 gcc/native/3.4.2.1002/avr32-gnu-toolchain/bin/../lib/gcc/avr32/4.4.7/../../../../avr32/lib/ucr3fp\libc.a(lib_a-lseekr.o)
 .debug_pubnames
                0x00000000       0x1f c:/program files/atmel/atmel toolchain/avr32 gcc/native/3.4.2.1002/avr32-gnu-toolchain/bin/../lib/gcc/avr32/4.4.7/../../../../avr32/lib/ucr3fp\libc.a(lib_a-lseekr.o)
 .debug_aranges
                0x00000000       0x20 c:/program files/atmel/atmel toolchain/avr32 gcc/native/3.4.2.1002/avr32-gnu-toolchain/bin/../lib/gcc/avr32/4.4.7/../../../../avr32/lib/ucr3fp\libc.a(lib_a-lseekr.o)
 .debug_ranges  0x00000000       0x18 c:/program files/atmel/atmel toolchain/avr32 gcc/native/3.4.2.1002/avr32-gnu-toolchain/bin/../lib/gcc/avr32/4.4.7/../../../../avr32/lib/ucr3fp\libc.a(lib_a-lseekr.o)
 .debug_str     0x00000000      0x4b1 c:/program files/atmel/atmel toolchain/avr32 gcc/native/3.4.2.1002/avr32-gnu-toolchain/bin/../lib/gcc/avr32/4.4.7/../../../../avr32/lib/ucr3fp\libc.a(lib_a-lseekr.o)
 .comment       0x00000000       0x31 c:/program files/atmel/atmel toolchain/avr32 gcc/native/3.4.2.1002/avr32-gnu-toolchain/bin/../lib/gcc/avr32/4.4.7/../../../../avr32/lib/ucr3fp\libc.a(lib_a-lseekr.o)
 .text          0x00000000        0x0 c:/program files/atmel/atmel toolchain/avr32 gcc/native/3.4.2.1002/avr32-gnu-toolchain/bin/../lib/gcc/avr32/4.4.7/../../../../avr32/lib/ucr3fp\libc.a(lib_a-readr.o)
 .data          0x00000000        0x0 c:/program files/atmel/atmel toolchain/avr32 gcc/native/3.4.2.1002/avr32-gnu-toolchain/bin/../lib/gcc/avr32/4.4.7/../../../../avr32/lib/ucr3fp\libc.a(lib_a-readr.o)
 .bss           0x00000000        0x0 c:/program files/atmel/atmel toolchain/avr32 gcc/native/3.4.2.1002/avr32-gnu-toolchain/bin/../lib/gcc/avr32/4.4.7/../../../../avr32/lib/ucr3fp\libc.a(lib_a-readr.o)
 .debug_abbrev  0x00000000      0x170 c:/program files/atmel/atmel toolchain/avr32 gcc/native/3.4.2.1002/avr32-gnu-toolchain/bin/../lib/gcc/avr32/4.4.7/../../../../avr32/lib/ucr3fp\libc.a(lib_a-readr.o)
 .debug_info    0x00000000      0x906 c:/program files/atmel/atmel toolchain/avr32 gcc/native/3.4.2.1002/avr32-gnu-toolchain/bin/../lib/gcc/avr32/4.4.7/../../../../avr32/lib/ucr3fp\libc.a(lib_a-readr.o)
 .debug_line    0x00000000      0x25b c:/program files/atmel/atmel toolchain/avr32 gcc/native/3.4.2.1002/avr32-gnu-toolchain/bin/../lib/gcc/avr32/4.4.7/../../../../avr32/lib/ucr3fp\libc.a(lib_a-readr.o)
 .text._read_r  0x00000000       0x2c c:/program files/atmel/atmel toolchain/avr32 gcc/native/3.4.2.1002/avr32-gnu-toolchain/bin/../lib/gcc/avr32/4.4.7/../../../../avr32/lib/ucr3fp\libc.a(lib_a-readr.o)
 .debug_frame   0x00000000       0x34 c:/program files/atmel/atmel toolchain/avr32 gcc/native/3.4.2.1002/avr32-gnu-toolchain/bin/../lib/gcc/avr32/4.4.7/../../../../avr32/lib/ucr3fp\libc.a(lib_a-readr.o)
 .debug_loc     0x00000000       0x94 c:/program files/atmel/atmel toolchain/avr32 gcc/native/3.4.2.1002/avr32-gnu-toolchain/bin/../lib/gcc/avr32/4.4.7/../../../../avr32/lib/ucr3fp\libc.a(lib_a-readr.o)
 .debug_pubnames
                0x00000000       0x1e c:/program files/atmel/atmel toolchain/avr32 gcc/native/3.4.2.1002/avr32-gnu-toolchain/bin/../lib/gcc/avr32/4.4.7/../../../../avr32/lib/ucr3fp\libc.a(lib_a-readr.o)
 .debug_aranges
                0x00000000       0x20 c:/program files/atmel/atmel toolchain/avr32 gcc/native/3.4.2.1002/avr32-gnu-toolchain/bin/../lib/gcc/avr32/4.4.7/../../../../avr32/lib/ucr3fp\libc.a(lib_a-readr.o)
 .debug_ranges  0x00000000       0x18 c:/program files/atmel/atmel toolchain/avr32 gcc/native/3.4.2.1002/avr32-gnu-toolchain/bin/../lib/gcc/avr32/4.4.7/../../../../avr32/lib/ucr3fp\libc.a(lib_a-readr.o)
 .debug_str     0x00000000      0x4b1 c:/program files/atmel/atmel toolchain/avr32 gcc/native/3.4.2.1002/avr32-gnu-toolchain/bin/../lib/gcc/avr32/4.4.7/../../../../avr32/lib/ucr3fp\libc.a(lib_a-readr.o)
 .comment       0x00000000       0x31 c:/program files/atmel/atmel toolchain/avr32 gcc/native/3.4.2.1002/avr32-gnu-toolchain/bin/../lib/gcc/avr32/4.4.7/../../../../avr32/lib/ucr3fp\libc.a(lib_a-readr.o)
 .text          0x00000000        0x0 c:/program files/atmel/atmel toolchain/avr32 gcc/native/3.4.2.1002/avr32-gnu-toolchain/bin/../lib/gcc/avr32/4.4.7/../../../../avr32/lib/ucr3fp\libc.a(lib_a-reent.o)
 .data          0x00000000        0x0 c:/program files/atmel/atmel toolchain/avr32 gcc/native/3.4.2.1002/avr32-gnu-toolchain/bin/../lib/gcc/avr32/4.4.7/../../../../avr32/lib/ucr3fp\libc.a(lib_a-reent.o)
 .bss           0x00000000        0x0 c:/program files/atmel/atmel toolchain/avr32 gcc/native/3.4.2.1002/avr32-gnu-toolchain/bin/../lib/gcc/avr32/4.4.7/../../../../avr32/lib/ucr3fp\libc.a(lib_a-reent.o)
 .debug_abbrev  0x00000000      0x1e6 c:/program files/atmel/atmel toolchain/avr32 gcc/native/3.4.2.1002/avr32-gnu-toolchain/bin/../lib/gcc/avr32/4.4.7/../../../../avr32/lib/ucr3fp\libc.a(lib_a-reent.o)
 .debug_info    0x00000000      0x973 c:/program files/atmel/atmel toolchain/avr32 gcc/native/3.4.2.1002/avr32-gnu-toolchain/bin/../lib/gcc/avr32/4.4.7/../../../../avr32/lib/ucr3fp\libc.a(lib_a-reent.o)
 .debug_line    0x00000000      0x2e7 c:/program files/atmel/atmel toolchain/avr32 gcc/native/3.4.2.1002/avr32-gnu-toolchain/bin/../lib/gcc/avr32/4.4.7/../../../../avr32/lib/ucr3fp\libc.a(lib_a-reent.o)
 .text._wrapup_reent
                0x00000000       0x3c c:/program files/atmel/atmel toolchain/avr32 gcc/native/3.4.2.1002/avr32-gnu-toolchain/bin/../lib/gcc/avr32/4.4.7/../../../../avr32/lib/ucr3fp\libc.a(lib_a-reent.o)
 .text.cleanup_glue
                0x00000000       0x24 c:/program files/atmel/atmel toolchain/avr32 gcc/native/3.4.2.1002/avr32-gnu-toolchain/bin/../lib/gcc/avr32/4.4.7/../../../../avr32/lib/ucr3fp\libc.a(lib_a-reent.o)
 .text._reclaim_reent
                0x00000000       0xd4 c:/program files/atmel/atmel toolchain/avr32 gcc/native/3.4.2.1002/avr32-gnu-toolchain/bin/../lib/gcc/avr32/4.4.7/../../../../avr32/lib/ucr3fp\libc.a(lib_a-reent.o)
 .debug_frame   0x00000000       0x80 c:/program files/atmel/atmel toolchain/avr32 gcc/native/3.4.2.1002/avr32-gnu-toolchain/bin/../lib/gcc/avr32/4.4.7/../../../../avr32/lib/ucr3fp\libc.a(lib_a-reent.o)
 .debug_loc     0x00000000      0x10a c:/program files/atmel/atmel toolchain/avr32 gcc/native/3.4.2.1002/avr32-gnu-toolchain/bin/../lib/gcc/avr32/4.4.7/../../../../avr32/lib/ucr3fp\libc.a(lib_a-reent.o)
 .debug_pubnames
                0x00000000       0x52 c:/program files/atmel/atmel toolchain/avr32 gcc/native/3.4.2.1002/avr32-gnu-toolchain/bin/../lib/gcc/avr32/4.4.7/../../../../avr32/lib/ucr3fp\libc.a(lib_a-reent.o)
 .debug_aranges
                0x00000000       0x30 c:/program files/atmel/atmel toolchain/avr32 gcc/native/3.4.2.1002/avr32-gnu-toolchain/bin/../lib/gcc/avr32/4.4.7/../../../../avr32/lib/ucr3fp\libc.a(lib_a-reent.o)
 .debug_ranges  0x00000000       0x28 c:/program files/atmel/atmel toolchain/avr32 gcc/native/3.4.2.1002/avr32-gnu-toolchain/bin/../lib/gcc/avr32/4.4.7/../../../../avr32/lib/ucr3fp\libc.a(lib_a-reent.o)
 .debug_str     0x00000000      0x4e4 c:/program files/atmel/atmel toolchain/avr32 gcc/native/3.4.2.1002/avr32-gnu-toolchain/bin/../lib/gcc/avr32/4.4.7/../../../../avr32/lib/ucr3fp\libc.a(lib_a-reent.o)
 .comment       0x00000000       0x31 c:/program files/atmel/atmel toolchain/avr32 gcc/native/3.4.2.1002/avr32-gnu-toolchain/bin/../lib/gcc/avr32/4.4.7/../../../../avr32/lib/ucr3fp\libc.a(lib_a-reent.o)
 COMMON         0x00000000        0x4 c:/program files/atmel/atmel toolchain/avr32 gcc/native/3.4.2.1002/avr32-gnu-toolchain/bin/../lib/gcc/avr32/4.4.7/../../../../avr32/lib/ucr3fp\libc.a(lib_a-reent.o)

Memory Configuration

Name             Origin             Length             Attributes
FLASH            0x80000000         0x00080000         axrl !w
CPUSRAM          0x00000004         0x0000fffc         axw !rl
USERPAGE         0x80800000         0x00000200
FACTORYPAGE      0x80800200         0x00000200
FLASHVAULT_FLASH_SIZE 0x80800400         0x00000008         r
FLASHVAULT_RAM_SIZE 0x80800408         0x00000008         r
*default*        0x00000000         0xffffffff

Linker script and memory map

                0x00001000                _stack_size = 0x1000
LOAD Library/control/neighbor_selection.o
LOAD Library/control/orca.o
LOAD Library/control/pid_control.o
LOAD Library/control/stabilisation_copter.o
LOAD Library/control/stabilisation_hybrid.o
LOAD Library/hal/analog_monitor.o
LOAD Library/hal/lsm330dlc_driver.o
LOAD Library/hal/time_keeper.o
LOAD Library/sensing/estimator.o
LOAD Library/sensing/position_estimation.o
LOAD Library/sensing/qfilter.o
LOAD src/central_data.o
LOAD src/mavlink_actions.o
LOAD src/tasks.o
LOAD Library/communication/ishtar.o
LOAD Library/communication/ishtar_stream.o
LOAD Library/communication/mavlink_stream.o
LOAD Library/communication/onboard_parameters.o
LOAD Library/control/navigation.o
LOAD Library/control/stabilisation.o
LOAD Library/hal/adc_int.o
LOAD Library/hal/ads1274.o
LOAD Library/hal/adxl345_driver.o
LOAD Library/hal/amplifiers.o
LOAD Library/hal/bmp085.o
LOAD Library/hal/compass_hmc5883l.o
LOAD Library/hal/dac_dma.o
LOAD Library/hal/i2c_driver.o
LOAD Library/hal/itg3200_driver.o
LOAD Library/hal/led.o
LOAD Library/hal/radar_module_driver.o
LOAD Library/hal/servo_pwm.o
LOAD Library/hal/remote_dsm2.o
LOAD Library/hal/spi_buffered.o
LOAD Library/hal/uart_int.o
LOAD Library/runtime/scheduler.o
LOAD Library/sensing/gps_ublox.o
LOAD Library/sensing/imu.o
LOAD Library/sensing/simulation.o
LOAD Library/sensing/mavlink_waypoint_handler.o
LOAD Library/util/buffer.o
LOAD Library/util/coord_conventions.o
LOAD Library/util/generator.o
LOAD Library/util/print_util.o
LOAD Library/util/sinus.o
LOAD src/asf/avr32/drivers/adcifa/adcifa.o
LOAD src/asf/avr32/drivers/ast/ast.o
LOAD src/asf/avr32/drivers/dacifb/dacifb.o
LOAD src/asf/avr32/drivers/eic/eic.o
LOAD src/asf/avr32/drivers/flashc/flashc.o
LOAD src/asf/avr32/drivers/gpio/gpio.o
LOAD src/asf/avr32/drivers/intc/exception.o
LOAD src/asf/avr32/drivers/intc/intc.o
LOAD src/asf/avr32/drivers/pdca/pdca.o
LOAD src/asf/avr32/drivers/pevc/pevc.o
LOAD src/asf/avr32/drivers/pm/pm_uc3c.o
LOAD src/asf/avr32/drivers/pm/power_clocks_lib.o
LOAD src/asf/avr32/drivers/pwm/pwm4.o
LOAD src/asf/avr32/drivers/scif/scif_uc3c.o
LOAD src/asf/avr32/drivers/spi/spi.o
LOAD src/asf/avr32/drivers/tc/tc.o
LOAD src/asf/avr32/drivers/twim/twim.o
LOAD src/asf/avr32/drivers/usart/usart.o
LOAD src/asf/avr32/drivers/usbc/usbc_device.o
LOAD src/asf/avr32/services/delay/delay.o
LOAD src/asf/avr32/utils/startup/startup_uc3.o
LOAD src/asf/avr32/utils/startup/trampoline_uc3.o
LOAD src/asf/common/boards/user_board/init.o
LOAD src/asf/common/services/clock/uc3c/osc.o
LOAD src/asf/common/services/clock/uc3c/pll.o
LOAD src/asf/common/services/clock/uc3c/sysclk.o
LOAD src/asf/common/services/sleepmgr/uc3/sleepmgr.o
LOAD src/asf/common/services/spi/uc3_spi/spi_master.o
LOAD src/asf/common/services/usb/class/cdc/device/udi_cdc.o
LOAD src/asf/common/services/usb/class/cdc/device/udi_cdc_desc.o
LOAD src/asf/common/services/usb/udc/udc.o
LOAD src/asf/common/utils/stdio/read.o
LOAD src/asf/common/utils/stdio/stdio_usb/stdio_usb.o
LOAD src/asf/common/utils/stdio/write.o
LOAD src/boardsupport.o
LOAD src/main.o
START GROUP
LOAD c:/program files/atmel/atmel toolchain/avr32 gcc/native/3.4.2.1002/avr32-gnu-toolchain/bin/../lib/gcc/avr32/4.4.7/../../../../avr32/lib/ucr3fp\libm.a
END GROUP
LOAD c:/program files/atmel/atmel toolchain/avr32 gcc/native/3.4.2.1002/avr32-gnu-toolchain/bin/../lib/gcc/avr32/4.4.7/ucr3fp\libgcc.a
LOAD c:/program files/atmel/atmel toolchain/avr32 gcc/native/3.4.2.1002/avr32-gnu-toolchain/bin/../lib/gcc/avr32/4.4.7/../../../../avr32/lib/ucr3fp\libc.a
LOAD c:/program files/atmel/atmel toolchain/avr32 gcc/native/3.4.2.1002/avr32-gnu-toolchain/bin/../lib/gcc/avr32/4.4.7/ucr3fp\libgcc.a
                0x80000000                PROVIDE (__executable_start, 0x80000000)
                0x80000000                . = 0x80000000

.interp
 *(.interp)

.reset          0x80000000     0x2008
 *(.reset)
 .reset         0x80000000     0x2008 src/asf/avr32/utils/startup/trampoline_uc3.o
                0x80000000                _trampoline

.hash
 *(.hash)

.dynsym
 *(.dynsym)

.dynstr
 *(.dynstr)

.gnu.version
 *(.gnu.version)

.gnu.version_d
 *(.gnu.version_d)

.gnu.version_r
 *(.gnu.version_r)

.rel.init
 *(.rel.init)

.rela.init
 *(.rela.init)

.rel.text
 *(.rel.text .rel.text.* .rel.gnu.linkonce.t.*)

.rela.text
 *(.rela.text .rela.text.* .rela.gnu.linkonce.t.*)

.rel.fini
 *(.rel.fini)

.rela.fini
 *(.rela.fini)

.rel.rodata
 *(.rel.rodata .rel.rodata.* .rel.gnu.linkonce.r.*)

.rela.rodata
 *(.rela.rodata .rela.rodata.* .rela.gnu.linkonce.r.*)

.rel.data.rel.ro
 *(.rel.data.rel.ro*)

.rela.data.rel.ro
 *(.rel.data.rel.ro*)

.rel.data
 *(.rel.data .rel.data.* .rel.gnu.linkonce.d.*)

.rela.data
 *(.rela.data .rela.data.* .rela.gnu.linkonce.d.*)

.rel.tdata
 *(.rel.tdata .rel.tdata.* .rel.gnu.linkonce.td.*)

.rela.tdata
 *(.rela.tdata .rela.tdata.* .rela.gnu.linkonce.td.*)

.rel.tbss
 *(.rel.tbss .rel.tbss.* .rel.gnu.linkonce.tb.*)

.rela.tbss
 *(.rela.tbss .rela.tbss.* .rela.gnu.linkonce.tb.*)

.rel.ctors
 *(.rel.ctors)

.rela.ctors
 *(.rela.ctors)

.rel.dtors
 *(.rel.dtors)

.rela.dtors
 *(.rela.dtors)

.rel.got
 *(.rel.got)

.rela.got       0x80002008        0x0
 *(.rela.got)
 .rela.got      0x80002008        0x0 Library/control/neighbor_selection.o

.rel.bss
 *(.rel.bss .rel.bss.* .rel.gnu.linkonce.b.*)

.rela.bss
 *(.rela.bss .rela.bss.* .rela.gnu.linkonce.b.*)

.rel.plt
 *(.rel.plt)

.rela.plt
 *(.rela.plt)

.init
 *(.init)

.plt
 *(.plt)

.text           0x80002008    0x2ea0e
 *(.text .stub .text.* .gnu.linkonce.t.*)
 .text          0x80002008      0x7b4 Library/control/neighbor_selection.o
                0x800023f4                init_neighbors
                0x80002448                read_msg_from_neighbors
 .text          0x800027bc     0x2808 Library/control/orca.o
                0x80002c7e                init_orca
                0x80002d24                computeNewVelocity
                0x80003720                linearProgram1
                0x80003bd4                linearProgram2
                0x80004550                linearProgram3
                0x8000483c                linearProgram4
 .text          0x80004fc4      0x530 Library/control/pid_control.o
                0x800050bc                passthroughController
                0x80005140                integrate
                0x800051a8                initInt
                0x800051ec                resetInt
                0x80005206                initDiff
                0x80005242                differentiate
                0x800052e4                pid_update
                0x800053fc                pid_update_dt
 .text          0x800054f4      0x954 Library/control/stabilisation_copter.o
                0x80005738                init_stabilisation_copter
                0x80005798                cascade_stabilise_copter
                0x80005b14                mix_to_servos_diag_quad
                0x80005cc4                mix_to_servos_cross_quad
 .text          0x80005e48      0x1f8 Library/hal/analog_monitor.o
                0x80005e48                init_analog_monitor
                0x80005e90                trigger_analog_monitor
                0x80005eb4                get_monitored_avg
                0x80005f30                get_battery_rail
                0x80005f74                get_internal_rail
                0x80005fb8                get_6V_analog_rail
                0x80005ffc                get_5V_analog_rail
 .text          0x80006040      0x100 Library/hal/time_keeper.o
                0x80006040                init_time_keeper
                0x80006068                get_time
                0x80006098                get_millis
                0x800060c4                get_micros
                0x800060e0                get_time_ticks
                0x80006100                ticks_to_seconds
 .text          0x80006140     0x4144 Library/sensing/estimator.o
                0x8000618c                e_init
                0x800063b8                init_pos_gps_estimator
                0x8000643c                e_kalman_init
                0x800065c0                e_predict
                0x800068cc                quat_rot
                0x80006a82                e_kalman_predict
                0x80007790                e_kalman_predict_hf
                0x80007d24                e_kalman_update_position
                0x80008930                e_kalman_update_speed
                0x80009558                e_kalman_update_position_hf
                0x80009ae4                e_kalman_update_speed_hf
                0x8000a078                estimator_loop
 .text          0x8000a284     0x12e0 Library/sensing/position_estimation.o
                0x8000a64c                init_pos_integration
                0x8000a70c                init_pos_gps
                0x8000a8b2                init_barometer_offset
                0x8000a988                position_reset_home_altitude
                0x8000ab54                position_integration
                0x8000aeda                position_correction
 .text          0x8000b564     0x13a4 Library/sensing/qfilter.o
                0x8000ba9e                qfInit
                0x8000bdf0                qfilter
 .text          0x8000c908      0x254 src/central_data.o
                0x8000c954                initialise_central_data
                0x8000cabc                get_central_data
                0x8000cad4                get_telemetry_upstream
                0x8000caf0                get_telemetry_downstream
                0x8000cb0c                get_debug_stream
                0x8000cb28                get_imu_data
                0x8000cb40                get_control_inputs_data
 .text          0x8000cb5c     0x3638 src/mavlink_actions.o
                0x8000dfb8                mavlink_send_heartbeat
                0x8000dffc                mavlink_send_raw_imu
                0x8000e100                mavlink_send_scaled_imu
                0x8000e230                mavlink_send_rpy_rates_error
                0x8000e280                mavlink_send_rpy_speed_thrust_setpoint
                0x8000e2d0                mavlink_send_rpy_thrust_setpoint
                0x8000e320                mavlink_send_servo_output
                0x8000e458                mavlink_send_attitude_quaternion
                0x8000e4d4                mavlink_send_attitude
                0x8000e55c                mavlink_send_global_position
                0x8000e700                mavlink_send_hud
                0x8000e85c                mavlink_send_gps_raw
                0x8000ea78                mavlink_send_pressure
                0x8000eb74                mavlink_send_radar
                0x8000ebdc                mavlink_send_estimator
                0x8000eca4                mavlink_send_kalman_estimator
                0x8000ee20                mavlink_send_raw_rc_channels
                0x8000ef1c                mavlink_send_scaled_rc_channels
                0x8000f206                mavlink_send_simulation
                0x8000f5e4                send_rt_stats
                0x8000fafc                add_PID_parameters
                0x8000ffd4                init_mavlink_actions
 .text          0x80010194     0x10d8 src/tasks.o
                0x80010494                get_main_taskset
                0x800104ac                run_imu_update
                0x800104f8                rc_user_channels
                0x800106a0                set_mav_mode_n_state
                0x80010a48                run_stabilisation
                0x80010e6c                gps_task
                0x80010ebc                run_estimator
                0x80010ed4                run_navigation_task
                0x80011100                run_barometer
                0x800111c0                create_tasks
 .text          0x8001126c     0x1948 Library/communication/mavlink_stream.o
                0x80011e40                comm_send_ch
                0x80011ec2                mavlink_receive_handler
                0x80011f64                init_mavlink
                0x80011ffc                flush_mavlink
                0x80012030                mavlink_protocol_update
                0x800120ac                get_mavlink_taskset
                0x800120c4                suspend_downstream
                0x80012124                mavlink_receive
                0x800121e8                handle_mavlink_message
                0x800126dc                receive_message_long
 .text          0x80012bb4     0x1220 Library/communication/onboard_parameters.o
                0x80013208                init_onboard_parameters
                0x80013238                add_parameter_uint8
                0x8001331c                add_parameter_uint32
                0x80013400                add_parameter_int32
                0x800134e4                add_parameter_float
                0x800135c8                send_all_parameters
                0x8001361c                send_all_parameters_now
                0x800136dc                send_scheduled_parameters
                0x800137bc                send_parameter
                0x80013910                receive_parameter
                0x80013b1e                read_parameters_from_flashc
                0x80013ca4                write_parameters_to_flashc
 .text          0x80013dd4      0xaf8 Library/control/navigation.o
                0x80014228                init_nav
                0x80014284                run_navigation
                0x800142d8                set_rel_pos_n_dist2wp
                0x80014360                set_speed_command
                0x80014658                low_speed_nav
                0x80014824                high_speed_nav
 .text          0x800148cc       0xa4 Library/control/stabilisation.o
                0x800148cc                stabilise
 .text          0x80014970      0x56c Library/hal/adc_int.o
                0x80014b60                Init_ADCI
                0x80014c50                clear_adc_sequencer
                0x80014c7c                adc_sequencer_add
                0x80014d54                ADCI_Start_Sampling
                0x80014e14                ADCI_Stop_Sampling
                0x80014e34                ADCI_Sampling_Complete
                0x80014e5c                ADCI_get_sample
                0x80014ea4                ADCI_get_buffer
                0x80014ec0                ADCI_get_sampling_status
 .text          0x80014edc      0x464 Library/hal/ads1274.o
                0x80014fd8                get_interrupt_counter
                0x80014ff4                processData
                0x800150f8                set_DAC_generator_function
                0x8001511c                get_sample
                0x80015158                get_sampling_status
                0x80015174                Init_ADC
                0x80015260                ADC_Switch_Clock
                0x800152c0                ADC_Switch_Channel
                0x800152d8                ADC_Set_Mode
                0x800152ea                ADC_Start_Oneshot
                0x80015304                ADC_Stop_Sampling
                0x8001530e                Sampling_Complete
                0x80015318                eic_nmi_handler
 .text          0x80015340      0x1e4 Library/hal/adxl345_driver.o
                0x80015340                init_adxl345
                0x80015408                init_adxl345_slow
                0x8001544c                get_acc_data
                0x80015474                get_acc_data_slow
 .text          0x80015524      0xa14 Library/hal/bmp085.o
                0x80015670                bmp085_read_int
                0x800156b8                init_bmp085
                0x8001576a                init_bmp085_slow
                0x800158c0                get_pressure_data_slow
                0x80015ef8                newValidBarometer
 .text          0x80015f38       0xd8 Library/hal/compass_hmc5883l.o
                0x80015f38                init_hmc5883_slow
                0x80015f68                get_compass_data_slow
 .text          0x80016010      0x330 Library/hal/dac_dma.o
                0x80016080                init_pevc
                0x800160b8                init_gclk
                0x80016112                Init_DAC
                0x800161e8                DAC_load_buffer
                0x8001629c                DAC_play
                0x800162f8                DAC_pause
                0x80016302                DAC_resume
                0x8001630c                DAC_is_finished
                0x8001631a                DAC_set_value
 .text          0x80016340      0x770 Library/hal/i2c_driver.o
                0x8001648c                init_i2c
                0x800165c4                i2c_reset
                0x80016658                i2c_add_request
                0x80016760                i2c_change_request
                0x8001681a                i2c_trigger_request
                0x80016a58                i2c_pause_request
                0x80016a72                i2c_enable_request
                0x80016a90                i2c_remove_request
 .text          0x80016ab0      0x1c0 Library/hal/itg3200_driver.o
                0x80016ab0                init_itg3200
                0x80016ba8                reconfigure_gyro
                0x80016bcc                init_itg3200_slow
                0x80016bfc                get_gyro_data
                0x80016c24                get_gyro_data_slow
 .text          0x80016c70      0x500 Library/hal/led.o
                0x80016c70                LED_Read_Display
                0x80016c8c                LED_Display
                0x80016d3c                LED_Read_Display_Mask
                0x80016d68                LED_Display_Mask
                0x80016e70                LED_Test
                0x80016ea0                LED_Off
                0x80016f58                LED_On
                0x80017014                LED_Toggle
                0x800170cc                LED_Read_Display_Field
                0x80017104                LED_Display_Field
                0x80017140                LED_Get_Intensity
                0x80017156                LED_Set_Intensity
 .text          0x80017170       0xc0 Library/hal/radar_module_driver.o
                0x80017170                init_radar_modules
                0x80017192                read_radar
                0x80017218                get_radar_main_target
 .text          0x80017230      0x258 Library/hal/servo_pwm.o
                0x80017230                init_Servos
                0x80017368                set_servo
                0x80017422                set_servos
 .text          0x80017488      0x514 Library/hal/remote_dsm2.o
                0x80017638                rc_init
                0x800176e8                rc_get_channel
                0x80017720                rc_get_channel_neutral
                0x800177b8                rc_center_channel
                0x800177ec                checkReceiver1
                0x800178cc                checkReceiver2
                0x8001797c                rc_check_receivers
 .text          0x8001799c      0xda8 Library/hal/spi_buffered.o
                0x80017ba0                get_spi_in_buffer
                0x80017bd0                spi0_int_handler
                0x80017bec                spi1_int_handler
                0x80017c7c                initSPI
                0x80017e0c                enableSPI
                0x80017e40                disableSPI
                0x80017e74                spiInitDMA
                0x80017ef0                spiTriggerDMA
                0x80017f9c                setSPIcallBack
                0x80017fd4                pauseSPI
                0x80018008                resumeSPI
                0x80018044                activateReceiveSPI
                0x80018078                deactivateReceiveSPI
                0x800180ac                getTraffic
                0x800180e0                readSPI
                0x80018198                clearSPIReadBuffer
                0x800181dc                writeSPI
                0x80018294                SPItransmit
                0x800183f8                startSPI
                0x800184c0                SPITransferFinished
                0x80018510                SPIFlushBuffer
                0x80018568                SPIBytesAvailable
                0x800185c0                spi_handler
 .text          0x80018744      0x8f0 Library/hal/uart_int.o
                0x80018c40                register_UART_handler
                0x80018ce0                init_UART_int
                0x80018e70                uart_int_get_byte
                0x80018e9c                uart_int_bytes_available
                0x80018ec8                uart_int_send_byte
                0x80018f28                uart_int_flush
                0x80018f60                uart_out_buffer_empty
                0x80018f90                get_UART_handle
                0x80018fc0                register_write_stream
                0x80019010                register_read_stream
 .text          0x80019034      0xac0 Library/runtime/scheduler.o
                0x80019034                init_scheduler
                0x800190b0                register_task
                0x80019238                add_task
                0x800192f8                sort_taskset_by_period
                0x80019566                run_scheduler_update
                0x8001997c                get_task_by_id
                0x80019a00                get_task_by_index
                0x80019a46                change_run_mode
                0x80019a66                change_task_period
                0x80019aa0                suspend_task
                0x80019ad0                run_task_now
 .text          0x80019af4     0x296c Library/sensing/gps_ublox.o
                0x80019b40                init_gps_ubx
                0x80019e3e                ubx_read
                0x8001ae16                ubx_process_data
                0x8001b908                update_checksum
                0x8001b982                endian_lower_bytes_uint16
                0x8001b99e                endian_higher_bytes_uint16
                0x8001b9be                ubx_send_header
                0x8001baa4                ubx_send_cksum
                0x8001baf8                ubx_send_message
                0x8001bbd8                ubx_send_message_CFG_nav_rate
                0x8001bd58                ubx_send_message_nav_settings
                0x8001be34                ubx_configure_message_rate
                0x8001bf66                configure_gps
                0x8001c008                gps_update
                0x8001c21c                newValidGpsMsg
                0x8001c274                ubx_GetPosllh
                0x8001c29c                ubx_GetStatus
                0x8001c2c4                ubx_GetSolution
                0x8001c2ec                ubx_GetVelned
                0x8001c314                ubx_GetSVInfo
                0x8001c33c                ubx_GetNavSettings
                0x8001c364                ubx_GetMsgRate
                0x8001c38c                ubx_GetMonRXR
                0x8001c3b4                ubx_GetTimTP
                0x8001c3dc                ubx_GetTimVRFY
                0x8001c404                ToRad
 .text          0x8001c460      0x4c4 Library/sensing/imu.o
                0x8001c460                init_imu
                0x8001c5b8                imu_get_raw_data
                0x8001c69c                calibrate_Gyros
                0x8001c848                imu_update
 .text          0x8001c924     0x1a00 Library/sensing/simulation.o
                0x8001cf7c                init_simulation
                0x8001d218                forces_from_servos_diag_quad
                0x8001d678                forces_from_servos_cross_quad
                0x8001d68e                simu_update
                0x8001e214                simulate_barometer
                0x8001e26c                simulate_gps
 .text          0x8001e324     0x3380 Library/sensing/mavlink_waypoint_handler.o
                0x8001f284                init_waypoint_handler
                0x8001f31c                init_wp
                0x8001f63e                init_waypoint_list
                0x8001f97c                send_count
                0x8001fa6a                send_waypoint
                0x8001fd0c                receive_ack_msg
                0x8001fdca                receive_count
                0x8001ffba                receive_waypoint
                0x800202fc                set_current_wp
                0x8002041c                clear_waypoint_list
                0x800204c4                set_mav_mode
                0x80020690                control_time_out_waypoint_msg
                0x800207ea                set_waypoint_from_frame
                0x80020e00                wp_hold_init
                0x80020f6c                waypoint_hold_position_handler
                0x80020fea                waypoint_navigation_handler
                0x80021478                waypoint_critical_handler
 .text          0x800216a4      0x318 Library/util/buffer.o
                0x800216a4                buffer_full
                0x800216d2                buffer_put_lossy
                0x8002176c                buffer_put
                0x800217fc                buffer_get
                0x80021862                buffer_empty
                0x8002188c                buffer_bytes_available
                0x800218bc                buffer_init
                0x800218ec                buffer_clear
                0x8002191c                make_buffered_stream
                0x8002196c                make_buffered_stream_lossy
 .text          0x800219bc      0x510 Library/util/coord_conventions.o
                0x800219bc                local_to_global_position
                0x80021b2c                global_to_local_position
                0x80021cfc                Quat_to_Aero
                0x80021e48                get_yaw
 .text          0x80021ecc      0x618 Library/util/print_util.o
                0x80021ecc                dbg_print_init
                0x80021ef0                putstring
                0x80021f50                putdigit
                0x80021fb8                putnum
                0x800220a8                putnum_tight
                0x8002218a                putfloat
                0x80022294                print_vector
                0x80022320                print_quaternion
                0x80022390                dbg_print
                0x800223bc                dbg_print_num
                0x800223f4                dbg_putfloat
                0x80022428                dbg_print_vector
                0x8002245c                dbg_print_quaternion
                0x80022492                dbg_log_value
 .text          0x800224e4      0x938 src/asf/avr32/drivers/adcifa/adcifa.o
                0x800224e4                adcifa_get_calibration_data
                0x80022578                adcifa_configure
                0x800226b8                adcifa_configure_sequencer
                0x80022ab0                adcifa_configure_window_monitor
                0x80022bc4                adcifa_start_sequencer
                0x80022c08                adcifa_check_eoc
                0x80022c52                adcifa_check_eos
                0x80022c9a                adcifa_get_values_from_sequencer
                0x80022d74                adcifa_start_itimer
                0x80022d9e                adcifa_stop_itimer
                0x80022db8                adcifa_enable_interrupt
                0x80022dda                adcifa_disable_interrupt
                0x80022dfc                adcifa_clear_interrupt
 .text          0x80022e1c      0x4c0 src/asf/avr32/drivers/ast/ast.o
                0x80022e5c                ast_init_calendar
                0x80022ed0                ast_init_counter
                0x80022f2c                ast_enable
                0x80022f70                ast_set_calendar_value
                0x80022fb4                ast_set_counter_value
                0x80022ff4                ast_get_calendar_value
                0x80023016                ast_get_counter_value
                0x80023030                ast_set_alarm0_value
                0x80023050                ast_set_alarm1_value
                0x80023070                ast_enable_alarm0
                0x800230b4                ast_disable_alarm0
                0x800230f8                ast_enable_alarm1
                0x8002313c                ast_disable_alarm1
                0x80023180                ast_set_periodic0_value
                0x800231a0                ast_set_periodic1_value
                0x800231c0                ast_enable_periodic0
                0x80023204                ast_disable_periodic0
                0x8002324c                ast_enable_periodic1
                0x80023294                ast_disable_periodic1
 .text          0x800232dc      0x8c0 src/asf/avr32/drivers/dacifb/dacifb.o
                0x80023438                dacifb_get_calibration_data
                0x800234ce                dacifb_configure
                0x8002361c                dacifb_configure_channel
                0x800239f6                dacifb_start_channel
                0x80023a6c                dacifb_check_eoc
                0x80023a8e                dacifb_set_value
                0x80023afe                dacifb_reload_timer
 .text          0x80023b9c      0x52c src/asf/avr32/drivers/eic/eic.o
                0x80023bd4                eic_init
                0x80023e52                eic_enable_lines
                0x80023e72                eic_enable_line
                0x80023e9a                eic_disable_lines
                0x80023eba                eic_disable_line
                0x80023ee2                eic_is_line_enabled
                0x80023f12                eic_enable_interrupt_lines
                0x80023f32                eic_enable_interrupt_line
                0x80023f5a                eic_disable_interrupt_lines
                0x80023f98                eic_disable_interrupt_line
                0x80023fe0                eic_is_interrupt_line_enabled
                0x80024010                eic_clear_interrupt_lines
                0x80024050                eic_clear_interrupt_line
                0x80024098                eic_is_interrupt_line_pending
 .text          0x800240c8     0x1bbc src/asf/avr32/drivers/flashc/flashc.o
                0x800240c8                flashc_get_flash_size
                0x800240f0                flashc_get_page_count
                0x8002410c                flashc_get_page_count_per_region
                0x80024128                flashc_get_page_region
                0x80024164                flashc_get_region_first_page_number
                0x80024190                flashc_get_wait_state
                0x800241a8                flashc_set_wait_state
                0x800241ee                flashc_set_bus_freq
                0x80024228                flashc_is_ready_int_enabled
                0x80024240                flashc_enable_ready_int
                0x8002427e                flashc_is_lock_error_int_enabled
                0x80024298                flashc_enable_lock_error_int
                0x800242d6                flashc_is_prog_error_int_enabled
                0x800242f0                flashc_enable_prog_error_int
                0x8002432e                flashc_is_ready
                0x80024346                flashc_default_wait_until_ready
                0x8002437e                flashc_is_lock_error
                0x800243a0                flashc_is_programming_error
                0x800243c4                flashc_get_command
                0x800243da                flashc_get_page_number
                0x800243f6                flashc_issue_command
                0x80024480                flashc_no_operation
                0x8002449c                flashc_erase_all
                0x800244b8                flashc_is_security_bit_active
                0x800244d2                flashc_activate_security_bit
                0x800244ec                flashc_get_bootloader_protected_size
                0x80024530                flashc_set_bootloader_protected_size
                0x800245cc                flashc_is_external_privileged_fetch_locked
                0x800245f0                flashc_lock_external_privileged_fetch
                0x80024620                flashc_is_page_region_locked
                0x80024650                flashc_is_region_locked
                0x80024682                flashc_lock_page_region
                0x800246c0                flashc_lock_region
                0x800246f8                flashc_lock_all_regions
                0x80024760                flashc_read_gp_fuse_bit
                0x800247c4                flashc_read_gp_fuse_bitfield
                0x80024894                flashc_read_gp_fuse_byte
                0x800248f8                flashc_read_all_gp_fuses
                0x8002492c                flashc_erase_gp_fuse_bit
                0x80024978                flashc_erase_gp_fuse_bitfield
                0x80024a90                flashc_erase_gp_fuse_byte
                0x80024b64                flashc_erase_all_gp_fuses
                0x80024bac                flashc_write_gp_fuse_bit
                0x80024be8                flashc_write_gp_fuse_bitfield
                0x80024cb8                flashc_write_gp_fuse_byte
                0x80024cf4                flashc_write_all_gp_fuses
                0x80024d78                flashc_set_gp_fuse_bit
                0x80024dbc                flashc_set_gp_fuse_bitfield
                0x80024e8c                flashc_set_gp_fuse_byte
                0x80024f08                flashc_set_all_gp_fuses
                0x80024f74                flashc_clear_page_buffer
                0x80024f90                flashc_is_page_erased
                0x80024faa                flashc_quick_page_read
                0x80024fd8                flashc_erase_page
                0x80025044                flashc_erase_all_pages
                0x800250cc                flashc_write_page
                0x800250f0                flashc_quick_user_page_read
                0x80025114                flashc_erase_user_page
                0x80025150                flashc_write_user_page
                0x8002516c                flashc_memset8
                0x800251c0                flashc_memset16
                0x80025210                flashc_memset32
                0x80025270                flashc_memset64
                0x80025690                flashc_memcpy
                0x80025c1c                flashc_set_flash_waitstate_and_readmode
 .text          0x80025c84     0x10d0 src/asf/avr32/drivers/gpio/gpio.o
                0x80025c84                gpio_enable_module
                0x80025cfc                gpio_enable_module_pin
                0x80025f9c                gpio_enable_gpio
                0x80025ff0                gpio_enable_gpio_pin
                0x80026040                gpio_enable_pin_pull_up
                0x80026092                gpio_disable_pin_pull_up
                0x800260cc                gpio_enable_pin_pull_down
                0x8002611e                gpio_disable_pin_pull_down
                0x80026158                gpio_enable_pin_buskeeper
                0x800261aa                gpio_disable_pin_buskeeper
                0x800261fc                gpio_configure_pin
                0x800264d6                gpio_configure_group
                0x8002669e                gpio_get_pin_value
                0x800266d8                gpio_get_gpio_pin_output_value
                0x80026712                gpio_get_gpio_open_drain_pin_output_value
                0x8002674e                gpio_set_gpio_pin
                0x800267b6                gpio_set_pin_high
                0x800267f0                gpio_set_group_high
                0x80026820                gpio_set_pin_low
                0x8002685a                gpio_clr_gpio_pin
                0x800268c2                gpio_set_group_low
                0x800268f2                gpio_tgl_gpio_pin
                0x8002695a                gpio_toggle_pin
                0x80026994                gpio_toggle_group
                0x800269c4                gpio_set_gpio_open_drain_pin
                0x80026a14                gpio_clr_gpio_open_drain_pin
                0x80026a7c                gpio_tgl_gpio_open_drain_pin
                0x80026ae4                gpio_enable_pin_glitch_filter
                0x80026b1e                gpio_disable_pin_glitch_filter
                0x80026c2c                gpio_enable_pin_interrupt
                0x80026ca4                gpio_disable_pin_interrupt
                0x80026cde                gpio_get_pin_interrupt_flag
                0x80026d1a                gpio_clear_pin_interrupt_flag
 .text          0x80026d54      0x194 src/asf/avr32/drivers/intc/intc.o
                0x80026d5c                _get_interrupt_handler
                0x80026dec                INTC_init_interrupts
                0x80026e7c                INTC_register_interrupt
 .text          0x80026ee8      0x5f4 src/asf/avr32/drivers/pdca/pdca.o
                0x80026f08                pdca_get_handler
                0x80026f3c                pdca_init_channel
                0x80027010                pdca_get_channel_status
                0x80027044                pdca_disable
                0x80027074                pdca_enable
                0x800270a4                pdca_get_load_size
                0x800270d4                pdca_load_channel
                0x80027154                pdca_get_reload_size
                0x80027184                pdca_reload_channel
                0x80027204                pdca_set_peripheral_select
                0x8002723c                pdca_set_transfer_size
                0x80027280                pdca_disable_event_trigger
                0x800272b8                pdca_enable_event_trigger
                0x800272f0                pdca_disable_interrupt_transfer_error
                0x80027354                pdca_enable_interrupt_transfer_error
                0x80027384                pdca_disable_interrupt_transfer_complete
                0x800273e8                pdca_enable_interrupt_transfer_complete
                0x80027418                pdca_disable_interrupt_reload_counter_zero
                0x8002747c                pdca_enable_interrupt_reload_counter_zero
                0x800274ac                pdca_get_transfer_status
 .text          0x800274dc      0x688 src/asf/avr32/drivers/pevc/pevc.o
                0x800274dc                pevc_channel_configure
                0x800275da                pevc_igfd_set
                0x80027600                pevc_channels_enable
                0x80027640                pevc_channels_disable
                0x80027680                pevc_get_channel_status
                0x800276ea                pevc_get_channel_state
                0x80027754                pevc_channel_sev_enable
                0x80027786                pevc_channels_trigger_sev
                0x800277ca                pevc_channel_sev_disable
                0x800277fc                pevc_channels_enable_trigger_interrupt
                0x80027840                pevc_channels_disable_trigger_interrupt
                0x80027884                pevc_channel_is_trigger_interrupt_enabled
                0x800278f2                pevc_channel_is_trigger_interrupt_raised
                0x8002795c                pevc_channel_clear_trigger_interrupt
                0x800279ae                pevc_channels_enable_overrun_interrupt
                0x800279f2                pevc_channels_disable_overrun_interrupt
                0x80027a36                pevc_channel_is_overrun_interrupt_enabled
                0x80027aa4                pevc_channel_is_overrun_interrupt_raised
                0x80027b12                pevc_channel_clear_overrun_interrupt
 .text          0x80027b64      0xfe0 src/asf/avr32/drivers/scif/scif_uc3c.o
                0x80027bca                scif_read_gplp
                0x80027bec                scif_write_gplp
                0x80027c26                scif_start_osc
                0x80027d60                scif_is_osc_ready
                0x80027d9a                scif_stop_osc
                0x80027e18                scif_configure_osc_crystalmode
                0x80027f74                scif_configure_osc_extmode
                0x80028014                scif_enable_osc
                0x80028100                scif_enable_extosc
                0x800281a0                scif_pll_setup
                0x800282fc                scif_pll_enable
                0x8002839c                scif_pll_disable
                0x8002843c                scif_wait_for_pll_locked
                0x80028474                scif_start_osc32
                0x8002853c                scif_stop_osc32
                0x800285a4                scif_start_rc8M
                0x80028608                scif_stop_rc8M
                0x8002866c                scif_start_rc120M
                0x800286b8                scif_stop_rc120M
                0x8002871c                scif_start_gclk
                0x8002878c                scif_stop_gclk
                0x800287f6                scif_gc_setup
                0x800288bc                scif_gc_enable
                0x80028904                scif_bod18_enable_irq
                0x80028916                scif_bod18_disable_irq
                0x80028968                scif_bod18_clear_irq
                0x8002897a                scif_bod18_get_irq_status
                0x80028992                scif_bod18_get_irq_enable_bit
                0x800289aa                scif_bod18_get_level
                0x800289c0                scif_bod33_enable_irq
                0x800289d4                scif_bod33_disable_irq
                0x80028a28                scif_bod33_clear_irq
                0x80028a3c                scif_bod33_get_irq_status
                0x80028a54                scif_bod33_get_irq_enable_bit
                0x80028a6c                scif_bod33_get_level
                0x80028a82                scif_bod50_enable_irq
                0x80028a96                scif_bod50_disable_irq
                0x80028ae8                scif_bod50_clear_irq
                0x80028afc                scif_bod50_get_irq_status
                0x80028b14                scif_bod50_get_irq_enable_bit
                0x80028b2c                scif_bod50_get_level
 .text          0x80028b44      0x730 src/asf/avr32/drivers/spi/spi.o
                0x80028b44                getBaudDiv
                0x80028b98                spi_initSlave
                0x80028c22                spi_initTest
                0x80028c54                spi_initMaster
                0x80028ce8                spi_selectionMode
                0x80028d7c                spi_selectChip
                0x80028e14                spi_unselectChip
                0x80028e7e                spi_setupChipReg
                0x80029008                spi_enable
                0x80029022                spi_disable
                0x8002903c                spi_is_enabled
                0x8002905c                spi_writeRegisterEmptyCheck
                0x8002907c                spi_write
                0x800290d4                spi_variableSlaveWrite
                0x8002916c                spi_writeEndCheck
                0x8002918c                spi_readRegisterFullCheck
                0x800291ac                spi_read
                0x8002920a                spi_getStatus
 .text          0x80029274      0xeb0 src/asf/avr32/drivers/twim/twim.o
                0x800295a4                twim_set_speed
                0x8002964c                twim_master_init
                0x80029758                twim_disable_interrupt
                0x800297a0                twim_probe
                0x800297dc                twim_read_packet
                0x80029984                twim_read
                0x80029ac0                twim_write_packet
                0x80029c90                twim_write
                0x80029d98                twim_chained_transfer
                0x8002a0f0                twim_status
 .text          0x8002a124     0x1154 src/asf/avr32/drivers/usart/usart.o
                0x8002a3b8                usart_reset
                0x8002a42c                usart_init_rs232
                0x8002a598                usart_init_rs232_tx_only
                0x8002a714                usart_init_hw_handshaking
                0x8002a768                usart_init_modem
                0x8002a7c0                usart_init_sync_master
                0x8002a944                usart_init_sync_slave
                0x8002aab4                usart_init_rs485
                0x8002ab08                usart_init_IrDA
                0x8002ab78                usart_init_iso7816
                0x8002ac94                usart_init_lin_master
                0x8002acf8                usart_init_lin_slave
                0x8002ad5c                usart_init_spi_master
                0x8002ae78                usart_init_spi_slave
                0x8002af80                usart_spi_selectChip
                0x8002afa0                usart_spi_unselectChip
                0x8002affc                usart_send_address
                0x8002b06c                usart_write_char
                0x8002b0b0                usart_putchar
                0x8002b108                usart_read_char
                0x8002b15a                usart_getchar
                0x8002b1a4                usart_write_line
                0x8002b1f4                usart_get_echo_line
 .text          0x8002b278      0x17c src/asf/avr32/services/delay/delay.o
                0x8002b278                delay_init
                0x8002b29c                delay_ms
 .text._stext   0x8002b3f4       0x4c src/asf/avr32/utils/startup/startup_uc3.o
                                 0x50 (size before relaxing)
                0x8002b3f4                _stext
 .text          0x8002b440       0x24 src/asf/common/boards/user_board/init.o
                0x8002b440                board_init
 .text          0x8002b464      0x274 src/asf/common/services/clock/uc3c/osc.o
                0x8002b49c                osc_priv_enable_osc0
                0x8002b4d8                osc_priv_disable_osc0
                0x8002b510                osc_priv_enable_osc32
                0x8002b54c                osc_priv_disable_osc32
                0x8002b588                osc_priv_enable_rc8m
                0x8002b608                osc_priv_disable_rc8m
                0x8002b660                osc_priv_enable_rc120m
                0x8002b69c                osc_priv_disable_rc120m
 .text          0x8002b6d8      0x12c src/asf/common/services/clock/uc3c/pll.o
                0x8002b710                pll_config_write
                0x8002b764                pll_enable
                0x8002b7b8                pll_disable
 .text          0x8002b804      0x7a4 src/asf/common/services/clock/uc3c/sysclk.o
                0x8002bc64                sysclk_priv_enable_module
                0x8002bce4                sysclk_priv_disable_module
                0x8002bd68                sysclk_set_prescalers
                0x8002be70                sysclk_set_source
                0x8002beb4                sysclk_enable_usb
                0x8002bf18                sysclk_disable_usb
                0x8002bf30                sysclk_init
 .text          0x8002bfa8      0x768 src/asf/common/services/spi/uc3_spi/spi_master.o
                0x8002c4dc                spi_master_setup_device
                0x8002c584                spi_read_packet
                0x8002c668                spi_write_packet
 .text          0x8002c710      0x328 src/boardsupport.o
                0x8002c854                initialise_board
 .text          0x8002ca38      0x228 src/main.o
                0x8002ca9e                initialisation
                0x8002cc2c                main
 .text.cos      0x8002cc60       0x8c c:/program files/atmel/atmel toolchain/avr32 gcc/native/3.4.2.1002/avr32-gnu-toolchain/bin/../lib/gcc/avr32/4.4.7/../../../../avr32/lib/ucr3fp\libm.a(lib_a-s_cos.o)
                                 0x9c (size before relaxing)
                0x8002cc60                cos
 .text.sin      0x8002ccec       0x90 c:/program files/atmel/atmel toolchain/avr32 gcc/native/3.4.2.1002/avr32-gnu-toolchain/bin/../lib/gcc/avr32/4.4.7/../../../../avr32/lib/ucr3fp\libm.a(lib_a-s_sin.o)
                                 0xa0 (size before relaxing)
                0x8002ccec                sin
 .text.asin     0x8002cd7c       0x94 c:/program files/atmel/atmel toolchain/avr32 gcc/native/3.4.2.1002/avr32-gnu-toolchain/bin/../lib/gcc/avr32/4.4.7/../../../../avr32/lib/ucr3fp\libm.a(lib_a-w_asin.o)
                                 0xb0 (size before relaxing)
                0x8002cd7c                asin
 .text.atan2    0x8002ce10        0x8 c:/program files/atmel/atmel toolchain/avr32 gcc/native/3.4.2.1002/avr32-gnu-toolchain/bin/../lib/gcc/avr32/4.4.7/../../../../avr32/lib/ucr3fp\libm.a(lib_a-w_atan2.o)
                                  0xc (size before relaxing)
                0x8002ce10                atan2
 .text.pow      0x8002ce18      0x2b8 c:/program files/atmel/atmel toolchain/avr32 gcc/native/3.4.2.1002/avr32-gnu-toolchain/bin/../lib/gcc/avr32/4.4.7/../../../../avr32/lib/ucr3fp\libm.a(lib_a-w_pow.o)
                                0x300 (size before relaxing)
                0x8002ce18                pow
 .text.sqrt     0x8002d0d0       0x9c c:/program files/atmel/atmel toolchain/avr32 gcc/native/3.4.2.1002/avr32-gnu-toolchain/bin/../lib/gcc/avr32/4.4.7/../../../../avr32/lib/ucr3fp\libm.a(lib_a-w_sqrt.o)
                                 0xb4 (size before relaxing)
                0x8002d0d0                sqrt
 .text.__ieee754_asin
                0x8002d16c      0x4f0 c:/program files/atmel/atmel toolchain/avr32 gcc/native/3.4.2.1002/avr32-gnu-toolchain/bin/../lib/gcc/avr32/4.4.7/../../../../avr32/lib/ucr3fp\libm.a(lib_a-e_asin.o)
                                0x50c (size before relaxing)
                0x8002d16c                __ieee754_asin
 .text.__ieee754_atan2
                0x8002d65c      0x22c c:/program files/atmel/atmel toolchain/avr32 gcc/native/3.4.2.1002/avr32-gnu-toolchain/bin/../lib/gcc/avr32/4.4.7/../../../../avr32/lib/ucr3fp\libm.a(lib_a-e_atan2.o)
                                0x240 (size before relaxing)
                0x8002d65c                __ieee754_atan2
 .text.__ieee754_pow
                0x8002d888      0xaa4 c:/program files/atmel/atmel toolchain/avr32 gcc/native/3.4.2.1002/avr32-gnu-toolchain/bin/../lib/gcc/avr32/4.4.7/../../../../avr32/lib/ucr3fp\libm.a(lib_a-e_pow.o)
                                0xaf0 (size before relaxing)
                0x8002d888                __ieee754_pow
 .text.__ieee754_rem_pio2
                0x8002e32c      0x470 c:/program files/atmel/atmel toolchain/avr32 gcc/native/3.4.2.1002/avr32-gnu-toolchain/bin/../lib/gcc/avr32/4.4.7/../../../../avr32/lib/ucr3fp\libm.a(lib_a-e_rem_pio2.o)
                                0x4a0 (size before relaxing)
                0x8002e32c                __ieee754_rem_pio2
 .text.__ieee754_sqrt
                0x8002e79c      0x18c c:/program files/atmel/atmel toolchain/avr32 gcc/native/3.4.2.1002/avr32-gnu-toolchain/bin/../lib/gcc/avr32/4.4.7/../../../../avr32/lib/ucr3fp\libm.a(lib_a-e_sqrt.o)
                                0x19c (size before relaxing)
                0x8002e79c                __ieee754_sqrt
 .text.__kernel_cos
                0x8002e928      0x1e8 c:/program files/atmel/atmel toolchain/avr32 gcc/native/3.4.2.1002/avr32-gnu-toolchain/bin/../lib/gcc/avr32/4.4.7/../../../../avr32/lib/ucr3fp\libm.a(lib_a-k_cos.o)
                                0x1f8 (size before relaxing)
                0x8002e928                __kernel_cos
 .text.__kernel_rem_pio2
                0x8002eb10      0x6e0 c:/program files/atmel/atmel toolchain/avr32 gcc/native/3.4.2.1002/avr32-gnu-toolchain/bin/../lib/gcc/avr32/4.4.7/../../../../avr32/lib/ucr3fp\libm.a(lib_a-k_rem_pio2.o)
                                0x718 (size before relaxing)
                0x8002eb10                __kernel_rem_pio2
 .text.__kernel_sin
                0x8002f1f0      0x194 c:/program files/atmel/atmel toolchain/avr32 gcc/native/3.4.2.1002/avr32-gnu-toolchain/bin/../lib/gcc/avr32/4.4.7/../../../../avr32/lib/ucr3fp\libm.a(lib_a-k_sin.o)
                                0x1a4 (size before relaxing)
                0x8002f1f0                __kernel_sin
 .text.atan     0x8002f384      0x348 c:/program files/atmel/atmel toolchain/avr32 gcc/native/3.4.2.1002/avr32-gnu-toolchain/bin/../lib/gcc/avr32/4.4.7/../../../../avr32/lib/ucr3fp\libm.a(lib_a-s_atan.o)
                                0x368 (size before relaxing)
                0x8002f384                atan
 .text.fabs     0x8002f6cc        0x8 c:/program files/atmel/atmel toolchain/avr32 gcc/native/3.4.2.1002/avr32-gnu-toolchain/bin/../lib/gcc/avr32/4.4.7/../../../../avr32/lib/ucr3fp\libm.a(lib_a-s_fabs.o)
                0x8002f6cc                fabs
 .text.finite   0x8002f6d4       0x10 c:/program files/atmel/atmel toolchain/avr32 gcc/native/3.4.2.1002/avr32-gnu-toolchain/bin/../lib/gcc/avr32/4.4.7/../../../../avr32/lib/ucr3fp\libm.a(lib_a-s_finite.o)
                0x8002f6d4                finite
 .text.floor    0x8002f6e4      0x120 c:/program files/atmel/atmel toolchain/avr32 gcc/native/3.4.2.1002/avr32-gnu-toolchain/bin/../lib/gcc/avr32/4.4.7/../../../../avr32/lib/ucr3fp\libm.a(lib_a-s_floor.o)
                                0x128 (size before relaxing)
                0x8002f6e4                floor
 .text.__isnand
                0x8002f804       0x1c c:/program files/atmel/atmel toolchain/avr32 gcc/native/3.4.2.1002/avr32-gnu-toolchain/bin/../lib/gcc/avr32/4.4.7/../../../../avr32/lib/ucr3fp\libm.a(lib_a-s_isnand.o)
                0x8002f804                __isnand
 .text.matherr  0x8002f820        0x2 c:/program files/atmel/atmel toolchain/avr32 gcc/native/3.4.2.1002/avr32-gnu-toolchain/bin/../lib/gcc/avr32/4.4.7/../../../../avr32/lib/ucr3fp\libm.a(lib_a-s_matherr.o)
                0x8002f820                matherr
 .text.nan      0x8002f822        0x8 c:/program files/atmel/atmel toolchain/avr32 gcc/native/3.4.2.1002/avr32-gnu-toolchain/bin/../lib/gcc/avr32/4.4.7/../../../../avr32/lib/ucr3fp\libm.a(lib_a-s_nan.o)
                0x8002f822                nan
 *fill*         0x8002f82a        0x2 d703d703
 .text.rint     0x8002f82c      0x118 c:/program files/atmel/atmel toolchain/avr32 gcc/native/3.4.2.1002/avr32-gnu-toolchain/bin/../lib/gcc/avr32/4.4.7/../../../../avr32/lib/ucr3fp\libm.a(lib_a-s_rint.o)
                                0x124 (size before relaxing)
                0x8002f82c                rint
 .text.scalbn   0x8002f944       0xdc c:/program files/atmel/atmel toolchain/avr32 gcc/native/3.4.2.1002/avr32-gnu-toolchain/bin/../lib/gcc/avr32/4.4.7/../../../../avr32/lib/ucr3fp\libm.a(lib_a-s_scalbn.o)
                                 0xf0 (size before relaxing)
                0x8002f944                scalbn
 .text.copysign
                0x8002fa20       0x18 c:/program files/atmel/atmel toolchain/avr32 gcc/native/3.4.2.1002/avr32-gnu-toolchain/bin/../lib/gcc/avr32/4.4.7/../../../../avr32/lib/ucr3fp\libm.a(lib_a-s_copysign.o)
                0x8002fa20                copysign
 .text          0x8002fa38      0x1d4 c:/program files/atmel/atmel toolchain/avr32 gcc/native/3.4.2.1002/avr32-gnu-toolchain/bin/../lib/gcc/avr32/4.4.7/ucr3fp\libgcc.a(_avr32_f64_mul.o)
                0x8002fa38                __avr32_f64_mul
 .text          0x8002fc0c      0x2b0 c:/program files/atmel/atmel toolchain/avr32 gcc/native/3.4.2.1002/avr32-gnu-toolchain/bin/../lib/gcc/avr32/4.4.7/ucr3fp\libgcc.a(_avr32_f64_addsub.o)
                0x8002fc10                __avr32_f64_sub
                0x8002fdac                __avr32_f64_add
 .text          0x8002febc       0x2a c:/program files/atmel/atmel toolchain/avr32 gcc/native/3.4.2.1002/avr32-gnu-toolchain/bin/../lib/gcc/avr32/4.4.7/ucr3fp\libgcc.a(_avr32_f64_to_s32.o)
                0x8002febc                __avr32_f64_to_u32
                0x8002fec0                __avr32_f64_to_s32
 .text          0x8002fee6       0xe8 c:/program files/atmel/atmel toolchain/avr32 gcc/native/3.4.2.1002/avr32-gnu-toolchain/bin/../lib/gcc/avr32/4.4.7/ucr3fp\libgcc.a(_avr32_s32_to_f64.o)
                0x8002fee6                __avr32_u32_to_f64
                0x8002feee                __avr32_s32_to_f64
 .text          0x8002ffce       0x26 c:/program files/atmel/atmel toolchain/avr32 gcc/native/3.4.2.1002/avr32-gnu-toolchain/bin/../lib/gcc/avr32/4.4.7/ucr3fp\libgcc.a(_avr32_f64_cmp_eq.o)
                0x8002ffce                __avr32_f64_cmp_eq
 .text          0x8002fff4       0x68 c:/program files/atmel/atmel toolchain/avr32 gcc/native/3.4.2.1002/avr32-gnu-toolchain/bin/../lib/gcc/avr32/4.4.7/ucr3fp\libgcc.a(_avr32_f64_cmp_ge.o)
                0x8002fff4                __avr32_f64_cmp_ge
 .text          0x8003005c       0x68 c:/program files/atmel/atmel toolchain/avr32 gcc/native/3.4.2.1002/avr32-gnu-toolchain/bin/../lib/gcc/avr32/4.4.7/ucr3fp\libgcc.a(_avr32_f64_cmp_lt.o)
                0x8003005c                __avr32_f64_cmp_lt
 .text          0x800300c4      0x318 c:/program files/atmel/atmel toolchain/avr32 gcc/native/3.4.2.1002/avr32-gnu-toolchain/bin/../lib/gcc/avr32/4.4.7/ucr3fp\libgcc.a(_avr32_f64_div.o)
                0x800300c4                __avr32_f64_div
 .text          0x800303dc      0x160 c:/program files/atmel/atmel toolchain/avr32 gcc/native/3.4.2.1002/avr32-gnu-toolchain/bin/../lib/gcc/avr32/4.4.7/ucr3fp\libgcc.a(_avr32_f32_div.o)
                0x800303dc                __avr32_f32_div
 .text          0x8003053c       0x60 c:/program files/atmel/atmel toolchain/avr32 gcc/native/3.4.2.1002/avr32-gnu-toolchain/bin/../lib/gcc/avr32/4.4.7/ucr3fp\libgcc.a(_avr32_f32_to_f64.o)
                0x8003053c                __avr32_f32_to_f64
 .text          0x8003059c       0x8a c:/program files/atmel/atmel toolchain/avr32 gcc/native/3.4.2.1002/avr32-gnu-toolchain/bin/../lib/gcc/avr32/4.4.7/ucr3fp\libgcc.a(_avr32_f64_to_f32.o)
                0x8003059c                __avr32_f64_to_f32
 .text          0x80030626      0x264 c:/program files/atmel/atmel toolchain/avr32 gcc/native/3.4.2.1002/avr32-gnu-toolchain/bin/../lib/gcc/avr32/4.4.7/ucr3fp\libgcc.a(_udivdi3.o)
                0x80030626                __avr32_udiv64
                0x80030626                __udivdi3
 *fill*         0x8003088a        0x2 d703d703
 .text.__errno  0x8003088c        0xc c:/program files/atmel/atmel toolchain/avr32 gcc/native/3.4.2.1002/avr32-gnu-toolchain/bin/../lib/gcc/avr32/4.4.7/../../../../avr32/lib/ucr3fp\libc.a(lib_a-errno.o)
                0x8003088c                __errno
 .text          0x80030898      0x148 c:/program files/atmel/atmel toolchain/avr32 gcc/native/3.4.2.1002/avr32-gnu-toolchain/bin/../lib/gcc/avr32/4.4.7/../../../../avr32/lib/ucr3fp\libc.a(lib_a-memcpy.o)
                0x80030898                memcpy
 .text.memset   0x800309e0        0xe c:/program files/atmel/atmel toolchain/avr32 gcc/native/3.4.2.1002/avr32-gnu-toolchain/bin/../lib/gcc/avr32/4.4.7/../../../../avr32/lib/ucr3fp\libc.a(lib_a-memset.o)
                0x800309e0                memset
 .text.strcpy   0x800309ee       0x12 c:/program files/atmel/atmel toolchain/avr32 gcc/native/3.4.2.1002/avr32-gnu-toolchain/bin/../lib/gcc/avr32/4.4.7/../../../../avr32/lib/ucr3fp\libc.a(lib_a-strcpy.o)
                0x800309ee                strcpy
 .text.strlen   0x80030a00       0x16 c:/program files/atmel/atmel toolchain/avr32 gcc/native/3.4.2.1002/avr32-gnu-toolchain/bin/../lib/gcc/avr32/4.4.7/../../../../avr32/lib/ucr3fp\libc.a(lib_a-strlen.o)
                0x80030a00                strlen
 *(.text.*personality*)
 *(.gnu.warning)

.exception      0x80030c00      0x200
 .exception     0x80030c00      0x200 src/asf/avr32/drivers/intc/exception.o
                0x80030c00                _evba
                0x80030d3c                ipr_val

.fini
 *(.fini)
                0x80030e00                PROVIDE (__etext, .)
                0x80030e00                PROVIDE (_etext, .)
                0x80030e00                PROVIDE (etext, .)

.rodata         0x80030e00      0x644
 *(.rodata .rodata.* .gnu.linkonce.r.*)
 .rodata.servo_failsafe
                0x80030e00       0x80 src/tasks.o
 .rodata.mavlink_message_crcs.14492
                0x80030e80      0x100 Library/communication/mavlink_stream.o
 .rodata.ADCIFA_GPIO_MAP
                0x80030f80       0x26 Library/hal/adc_int.o
 *fill*         0x80030fa6        0x2 
 .rodata.C.56.15142
                0x80030fa8        0x4 Library/hal/bmp085.o
 .rodata.C.57.15143
                0x80030fac        0x4 Library/hal/bmp085.o
 .rodata.C.61.15660
                0x80030fb0        0xc Library/hal/dac_dma.o
 .rodata.DACIFB_GPIO_MAP.15655
                0x80030fbc        0x8 Library/hal/dac_dma.o
 .rodata.PEVC_EVS_OPTIONS.15646
                0x80030fc4       0x10 Library/hal/dac_dma.o
 .rodata.LED_DESCRIPTOR
                0x80030fd4       0x20 Library/hal/led.o
 .rodata.PWM_GPIO_MAP.14186
                0x80030ff4        0xc Library/hal/servo_pwm.o
 .rodata.USART_GPIO_MAP.16389
                0x80031000        0x4 Library/hal/remote_dsm2.o
 .rodata.usart_opt.16388
                0x80031004        0xc Library/hal/remote_dsm2.o
 .rodata.alphabet
                0x80031010       0x24 Library/util/print_util.o
 .rodata.FLASH_SIZE.14167
                0x80031034       0x40 src/asf/avr32/drivers/flashc/flashc.o
 .rodata.servo_failsafe
                0x80031074       0x80 src/boardsupport.o
 .rodata.servo_failsafe
                0x800310f4       0x80 src/main.o
 .rodata.str1.4
                0x80031174        0x5 c:/program files/atmel/atmel toolchain/avr32 gcc/native/3.4.2.1002/avr32-gnu-toolchain/bin/../lib/gcc/avr32/4.4.7/../../../../avr32/lib/ucr3fp\libm.a(lib_a-w_asin.o)
                                  0xc (size before relaxing)
 *fill*         0x80031179        0x3 
 .rodata.str1.4
                0x8003117c        0x4 c:/program files/atmel/atmel toolchain/avr32 gcc/native/3.4.2.1002/avr32-gnu-toolchain/bin/../lib/gcc/avr32/4.4.7/../../../../avr32/lib/ucr3fp\libm.a(lib_a-w_pow.o)
 .rodata.str1.4
                0x80031180        0x5 c:/program files/atmel/atmel toolchain/avr32 gcc/native/3.4.2.1002/avr32-gnu-toolchain/bin/../lib/gcc/avr32/4.4.7/../../../../avr32/lib/ucr3fp\libm.a(lib_a-w_sqrt.o)
                                  0x8 (size before relaxing)
 *fill*         0x80031185        0x3 
 .rodata.dp_h   0x80031188       0x10 c:/program files/atmel/atmel toolchain/avr32 gcc/native/3.4.2.1002/avr32-gnu-toolchain/bin/../lib/gcc/avr32/4.4.7/../../../../avr32/lib/ucr3fp\libm.a(lib_a-e_pow.o)
 .rodata.dp_l   0x80031198       0x10 c:/program files/atmel/atmel toolchain/avr32 gcc/native/3.4.2.1002/avr32-gnu-toolchain/bin/../lib/gcc/avr32/4.4.7/../../../../avr32/lib/ucr3fp\libm.a(lib_a-e_pow.o)
 .rodata.bp     0x800311a8       0x10 c:/program files/atmel/atmel toolchain/avr32 gcc/native/3.4.2.1002/avr32-gnu-toolchain/bin/../lib/gcc/avr32/4.4.7/../../../../avr32/lib/ucr3fp\libm.a(lib_a-e_pow.o)
 .rodata.str1.4
                0x00000000        0x4 c:/program files/atmel/atmel toolchain/avr32 gcc/native/3.4.2.1002/avr32-gnu-toolchain/bin/../lib/gcc/avr32/4.4.7/../../../../avr32/lib/ucr3fp\libm.a(lib_a-e_pow.o)
 .rodata.npio2_hw
                0x800311b8       0x80 c:/program files/atmel/atmel toolchain/avr32 gcc/native/3.4.2.1002/avr32-gnu-toolchain/bin/../lib/gcc/avr32/4.4.7/../../../../avr32/lib/ucr3fp\libm.a(lib_a-e_rem_pio2.o)
 .rodata.two_over_pi
                0x80031238      0x108 c:/program files/atmel/atmel toolchain/avr32 gcc/native/3.4.2.1002/avr32-gnu-toolchain/bin/../lib/gcc/avr32/4.4.7/../../../../avr32/lib/ucr3fp\libm.a(lib_a-e_rem_pio2.o)
 .rodata.init_jk
                0x80031340       0x10 c:/program files/atmel/atmel toolchain/avr32 gcc/native/3.4.2.1002/avr32-gnu-toolchain/bin/../lib/gcc/avr32/4.4.7/../../../../avr32/lib/ucr3fp\libm.a(lib_a-k_rem_pio2.o)
 .rodata.PIo2   0x80031350       0x40 c:/program files/atmel/atmel toolchain/avr32 gcc/native/3.4.2.1002/avr32-gnu-toolchain/bin/../lib/gcc/avr32/4.4.7/../../../../avr32/lib/ucr3fp\libm.a(lib_a-k_rem_pio2.o)
 .rodata.atanlo
                0x80031390       0x20 c:/program files/atmel/atmel toolchain/avr32 gcc/native/3.4.2.1002/avr32-gnu-toolchain/bin/../lib/gcc/avr32/4.4.7/../../../../avr32/lib/ucr3fp\libm.a(lib_a-s_atan.o)
 .rodata.atanhi
                0x800313b0       0x20 c:/program files/atmel/atmel toolchain/avr32 gcc/native/3.4.2.1002/avr32-gnu-toolchain/bin/../lib/gcc/avr32/4.4.7/../../../../avr32/lib/ucr3fp\libm.a(lib_a-s_atan.o)
 .rodata.TWO52  0x800313d0       0x10 c:/program files/atmel/atmel toolchain/avr32 gcc/native/3.4.2.1002/avr32-gnu-toolchain/bin/../lib/gcc/avr32/4.4.7/../../../../avr32/lib/ucr3fp\libm.a(lib_a-s_rint.o)
 .rodata.str1.4
                0x800313e0        0x4 c:/program files/atmel/atmel toolchain/avr32 gcc/native/3.4.2.1002/avr32-gnu-toolchain/bin/../lib/gcc/avr32/4.4.7/../../../../avr32/lib/ucr3fp\libc.a(lib_a-impure.o)
 .rodata.__sf_fake_stdin
                0x800313e4       0x20 c:/program files/atmel/atmel toolchain/avr32 gcc/native/3.4.2.1002/avr32-gnu-toolchain/bin/../lib/gcc/avr32/4.4.7/../../../../avr32/lib/ucr3fp\libc.a(lib_a-findfp.o)
                0x800313e4                __sf_fake_stdin
 .rodata.__sf_fake_stdout
                0x80031404       0x20 c:/program files/atmel/atmel toolchain/avr32 gcc/native/3.4.2.1002/avr32-gnu-toolchain/bin/../lib/gcc/avr32/4.4.7/../../../../avr32/lib/ucr3fp\libc.a(lib_a-findfp.o)
                0x80031404                __sf_fake_stdout
 .rodata.__sf_fake_stderr
                0x80031424       0x20 c:/program files/atmel/atmel toolchain/avr32 gcc/native/3.4.2.1002/avr32-gnu-toolchain/bin/../lib/gcc/avr32/4.4.7/../../../../avr32/lib/ucr3fp\libc.a(lib_a-findfp.o)
                0x80031424                __sf_fake_stderr

.rodata1
 *(.rodata1)

.eh_frame_hdr
 *(.eh_frame_hdr)

.eh_frame
 *(.eh_frame)

.gcc_except_table
 *(.gcc_except_table)
 *(.gcc_except_table.*)

.dalign         0x80031444        0x4
                0x80031448                . = ALIGN (0x8)
 *fill*         0x80031444        0x4 
                0x80031448                PROVIDE (_data_lma, .)
                0x00000004                PROVIDE (_data, ORIGIN (CPUSRAM))
                0x00000004                . = ORIGIN (CPUSRAM)

.eh_frame
 *(.eh_frame)

.gcc_except_table
 *(.gcc_except_table)
 *(.gcc_except_table.*)

.tdata
 *(.tdata .tdata.* .gnu.linkonce.td.*)

.tbss
 *(.tbss .tbss.* .gnu.linkonce.tb.*)
 *(.tcommon)
                0x00000004                PROVIDE (__preinit_array_start, ALIGN (0x4))

.preinit_array
 *(.preinit_array)
                0x00000004                PROVIDE (__preinit_array_end, .)
                0x00000004                PROVIDE (__init_array_start, .)

.init_array
 *(.init_array)
                0x00000004                PROVIDE (__init_array_end, .)
                0x00000004                PROVIDE (__fini_array_start, .)

.fini_array
 *(.fini_array)
                0x00000004                PROVIDE (__fini_array_end, .)

.ctors
 *crtbegin*.o(.ctors)
 *(EXCLUDE_FILE(*crtend*.o) .ctors)
 *(SORT(.ctors.*))
 *(.ctors)

.dtors
 *crtbegin*.o(.dtors)
 *(EXCLUDE_FILE(*crtend*.o) .dtors)
 *(SORT(.dtors.*))
 *(.dtors)

.jcr
 *(.jcr)

.data.rel.ro    0x00000004      0x178 load address 0x80031448
 *(.data.rel.ro.local)
 *(.data.rel.ro*)
 .data.rel.ro.local._int_handler_table
                0x00000004      0x178 src/asf/avr32/drivers/intc/intc.o

.dynamic
 *(.dynamic)

.got            0x0000017c      0x900 load address 0x800315c0
 *(.got.plt)
 *(.got)
 .got           0x0000017c      0x900 Library/control/neighbor_selection.o
                0x0000017c                _GLOBAL_OFFSET_TABLE_

.data           0x00000a7c     0x19f4 load address 0x80031ec0
 *(.data .data.* .gnu.linkonce.d.*)
 .data.stabiliser_defaults
                0x00000a7c      0x3b8 Library/control/stabilisation_copter.o
 .data.main_tasks
                0x00000e34      0x1e4 src/tasks.o
                0x00000e34                main_tasks
 .data.mavlink_tasks
                0x00001018      0x5a4 Library/communication/mavlink_stream.o
                0x00001018                mavlink_tasks
 .data.adcifa   0x000015bc        0x4 Library/hal/adc_int.o
                0x000015bc                adcifa
 .data.adc_config_options
                0x000015c0       0x14 Library/hal/adc_int.o
                0x000015c0                adc_config_options
 .data.adcifa_sequence_opt
                0x000015d4        0x7 Library/hal/adc_int.o
                0x000015d4                adcifa_sequence_opt
 *fill*         0x000015db        0x1 
 .data.default_configuration
                0x000015dc        0x4 Library/hal/adxl345_driver.o
                0x000015dc                default_configuration
 .data.data_configuration
                0x000015e0        0x4 Library/hal/adxl345_driver.o
                0x000015e0                data_configuration
 .data.twi_opt.14919
                0x000015e4       0x10 Library/hal/adxl345_driver.o
 .data.twi_opt.15092
                0x000015f4       0x10 Library/hal/bmp085.o
 .data.twi_opt.14132
                0x00001604       0x10 Library/hal/compass_hmc5883l.o
 .data.compass_default_configuration.14133
                0x00001614        0x4 Library/hal/compass_hmc5883l.o
 .data.ppevc    0x00001618        0x4 Library/hal/dac_dma.o
                0x00001618                ppevc
 .data.dacifb   0x0000161c        0x4 Library/hal/dac_dma.o
                0x0000161c                dacifb
 .data.dac_channel_audio
                0x00001620        0x1 Library/hal/dac_dma.o
                0x00001620                dac_channel_audio
 *fill*         0x00001621        0x3 
 .data.PDCA_OPTIONS.15681
                0x00001624       0x1c Library/hal/dac_dma.o
 .data.PDCA_OPTIONS.15699
                0x00001640       0x1c Library/hal/i2c_driver.o
 .data.read_preamble
                0x0000165c        0x1 Library/hal/itg3200_driver.o
                0x0000165c                read_preamble
 *fill*         0x0000165d        0x3 
 .data.twi_opt.14928
                0x00001660       0x10 Library/hal/itg3200_driver.o
 .data.LED_State
                0x00001670        0x4 Library/hal/led.o
 .data.twi_opt.14901
                0x00001674       0x10 Library/hal/radar_module_driver.o
 .data.PDCA_TX_OPTIONS.15184
                0x00001684       0x1c Library/hal/spi_buffered.o
 .data.PDCA_RX_OPTIONS.15185
                0x000016a0       0x1c Library/hal/spi_buffered.o
 .data.usart_opt
                0x000016bc      0xac8 Library/hal/uart_int.o
 .data.rel.ubx_currentPosllhMessage
                0x00002184        0x4 Library/sensing/gps_ublox.o
                0x00002184                ubx_currentPosllhMessage
 .data.rel.ubx_lastPosllhMessage
                0x00002188        0x4 Library/sensing/gps_ublox.o
                0x00002188                ubx_lastPosllhMessage
 .data.rel.ubx_currentStatusMessage
                0x0000218c        0x4 Library/sensing/gps_ublox.o
                0x0000218c                ubx_currentStatusMessage
 .data.rel.ubx_lastStatusMessage
                0x00002190        0x4 Library/sensing/gps_ublox.o
                0x00002190                ubx_lastStatusMessage
 .data.rel.ubx_currentSolutionMessage
                0x00002194        0x4 Library/sensing/gps_ublox.o
                0x00002194                ubx_currentSolutionMessage
 .data.rel.ubx_lastSolutionMessage
                0x00002198        0x4 Library/sensing/gps_ublox.o
                0x00002198                ubx_lastSolutionMessage
 .data.rel.ubx_currentVelnedMessage
                0x0000219c        0x4 Library/sensing/gps_ublox.o
                0x0000219c                ubx_currentVelnedMessage
 .data.rel.ubx_lastVelnedMessage
                0x000021a0        0x4 Library/sensing/gps_ublox.o
                0x000021a0                ubx_lastVelnedMessage
 .data.rel.ubx_currentSVInfoMessage
                0x000021a4        0x4 Library/sensing/gps_ublox.o
                0x000021a4                ubx_currentSVInfoMessage
 .data.rel.ubx_lastSVInfoMessage
                0x000021a8        0x4 Library/sensing/gps_ublox.o
                0x000021a8                ubx_lastSVInfoMessage
 .data.rel.ubx_currentNavSettingsMessage
                0x000021ac        0x4 Library/sensing/gps_ublox.o
                0x000021ac                ubx_currentNavSettingsMessage
 .data.rel.ubx_lastNavSettingsMessage
                0x000021b0        0x4 Library/sensing/gps_ublox.o
                0x000021b0                ubx_lastNavSettingsMessage
 .data.rel.ubx_currentCFGRateMessage
                0x000021b4        0x4 Library/sensing/gps_ublox.o
                0x000021b4                ubx_currentCFGRateMessage
 .data.rel.ubx_lastCFGRateMessage
                0x000021b8        0x4 Library/sensing/gps_ublox.o
                0x000021b8                ubx_lastCFGRateMessage
 .data.rel.ubx_currentCFGSetGetRateMessage
                0x000021bc        0x4 Library/sensing/gps_ublox.o
                0x000021bc                ubx_currentCFGSetGetRateMessage
 .data.rel.ubx_lastCFGSetGetRateMessage
                0x000021c0        0x4 Library/sensing/gps_ublox.o
                0x000021c0                ubx_lastCFGSetGetRateMessage
 .data.rel.ubx_currentMONRXRMessage
                0x000021c4        0x4 Library/sensing/gps_ublox.o
                0x000021c4                ubx_currentMONRXRMessage
 .data.rel.ubx_lastMONRXRMessage
                0x000021c8        0x4 Library/sensing/gps_ublox.o
                0x000021c8                ubx_lastMONRXRMessage
 .data.rel.ubx_currentTimTPMessage
                0x000021cc        0x4 Library/sensing/gps_ublox.o
                0x000021cc                ubx_currentTimTPMessage
 .data.rel.ubx_lastTimTPMessage
                0x000021d0        0x4 Library/sensing/gps_ublox.o
                0x000021d0                ubx_lastTimTPMessage
 .data.rel.ubx_currentTimVRFYMessage
                0x000021d4        0x4 Library/sensing/gps_ublox.o
                0x000021d4                ubx_currentTimVRFYMessage
 .data.rel.ubx_lastTimVRFYMessage
                0x000021d8        0x4 Library/sensing/gps_ublox.o
                0x000021d8                ubx_lastTimVRFYMessage
 .data.numSkippedMsg
                0x000021dc        0x1 Library/sensing/gps_ublox.o
                0x000021dc                numSkippedMsg
 *fill*         0x000021dd        0x3 
 .data.vehicle_model_parameters
                0x000021e0      0x194 Library/sensing/simulation.o
 .data.rel.flashc_wait_until_ready
                0x00002374        0x4 src/asf/avr32/drivers/flashc/flashc.o
                0x00002374                flashc_wait_until_ready
 .data.__fdlib_version
                0x00002378        0x4 c:/program files/atmel/atmel toolchain/avr32 gcc/native/3.4.2.1002/avr32-gnu-toolchain/bin/../lib/gcc/avr32/4.4.7/../../../../avr32/lib/ucr3fp\libm.a(lib_a-s_lib_ver.o)
                0x00002378                __fdlib_version
 .data.impure_data
                0x0000237c       0xf0 c:/program files/atmel/atmel toolchain/avr32 gcc/native/3.4.2.1002/avr32-gnu-toolchain/bin/../lib/gcc/avr32/4.4.7/../../../../avr32/lib/ucr3fp\libc.a(lib_a-impure.o)
 .data._impure_ptr
                0x0000246c        0x4 c:/program files/atmel/atmel toolchain/avr32 gcc/native/3.4.2.1002/avr32-gnu-toolchain/bin/../lib/gcc/avr32/4.4.7/../../../../avr32/lib/ucr3fp\libc.a(lib_a-impure.o)
                0x0000246c                _impure_ptr
 *(.gnu.linkonce.d.*personality*)

.data1
 *(.data1)

.balign         0x00002470        0x0 load address 0x800338b4
                0x00002470                . = ALIGN (0x8)
                0x00002470                _edata = .
                0x00002470                _edata = .
                0x00002470                PROVIDE (edata, .)
                0x00002470                __bss_start = .

.bss            0x00002470     0x7630 load address 0x800338b4
 *(.dynbss)
 *(.bss .bss.* .gnu.linkonce.b.*)
 .bss.loop_count_orca
                0x00002470        0x1 Library/control/orca.o
                0x00002470                loop_count_orca
 *fill*         0x00002471        0x3 
 .bss.centralData
                0x00002474     0x12e8 src/central_data.o
 .bss.m_mavlink_status.15762
                0x0000375c       0x40 src/mavlink_actions.o
 .bss.mavlink_out_stream
                0x0000379c        0x4 Library/communication/mavlink_stream.o
 .bss.mavlink_in_stream
                0x000037a0        0x4 Library/communication/mavlink_stream.o
 .bss.m_mavlink_buffer.14345
                0x000037a4      0x440 Library/communication/mavlink_stream.o
 .bss.m_mavlink_status.14338
                0x00003be4       0x40 Library/communication/mavlink_stream.o
 .bss.m_mavlink_status.14338
                0x00003c24       0x40 Library/communication/onboard_parameters.o
 .bss.sequencer_item_count
                0x00003c64        0x1 Library/hal/adc_int.o
 .bss.channel_count
                0x00003c65        0x1 Library/hal/adc_int.o
 *fill*         0x00003c66        0x2 
 .bss.sample_counter
                0x00003c68        0x4 Library/hal/adc_int.o
 .bss.oversampling_counter
                0x00003c6c        0x4 Library/hal/adc_int.o
 .bss.channel_index
                0x00003c70        0x4 Library/hal/adc_int.o
 .bss.number_of_samples
                0x00003c74        0x4 Library/hal/adc_int.o
 .bss.oversampling
                0x00003c78        0x4 Library/hal/adc_int.o
 .bss.oversampling_divider
                0x00003c7c        0x4 Library/hal/adc_int.o
 .bss.adc_buffer
                0x00003c80     0x4000 Library/hal/ads1274.o
 .bss.sampleCounter
                0x00007c80        0x4 Library/hal/ads1274.o
 .bss.interrupt_counter
                0x00007c84        0x4 Library/hal/ads1274.o
 .bss.function_generator
                0x00007c88        0x4 Library/hal/ads1274.o
 .bss.acc_outputs
                0x00007c8c        0xc Library/hal/adxl345_driver.o
 .bss.gyro_event
                0x00007c98       0x34 Library/hal/adxl345_driver.o
 .bss.compass_outputs
                0x00007ccc        0xc Library/hal/compass_hmc5883l.o
 .bss.buffer    0x00007cd8        0x4 Library/hal/dac_dma.o
 .bss.from      0x00007cdc        0x2 Library/hal/dac_dma.o
 .bss.to        0x00007cde        0x2 Library/hal/dac_dma.o
 .bss.autoplay  0x00007ce0        0x4 Library/hal/dac_dma.o
 .bss.schedule  0x00007ce4      0x320 Library/hal/i2c_driver.o
 .bss.current_schedule_slot
                0x00008004        0x4 Library/hal/i2c_driver.o
 .bss.gyro_outputs
                0x00008008        0x8 Library/hal/itg3200_driver.o
 .bss.gyro_event
                0x00008010       0x34 Library/hal/itg3200_driver.o
 .bss.spi_buffers
                0x00008044       0xa8 Library/hal/spi_buffered.o
 .bss.ubx_currentMessage
                0x000080ec        0x4 Library/sensing/gps_ublox.o
                0x000080ec                ubx_currentMessage
 .bss.ubx_lastMessage
                0x000080f0        0x4 Library/sensing/gps_ublox.o
                0x000080f0                ubx_lastMessage
 .bss.ubx_validMessage
                0x000080f4        0x4 Library/sensing/gps_ublox.o
                0x000080f4                ubx_validMessage
 .bss.ubx_numberOfValidPosllhMessage
                0x000080f8        0x2 Library/sensing/gps_ublox.o
                0x000080f8                ubx_numberOfValidPosllhMessage
 .bss.ubx_numberOfValidStatusMessage
                0x000080fa        0x2 Library/sensing/gps_ublox.o
                0x000080fa                ubx_numberOfValidStatusMessage
 .bss.ubx_numberOfValidSolutionMessage
                0x000080fc        0x2 Library/sensing/gps_ublox.o
                0x000080fc                ubx_numberOfValidSolutionMessage
 .bss.ubx_numberOfValidVelnedMessage
                0x000080fe        0x2 Library/sensing/gps_ublox.o
                0x000080fe                ubx_numberOfValidVelnedMessage
 .bss.ubx_numberOfValidSVInfoMessage
                0x00008100        0x2 Library/sensing/gps_ublox.o
                0x00008100                ubx_numberOfValidSVInfoMessage
 .bss.ubx_numberOfValidNavSettingsMessage
                0x00008102        0x2 Library/sensing/gps_ublox.o
                0x00008102                ubx_numberOfValidNavSettingsMessage
 .bss.ubx_numberOfValidCFGRateMessage
                0x00008104        0x2 Library/sensing/gps_ublox.o
                0x00008104                ubx_numberOfValidCFGRateMessage
 .bss.ubx_numberOfValidCFGSetGetRateMessage
                0x00008106        0x2 Library/sensing/gps_ublox.o
                0x00008106                ubx_numberOfValidCFGSetGetRateMessage
 .bss.ubx_numberOfValidMONRXRMessage
                0x00008108        0x2 Library/sensing/gps_ublox.o
                0x00008108                ubx_numberOfValidMONRXRMessage
 .bss.ubx_numberOfValidTimTPMessage
                0x0000810a        0x2 Library/sensing/gps_ublox.o
                0x0000810a                ubx_numberOfValidTimTPMessage
 .bss.ubx_numberOfValidTimVRFYMessage
                0x0000810c        0x2 Library/sensing/gps_ublox.o
                0x0000810c                ubx_numberOfValidTimVRFYMessage
 .bss.printNavOnDebug
                0x0000810e        0x1 Library/sensing/gps_ublox.o
                0x0000810e                printNavOnDebug
 .bss.loopPosllh
                0x0000810f        0x1 Library/sensing/gps_ublox.o
                0x0000810f                loopPosllh
 .bss.loopVelned
                0x00008110        0x1 Library/sensing/gps_ublox.o
                0x00008110                loopVelned
 .bss.loopStatus
                0x00008111        0x1 Library/sensing/gps_ublox.o
                0x00008111                loopStatus
 .bss.loopSolution
                0x00008112        0x1 Library/sensing/gps_ublox.o
                0x00008112                loopSolution
 .bss.loopTimTp
                0x00008113        0x1 Library/sensing/gps_ublox.o
                0x00008113                loopTimTp
 .bss.loopTimVrfy
                0x00008114        0x1 Library/sensing/gps_ublox.o
                0x00008114                loopTimVrfy
 *fill*         0x00008115        0x3 
 .bss.int_loop_count
                0x00008118        0x4 Library/sensing/mavlink_waypoint_handler.o
                0x00008118                int_loop_count
 .bss.m_mavlink_status.14338
                0x0000811c       0x40 Library/sensing/mavlink_waypoint_handler.o
 .bss.flashc_error_status
                0x0000815c        0x4 src/asf/avr32/drivers/flashc/flashc.o
 .bss._int_line_handler_table_0
                0x00008160        0x4 src/asf/avr32/drivers/intc/intc.o
 .bss._int_line_handler_table_1
                0x00008164        0x8 src/asf/avr32/drivers/intc/intc.o
 .bss._int_line_handler_table_2
                0x0000816c        0x4 src/asf/avr32/drivers/intc/intc.o
 .bss._int_line_handler_table_3
                0x00008170       0x10 src/asf/avr32/drivers/intc/intc.o
 .bss._int_line_handler_table_4
                0x00008180       0x10 src/asf/avr32/drivers/intc/intc.o
 .bss._int_line_handler_table_5
                0x00008190       0x10 src/asf/avr32/drivers/intc/intc.o
 .bss._int_line_handler_table_6
                0x000081a0       0x10 src/asf/avr32/drivers/intc/intc.o
 .bss._int_line_handler_table_7
                0x000081b0        0x4 src/asf/avr32/drivers/intc/intc.o
 .bss._int_line_handler_table_8
                0x000081b4        0x4 src/asf/avr32/drivers/intc/intc.o
 .bss._int_line_handler_table_9
                0x000081b8       0x28 src/asf/avr32/drivers/intc/intc.o
 .bss._int_line_handler_table_10
                0x000081e0        0x4 src/asf/avr32/drivers/intc/intc.o
 .bss._int_line_handler_table_11
                0x000081e4        0x4 src/asf/avr32/drivers/intc/intc.o
 .bss._int_line_handler_table_12
                0x000081e8        0x4 src/asf/avr32/drivers/intc/intc.o
 .bss._int_line_handler_table_13
                0x000081ec        0x4 src/asf/avr32/drivers/intc/intc.o
 .bss._int_line_handler_table_14
                0x000081f0       0x14 src/asf/avr32/drivers/intc/intc.o
 .bss._int_line_handler_table_15
                0x00008204       0x10 src/asf/avr32/drivers/intc/intc.o
 .bss._int_line_handler_table_16
                0x00008214       0x10 src/asf/avr32/drivers/intc/intc.o
 .bss._int_line_handler_table_17
                0x00008224        0x4 src/asf/avr32/drivers/intc/intc.o
 .bss._int_line_handler_table_18
                0x00008228       0x40 src/asf/avr32/drivers/intc/intc.o
 .bss._int_line_handler_table_19
                0x00008268        0x4 src/asf/avr32/drivers/intc/intc.o
 .bss._int_line_handler_table_20
                0x0000826c        0x4 src/asf/avr32/drivers/intc/intc.o
 .bss._int_line_handler_table_21
                0x00008270        0x4 src/asf/avr32/drivers/intc/intc.o
 .bss._int_line_handler_table_22
                0x00008274        0x4 src/asf/avr32/drivers/intc/intc.o
 .bss._int_line_handler_table_23
                0x00008278        0x4 src/asf/avr32/drivers/intc/intc.o
 .bss._int_line_handler_table_24
                0x0000827c        0x4 src/asf/avr32/drivers/intc/intc.o
 .bss._int_line_handler_table_25
                0x00008280        0x4 src/asf/avr32/drivers/intc/intc.o
 .bss._int_line_handler_table_26
                0x00008284        0x4 src/asf/avr32/drivers/intc/intc.o
 .bss._int_line_handler_table_27
                0x00008288        0x4 src/asf/avr32/drivers/intc/intc.o
 .bss._int_line_handler_table_28
                0x0000828c        0x4 src/asf/avr32/drivers/intc/intc.o
 .bss._int_line_handler_table_29
                0x00008290        0x4 src/asf/avr32/drivers/intc/intc.o
 .bss._int_line_handler_table_30
                0x00008294        0x4 src/asf/avr32/drivers/intc/intc.o
 .bss._int_line_handler_table_31
                0x00008298        0x4 src/asf/avr32/drivers/intc/intc.o
 .bss._int_line_handler_table_32
                0x0000829c        0x4 src/asf/avr32/drivers/intc/intc.o
 .bss._int_line_handler_table_33
                0x000082a0        0xc src/asf/avr32/drivers/intc/intc.o
 .bss._int_line_handler_table_34
                0x000082ac        0xc src/asf/avr32/drivers/intc/intc.o
 .bss._int_line_handler_table_35
                0x000082b8        0x8 src/asf/avr32/drivers/intc/intc.o
 .bss._int_line_handler_table_36
                0x000082c0       0x18 src/asf/avr32/drivers/intc/intc.o
 .bss._int_line_handler_table_37
                0x000082d8        0x4 src/asf/avr32/drivers/intc/intc.o
 .bss._int_line_handler_table_38
                0x000082dc        0x4 src/asf/avr32/drivers/intc/intc.o
 .bss._int_line_handler_table_39
                0x000082e0       0x18 src/asf/avr32/drivers/intc/intc.o
 .bss._int_line_handler_table_40
                0x000082f8       0x18 src/asf/avr32/drivers/intc/intc.o
 .bss._int_line_handler_table_41
                0x00008310        0x4 src/asf/avr32/drivers/intc/intc.o
 .bss._int_line_handler_table_42
                0x00008314        0x4 src/asf/avr32/drivers/intc/intc.o
 .bss._int_line_handler_table_43
                0x00008318        0x4 src/asf/avr32/drivers/intc/intc.o
 .bss._int_line_handler_table_44
                0x0000831c        0x4 src/asf/avr32/drivers/intc/intc.o
 .bss._int_line_handler_table_45
                0x00008320        0x4 src/asf/avr32/drivers/intc/intc.o
 .bss._int_line_handler_table_46
                0x00008324        0x4 src/asf/avr32/drivers/intc/intc.o
 .bss.twim_inst
                0x00008328        0x4 src/asf/avr32/drivers/twim/twim.o
 .bss.twim_tx_data
                0x0000832c        0x4 src/asf/avr32/drivers/twim/twim.o
 .bss.twim_rx_data
                0x00008330        0x4 src/asf/avr32/drivers/twim/twim.o
 .bss.transfer_status
                0x00008334        0x4 src/asf/avr32/drivers/twim/twim.o
 .bss.twim_tx_nb_bytes
                0x00008338        0x4 src/asf/avr32/drivers/twim/twim.o
 .bss.twim_rx_nb_bytes
                0x0000833c        0x4 src/asf/avr32/drivers/twim/twim.o
 .bss.twim_it_mask
                0x00008340        0x4 src/asf/avr32/drivers/twim/twim.o
 .bss.twim_package
                0x00008344        0x4 src/asf/avr32/drivers/twim/twim.o
 .bss.twim_next
                0x00008348        0x1 src/asf/avr32/drivers/twim/twim.o
 *fill*         0x00008349        0x3 
 .bss.s_fcpu_hz
                0x0000834c        0x4 src/asf/avr32/services/delay/delay.o
 *(COMMON)
 COMMON         0x00008350       0x92 Library/control/neighbor_selection.o
                0x00008350                payload_length
                0x00008352                ubxclass
                0x00008354                waypoint_request_number
                0x00008358                start_timeout
                0x0000835c                new_position
                0x00008360                idleTimer
                0x00008364                last_ground_speed_cm
                0x00008368                msg_id
                0x00008369                next_fix
                0x0000836a                imu_last_update_init
                0x0000836c                engine_nav_setting
                0x00008370                velocity_east
                0x00008374                fix_count
                0x00008375                filter_init_delta_t
                0x00008378                prev_time
                0x0000837c                cksum_a
                0x00008380                idleTimeout
                0x00008384                last_fix_time
                0x00008388                mavlink_system
                0x00008390                sending_wp_num
                0x00008394                timeout_max_wp
                0x00008398                mavlink_mission_planner
                0x000083a0                velocity_down
                0x000083a4                disable_counter
                0x000083a8                centralData
                0x000083ac                fix
                0x000083ad                cksum_b
                0x000083ae                payload_counter
                0x000083b0                step
                0x000083b1                have_raw_velocity
                0x000083b2                new_speed
                0x000083b4                nav_settings
                0x000083d8                nvram_array
                0x000083dc                velocity_north
                0x000083e0                num_waypoint_onboard
 *fill*         0x000083e2        0x2 
 COMMON         0x000083e4        0x8 Library/control/orca.o
                0x000083e4                timeHorizon
                0x000083e8                invTimeHorizon
 COMMON         0x000083ec       0x50 Library/hal/analog_monitor.o
                0x000083ec                monitor_buffer
 COMMON         0x0000843c      0x278 Library/sensing/estimator.o
                0x0000843c                Q2
                0x00008484                Q
                0x000084cc                P2
                0x000085a4                baro
                0x000085a8                R
                0x000085c0                R2
                0x000085d8                P
                0x000086b0                timeLastGpsMsgEstimator
 COMMON         0x000086b4        0x4 Library/sensing/qfilter.o
                0x000086b4                front_mag_vect_z
 COMMON         0x000086b8       0x20 Library/communication/ishtar_stream.o
                0x000086b8                deb_stream
                0x000086bc                outbound_stream
                0x000086c0                inbound_stream
 COMMON         0x000086d8      0xd2c Library/communication/onboard_parameters.o
                0x000086d8                param_set
 COMMON         0x00009404        0x4 Library/control/navigation.o
                0x00009404                alt_integrator
 COMMON         0x00009408       0x60 Library/hal/adc_int.o
                0x00009408                adci_buffer
                0x0000940c                continuous_mode
                0x0000940d                even_odd
                0x0000940e                adcifa_sequencer0_conversion_opt
                0x00009428                internal_buffer
 COMMON         0x00009468        0xc Library/hal/ads1274.o
                0x00009468                eic_options
                0x00009470                gcfg
 COMMON         0x00009474       0x4e Library/hal/bmp085.o
                0x00009474                b2
                0x00009476                mb
                0x00009478                ac1
                0x0000947a                b1
                0x0000947c                ac6
                0x0000947e                ac5
                0x00009480                ac2
                0x00009482                md
                0x00009484                ac4
                0x00009486                mc
                0x00009488                pressure_outputs
                0x000094c0                ac3
 *fill*         0x000094c2        0x2 
 COMMON         0x000094c4        0xc Library/hal/radar_module_driver.o
                0x000094c4                main_target
 COMMON         0x000094d0      0x288 Library/hal/remote_dsm2.o
                0x000094d0                spRec2
                0x00009604                channelCenter
                0x00009624                spRec1
 COMMON         0x00009758      0x33e Library/sensing/gps_ublox.o
                0x00009758                ubx_TimTPMessage
                0x00009778                ubx_statusMessage
                0x00009798                ubx_NavSettingsMessage
                0x000097e0                ubx_posllhMessage
                0x00009818                ubx_CFGSetGetRateMessage
                0x00009820                ubx_solutionMessage
                0x00009888                ubx_CFGRateMessage
                0x00009894                ubx_velnedMessage
                0x000098dc                ubx_TimVRFYMessage
                0x00009904                ubx_svInfoMessage
                0x00009a94                ubx_MONRXRMessage
 *fill*         0x00009a96        0x2 
 COMMON         0x00009a98        0x7 src/asf/common/services/sleepmgr/uc3/sleepmgr.o
                0x00009a98                sleepmgr_locks
                0x00009aa0                . = ALIGN (0x8)
 *fill*         0x00009a9f        0x1 
                0x00009aa0                . = ALIGN (0x8)
                0x00009aa0                _end = .
                0x00009aa0                PROVIDE (end, .)
                0x00009aa0                __heap_start__ = ALIGN (0x8)
                0x0000f000                . = ((ORIGIN (CPUSRAM) + 0xfffc) - _stack_size)
                0x0000f000                __heap_end__ = .

.stab
 *(.stab)

.stabstr
 *(.stabstr)

.stab.excl
 *(.stab.excl)

.stab.exclstr
 *(.stab.exclstr)

.stab.index
 *(.stab.index)

.stab.indexstr
 *(.stab.indexstr)

.comment        0x00000000       0x30
 *(.comment)
 .comment       0x00000000       0x30 Library/control/neighbor_selection.o
                                 0x31 (size before relaxing)
 .comment       0x00000000       0x31 Library/control/orca.o
 .comment       0x00000000       0x31 Library/control/pid_control.o
 .comment       0x00000000       0x31 Library/control/stabilisation_copter.o
 .comment       0x00000000       0x31 Library/hal/analog_monitor.o
 .comment       0x00000000       0x31 Library/hal/time_keeper.o
 .comment       0x00000000       0x31 Library/sensing/estimator.o
 .comment       0x00000000       0x31 Library/sensing/position_estimation.o
 .comment       0x00000000       0x31 Library/sensing/qfilter.o
 .comment       0x00000000       0x31 src/central_data.o
 .comment       0x00000000       0x31 src/mavlink_actions.o
 .comment       0x00000000       0x31 src/tasks.o
 .comment       0x00000000       0x31 Library/communication/ishtar_stream.o
 .comment       0x00000000       0x31 Library/communication/mavlink_stream.o
 .comment       0x00000000       0x31 Library/communication/onboard_parameters.o
 .comment       0x00000000       0x31 Library/control/navigation.o
 .comment       0x00000000       0x31 Library/control/stabilisation.o
 .comment       0x00000000       0x31 Library/hal/adc_int.o
 .comment       0x00000000       0x31 Library/hal/ads1274.o
 .comment       0x00000000       0x31 Library/hal/adxl345_driver.o
 .comment       0x00000000       0x31 Library/hal/bmp085.o
 .comment       0x00000000       0x31 Library/hal/compass_hmc5883l.o
 .comment       0x00000000       0x31 Library/hal/dac_dma.o
 .comment       0x00000000       0x31 Library/hal/i2c_driver.o
 .comment       0x00000000       0x31 Library/hal/itg3200_driver.o
 .comment       0x00000000       0x31 Library/hal/led.o
 .comment       0x00000000       0x31 Library/hal/radar_module_driver.o
 .comment       0x00000000       0x31 Library/hal/servo_pwm.o
 .comment       0x00000000       0x31 Library/hal/remote_dsm2.o
 .comment       0x00000000       0x31 Library/hal/spi_buffered.o
 .comment       0x00000000       0x31 Library/hal/uart_int.o
 .comment       0x00000000       0x31 Library/runtime/scheduler.o
 .comment       0x00000000       0x31 Library/sensing/gps_ublox.o
 .comment       0x00000000       0x31 Library/sensing/imu.o
 .comment       0x00000000       0x31 Library/sensing/simulation.o
 .comment       0x00000000       0x31 Library/sensing/mavlink_waypoint_handler.o
 .comment       0x00000000       0x31 Library/util/buffer.o
 .comment       0x00000000       0x31 Library/util/coord_conventions.o
 .comment       0x00000000       0x31 Library/util/print_util.o
 .comment       0x00000000       0x31 src/asf/avr32/drivers/adcifa/adcifa.o
 .comment       0x00000000       0x31 src/asf/avr32/drivers/ast/ast.o
 .comment       0x00000000       0x31 src/asf/avr32/drivers/dacifb/dacifb.o
 .comment       0x00000000       0x31 src/asf/avr32/drivers/eic/eic.o
 .comment       0x00000000       0x31 src/asf/avr32/drivers/flashc/flashc.o
 .comment       0x00000000       0x31 src/asf/avr32/drivers/gpio/gpio.o
 .comment       0x00000000       0x31 src/asf/avr32/drivers/intc/intc.o
 .comment       0x00000000       0x31 src/asf/avr32/drivers/pdca/pdca.o
 .comment       0x00000000       0x31 src/asf/avr32/drivers/pevc/pevc.o
 .comment       0x00000000       0x31 src/asf/avr32/drivers/scif/scif_uc3c.o
 .comment       0x00000000       0x31 src/asf/avr32/drivers/spi/spi.o
 .comment       0x00000000       0x31 src/asf/avr32/drivers/twim/twim.o
 .comment       0x00000000       0x31 src/asf/avr32/drivers/usart/usart.o
 .comment       0x00000000       0x31 src/asf/avr32/services/delay/delay.o
 .comment       0x00000000       0x31 src/asf/common/boards/user_board/init.o
 .comment       0x00000000       0x31 src/asf/common/services/clock/uc3c/osc.o
 .comment       0x00000000       0x31 src/asf/common/services/clock/uc3c/pll.o
 .comment       0x00000000       0x31 src/asf/common/services/clock/uc3c/sysclk.o
 .comment       0x00000000       0x31 src/asf/common/services/sleepmgr/uc3/sleepmgr.o
 .comment       0x00000000       0x31 src/asf/common/services/spi/uc3_spi/spi_master.o
 .comment       0x00000000       0x31 src/boardsupport.o
 .comment       0x00000000       0x31 src/main.o
 .comment       0x00000000       0x31 c:/program files/atmel/atmel toolchain/avr32 gcc/native/3.4.2.1002/avr32-gnu-toolchain/bin/../lib/gcc/avr32/4.4.7/../../../../avr32/lib/ucr3fp\libm.a(lib_a-s_cos.o)
 .comment       0x00000000       0x31 c:/program files/atmel/atmel toolchain/avr32 gcc/native/3.4.2.1002/avr32-gnu-toolchain/bin/../lib/gcc/avr32/4.4.7/../../../../avr32/lib/ucr3fp\libm.a(lib_a-s_sin.o)
 .comment       0x00000000       0x31 c:/program files/atmel/atmel toolchain/avr32 gcc/native/3.4.2.1002/avr32-gnu-toolchain/bin/../lib/gcc/avr32/4.4.7/../../../../avr32/lib/ucr3fp\libm.a(lib_a-w_asin.o)
 .comment       0x00000000       0x31 c:/program files/atmel/atmel toolchain/avr32 gcc/native/3.4.2.1002/avr32-gnu-toolchain/bin/../lib/gcc/avr32/4.4.7/../../../../avr32/lib/ucr3fp\libm.a(lib_a-w_atan2.o)
 .comment       0x00000000       0x31 c:/program files/atmel/atmel toolchain/avr32 gcc/native/3.4.2.1002/avr32-gnu-toolchain/bin/../lib/gcc/avr32/4.4.7/../../../../avr32/lib/ucr3fp\libm.a(lib_a-w_pow.o)
 .comment       0x00000000       0x31 c:/program files/atmel/atmel toolchain/avr32 gcc/native/3.4.2.1002/avr32-gnu-toolchain/bin/../lib/gcc/avr32/4.4.7/../../../../avr32/lib/ucr3fp\libm.a(lib_a-w_sqrt.o)
 .comment       0x00000000       0x31 c:/program files/atmel/atmel toolchain/avr32 gcc/native/3.4.2.1002/avr32-gnu-toolchain/bin/../lib/gcc/avr32/4.4.7/../../../../avr32/lib/ucr3fp\libm.a(lib_a-e_asin.o)
 .comment       0x00000000       0x31 c:/program files/atmel/atmel toolchain/avr32 gcc/native/3.4.2.1002/avr32-gnu-toolchain/bin/../lib/gcc/avr32/4.4.7/../../../../avr32/lib/ucr3fp\libm.a(lib_a-e_atan2.o)
 .comment       0x00000000       0x31 c:/program files/atmel/atmel toolchain/avr32 gcc/native/3.4.2.1002/avr32-gnu-toolchain/bin/../lib/gcc/avr32/4.4.7/../../../../avr32/lib/ucr3fp\libm.a(lib_a-e_pow.o)
 .comment       0x00000000       0x31 c:/program files/atmel/atmel toolchain/avr32 gcc/native/3.4.2.1002/avr32-gnu-toolchain/bin/../lib/gcc/avr32/4.4.7/../../../../avr32/lib/ucr3fp\libm.a(lib_a-e_rem_pio2.o)
 .comment       0x00000000       0x31 c:/program files/atmel/atmel toolchain/avr32 gcc/native/3.4.2.1002/avr32-gnu-toolchain/bin/../lib/gcc/avr32/4.4.7/../../../../avr32/lib/ucr3fp\libm.a(lib_a-e_sqrt.o)
 .comment       0x00000000       0x31 c:/program files/atmel/atmel toolchain/avr32 gcc/native/3.4.2.1002/avr32-gnu-toolchain/bin/../lib/gcc/avr32/4.4.7/../../../../avr32/lib/ucr3fp\libm.a(lib_a-k_cos.o)
 .comment       0x00000000       0x31 c:/program files/atmel/atmel toolchain/avr32 gcc/native/3.4.2.1002/avr32-gnu-toolchain/bin/../lib/gcc/avr32/4.4.7/../../../../avr32/lib/ucr3fp\libm.a(lib_a-k_rem_pio2.o)
 .comment       0x00000000       0x31 c:/program files/atmel/atmel toolchain/avr32 gcc/native/3.4.2.1002/avr32-gnu-toolchain/bin/../lib/gcc/avr32/4.4.7/../../../../avr32/lib/ucr3fp\libm.a(lib_a-k_sin.o)
 .comment       0x00000000       0x31 c:/program files/atmel/atmel toolchain/avr32 gcc/native/3.4.2.1002/avr32-gnu-toolchain/bin/../lib/gcc/avr32/4.4.7/../../../../avr32/lib/ucr3fp\libm.a(lib_a-s_atan.o)
 .comment       0x00000000       0x31 c:/program files/atmel/atmel toolchain/avr32 gcc/native/3.4.2.1002/avr32-gnu-toolchain/bin/../lib/gcc/avr32/4.4.7/../../../../avr32/lib/ucr3fp\libm.a(lib_a-s_fabs.o)
 .comment       0x00000000       0x31 c:/program files/atmel/atmel toolchain/avr32 gcc/native/3.4.2.1002/avr32-gnu-toolchain/bin/../lib/gcc/avr32/4.4.7/../../../../avr32/lib/ucr3fp\libm.a(lib_a-s_finite.o)
 .comment       0x00000000       0x31 c:/program files/atmel/atmel toolchain/avr32 gcc/native/3.4.2.1002/avr32-gnu-toolchain/bin/../lib/gcc/avr32/4.4.7/../../../../avr32/lib/ucr3fp\libm.a(lib_a-s_floor.o)
 .comment       0x00000000       0x31 c:/program files/atmel/atmel toolchain/avr32 gcc/native/3.4.2.1002/avr32-gnu-toolchain/bin/../lib/gcc/avr32/4.4.7/../../../../avr32/lib/ucr3fp\libm.a(lib_a-s_isnand.o)
 .comment       0x00000000       0x31 c:/program files/atmel/atmel toolchain/avr32 gcc/native/3.4.2.1002/avr32-gnu-toolchain/bin/../lib/gcc/avr32/4.4.7/../../../../avr32/lib/ucr3fp\libm.a(lib_a-s_lib_ver.o)
 .comment       0x00000000       0x31 c:/program files/atmel/atmel toolchain/avr32 gcc/native/3.4.2.1002/avr32-gnu-toolchain/bin/../lib/gcc/avr32/4.4.7/../../../../avr32/lib/ucr3fp\libm.a(lib_a-s_matherr.o)
 .comment       0x00000000       0x31 c:/program files/atmel/atmel toolchain/avr32 gcc/native/3.4.2.1002/avr32-gnu-toolchain/bin/../lib/gcc/avr32/4.4.7/../../../../avr32/lib/ucr3fp\libm.a(lib_a-s_nan.o)
 .comment       0x00000000       0x31 c:/program files/atmel/atmel toolchain/avr32 gcc/native/3.4.2.1002/avr32-gnu-toolchain/bin/../lib/gcc/avr32/4.4.7/../../../../avr32/lib/ucr3fp\libm.a(lib_a-s_rint.o)
 .comment       0x00000000       0x31 c:/program files/atmel/atmel toolchain/avr32 gcc/native/3.4.2.1002/avr32-gnu-toolchain/bin/../lib/gcc/avr32/4.4.7/../../../../avr32/lib/ucr3fp\libm.a(lib_a-s_scalbn.o)
 .comment       0x00000000       0x31 c:/program files/atmel/atmel toolchain/avr32 gcc/native/3.4.2.1002/avr32-gnu-toolchain/bin/../lib/gcc/avr32/4.4.7/../../../../avr32/lib/ucr3fp\libm.a(lib_a-s_copysign.o)
 .comment       0x00000000       0x31 c:/program files/atmel/atmel toolchain/avr32 gcc/native/3.4.2.1002/avr32-gnu-toolchain/bin/../lib/gcc/avr32/4.4.7/ucr3fp\libgcc.a(_udivdi3.o)
 .comment       0x00000000       0x31 c:/program files/atmel/atmel toolchain/avr32 gcc/native/3.4.2.1002/avr32-gnu-toolchain/bin/../lib/gcc/avr32/4.4.7/../../../../avr32/lib/ucr3fp\libc.a(lib_a-errno.o)
 .comment       0x00000000       0x31 c:/program files/atmel/atmel toolchain/avr32 gcc/native/3.4.2.1002/avr32-gnu-toolchain/bin/../lib/gcc/avr32/4.4.7/../../../../avr32/lib/ucr3fp\libc.a(lib_a-impure.o)
 .comment       0x00000000       0x31 c:/program files/atmel/atmel toolchain/avr32 gcc/native/3.4.2.1002/avr32-gnu-toolchain/bin/../lib/gcc/avr32/4.4.7/../../../../avr32/lib/ucr3fp\libc.a(lib_a-memset.o)
 .comment       0x00000000       0x31 c:/program files/atmel/atmel toolchain/avr32 gcc/native/3.4.2.1002/avr32-gnu-toolchain/bin/../lib/gcc/avr32/4.4.7/../../../../avr32/lib/ucr3fp\libc.a(lib_a-strcpy.o)
 .comment       0x00000000       0x31 c:/program files/atmel/atmel toolchain/avr32 gcc/native/3.4.2.1002/avr32-gnu-toolchain/bin/../lib/gcc/avr32/4.4.7/../../../../avr32/lib/ucr3fp\libc.a(lib_a-strlen.o)
 .comment       0x00000000       0x31 c:/program files/atmel/atmel toolchain/avr32 gcc/native/3.4.2.1002/avr32-gnu-toolchain/bin/../lib/gcc/avr32/4.4.7/../../../../avr32/lib/ucr3fp\libc.a(lib_a-findfp.o)

.debug
 *(.debug)

.line
 *(.line)

.debug_srcinfo
 *(.debug_srcinfo)

.debug_sfnames
 *(.debug_sfnames)

.debug_aranges  0x00000000      0xc08
 *(.debug_aranges)
 .debug_aranges
                0x00000000       0x20 Library/control/neighbor_selection.o
 .debug_aranges
                0x00000020       0x20 Library/control/orca.o
 .debug_aranges
                0x00000040       0x20 Library/control/pid_control.o
 .debug_aranges
                0x00000060       0x20 Library/control/stabilisation_copter.o
 .debug_aranges
                0x00000080       0x20 Library/hal/analog_monitor.o
 .debug_aranges
                0x000000a0       0x20 Library/hal/time_keeper.o
 .debug_aranges
                0x000000c0       0x20 Library/sensing/estimator.o
 .debug_aranges
                0x000000e0       0x20 Library/sensing/position_estimation.o
 .debug_aranges
                0x00000100       0x20 Library/sensing/qfilter.o
 .debug_aranges
                0x00000120       0x20 src/central_data.o
 .debug_aranges
                0x00000140       0x20 src/mavlink_actions.o
 .debug_aranges
                0x00000160       0x20 src/tasks.o
 .debug_aranges
                0x00000180       0x20 Library/communication/ishtar_stream.o
 .debug_aranges
                0x000001a0       0x20 Library/communication/mavlink_stream.o
 .debug_aranges
                0x000001c0       0x20 Library/communication/onboard_parameters.o
 .debug_aranges
                0x000001e0       0x20 Library/control/navigation.o
 .debug_aranges
                0x00000200       0x20 Library/control/stabilisation.o
 .debug_aranges
                0x00000220       0x20 Library/hal/adc_int.o
 .debug_aranges
                0x00000240       0x20 Library/hal/ads1274.o
 .debug_aranges
                0x00000260       0x20 Library/hal/adxl345_driver.o
 .debug_aranges
                0x00000280       0x20 Library/hal/bmp085.o
 .debug_aranges
                0x000002a0       0x20 Library/hal/compass_hmc5883l.o
 .debug_aranges
                0x000002c0       0x20 Library/hal/dac_dma.o
 .debug_aranges
                0x000002e0       0x20 Library/hal/i2c_driver.o
 .debug_aranges
                0x00000300       0x20 Library/hal/itg3200_driver.o
 .debug_aranges
                0x00000320       0x20 Library/hal/led.o
 .debug_aranges
                0x00000340       0x20 Library/hal/radar_module_driver.o
 .debug_aranges
                0x00000360       0x20 Library/hal/servo_pwm.o
 .debug_aranges
                0x00000380       0x20 Library/hal/remote_dsm2.o
 .debug_aranges
                0x000003a0       0x20 Library/hal/spi_buffered.o
 .debug_aranges
                0x000003c0       0x20 Library/hal/uart_int.o
 .debug_aranges
                0x000003e0       0x20 Library/runtime/scheduler.o
 .debug_aranges
                0x00000400       0x20 Library/sensing/gps_ublox.o
 .debug_aranges
                0x00000420       0x20 Library/sensing/imu.o
 .debug_aranges
                0x00000440       0x20 Library/sensing/simulation.o
 .debug_aranges
                0x00000460       0x20 Library/sensing/mavlink_waypoint_handler.o
 .debug_aranges
                0x00000480       0x20 Library/util/buffer.o
 .debug_aranges
                0x000004a0       0x20 Library/util/coord_conventions.o
 .debug_aranges
                0x000004c0       0x20 Library/util/print_util.o
 .debug_aranges
                0x000004e0       0x20 src/asf/avr32/drivers/adcifa/adcifa.o
 .debug_aranges
                0x00000500       0x20 src/asf/avr32/drivers/ast/ast.o
 .debug_aranges
                0x00000520       0x20 src/asf/avr32/drivers/dacifb/dacifb.o
 .debug_aranges
                0x00000540       0x20 src/asf/avr32/drivers/eic/eic.o
 .debug_aranges
                0x00000560       0x20 src/asf/avr32/drivers/flashc/flashc.o
 .debug_aranges
                0x00000580       0x20 src/asf/avr32/drivers/gpio/gpio.o
 .debug_aranges
                0x000005a0       0x20 src/asf/avr32/drivers/intc/exception.o
 .debug_aranges
                0x000005c0       0x20 src/asf/avr32/drivers/intc/intc.o
 .debug_aranges
                0x000005e0       0x20 src/asf/avr32/drivers/pdca/pdca.o
 .debug_aranges
                0x00000600       0x20 src/asf/avr32/drivers/pevc/pevc.o
 .debug_aranges
                0x00000620       0x20 src/asf/avr32/drivers/scif/scif_uc3c.o
 .debug_aranges
                0x00000640       0x20 src/asf/avr32/drivers/spi/spi.o
 .debug_aranges
                0x00000660       0x20 src/asf/avr32/drivers/twim/twim.o
 .debug_aranges
                0x00000680       0x20 src/asf/avr32/drivers/usart/usart.o
 .debug_aranges
                0x000006a0       0x20 src/asf/avr32/services/delay/delay.o
 .debug_aranges
                0x000006c0       0x28 src/asf/avr32/utils/startup/startup_uc3.o
 .debug_aranges
                0x000006e8       0x20 src/asf/avr32/utils/startup/trampoline_uc3.o
 .debug_aranges
                0x00000708       0x20 src/asf/common/boards/user_board/init.o
 .debug_aranges
                0x00000728       0x20 src/asf/common/services/clock/uc3c/osc.o
 .debug_aranges
                0x00000748       0x20 src/asf/common/services/clock/uc3c/pll.o
 .debug_aranges
                0x00000768       0x20 src/asf/common/services/clock/uc3c/sysclk.o
 .debug_aranges
                0x00000788       0x20 src/asf/common/services/spi/uc3_spi/spi_master.o
 .debug_aranges
                0x000007a8       0x20 src/boardsupport.o
 .debug_aranges
                0x000007c8       0x20 src/main.o
 .debug_aranges
                0x000007e8       0x20 c:/program files/atmel/atmel toolchain/avr32 gcc/native/3.4.2.1002/avr32-gnu-toolchain/bin/../lib/gcc/avr32/4.4.7/../../../../avr32/lib/ucr3fp\libm.a(lib_a-s_cos.o)
 .debug_aranges
                0x00000808       0x20 c:/program files/atmel/atmel toolchain/avr32 gcc/native/3.4.2.1002/avr32-gnu-toolchain/bin/../lib/gcc/avr32/4.4.7/../../../../avr32/lib/ucr3fp\libm.a(lib_a-s_sin.o)
 .debug_aranges
                0x00000828       0x20 c:/program files/atmel/atmel toolchain/avr32 gcc/native/3.4.2.1002/avr32-gnu-toolchain/bin/../lib/gcc/avr32/4.4.7/../../../../avr32/lib/ucr3fp\libm.a(lib_a-w_asin.o)
 .debug_aranges
                0x00000848       0x20 c:/program files/atmel/atmel toolchain/avr32 gcc/native/3.4.2.1002/avr32-gnu-toolchain/bin/../lib/gcc/avr32/4.4.7/../../../../avr32/lib/ucr3fp\libm.a(lib_a-w_atan2.o)
 .debug_aranges
                0x00000868       0x20 c:/program files/atmel/atmel toolchain/avr32 gcc/native/3.4.2.1002/avr32-gnu-toolchain/bin/../lib/gcc/avr32/4.4.7/../../../../avr32/lib/ucr3fp\libm.a(lib_a-w_pow.o)
 .debug_aranges
                0x00000888       0x20 c:/program files/atmel/atmel toolchain/avr32 gcc/native/3.4.2.1002/avr32-gnu-toolchain/bin/../lib/gcc/avr32/4.4.7/../../../../avr32/lib/ucr3fp\libm.a(lib_a-w_sqrt.o)
 .debug_aranges
                0x000008a8       0x20 c:/program files/atmel/atmel toolchain/avr32 gcc/native/3.4.2.1002/avr32-gnu-toolchain/bin/../lib/gcc/avr32/4.4.7/../../../../avr32/lib/ucr3fp\libm.a(lib_a-e_asin.o)
 .debug_aranges
                0x000008c8       0x20 c:/program files/atmel/atmel toolchain/avr32 gcc/native/3.4.2.1002/avr32-gnu-toolchain/bin/../lib/gcc/avr32/4.4.7/../../../../avr32/lib/ucr3fp\libm.a(lib_a-e_atan2.o)
 .debug_aranges
                0x000008e8       0x20 c:/program files/atmel/atmel toolchain/avr32 gcc/native/3.4.2.1002/avr32-gnu-toolchain/bin/../lib/gcc/avr32/4.4.7/../../../../avr32/lib/ucr3fp\libm.a(lib_a-e_pow.o)
 .debug_aranges
                0x00000908       0x20 c:/program files/atmel/atmel toolchain/avr32 gcc/native/3.4.2.1002/avr32-gnu-toolchain/bin/../lib/gcc/avr32/4.4.7/../../../../avr32/lib/ucr3fp\libm.a(lib_a-e_rem_pio2.o)
 .debug_aranges
                0x00000928       0x20 c:/program files/atmel/atmel toolchain/avr32 gcc/native/3.4.2.1002/avr32-gnu-toolchain/bin/../lib/gcc/avr32/4.4.7/../../../../avr32/lib/ucr3fp\libm.a(lib_a-e_sqrt.o)
 .debug_aranges
                0x00000948       0x20 c:/program files/atmel/atmel toolchain/avr32 gcc/native/3.4.2.1002/avr32-gnu-toolchain/bin/../lib/gcc/avr32/4.4.7/../../../../avr32/lib/ucr3fp\libm.a(lib_a-k_cos.o)
 .debug_aranges
                0x00000968       0x20 c:/program files/atmel/atmel toolchain/avr32 gcc/native/3.4.2.1002/avr32-gnu-toolchain/bin/../lib/gcc/avr32/4.4.7/../../../../avr32/lib/ucr3fp\libm.a(lib_a-k_rem_pio2.o)
 .debug_aranges
                0x00000988       0x20 c:/program files/atmel/atmel toolchain/avr32 gcc/native/3.4.2.1002/avr32-gnu-toolchain/bin/../lib/gcc/avr32/4.4.7/../../../../avr32/lib/ucr3fp\libm.a(lib_a-k_sin.o)
 .debug_aranges
                0x000009a8       0x20 c:/program files/atmel/atmel toolchain/avr32 gcc/native/3.4.2.1002/avr32-gnu-toolchain/bin/../lib/gcc/avr32/4.4.7/../../../../avr32/lib/ucr3fp\libm.a(lib_a-s_atan.o)
 .debug_aranges
                0x000009c8       0x20 c:/program files/atmel/atmel toolchain/avr32 gcc/native/3.4.2.1002/avr32-gnu-toolchain/bin/../lib/gcc/avr32/4.4.7/../../../../avr32/lib/ucr3fp\libm.a(lib_a-s_fabs.o)
 .debug_aranges
                0x000009e8       0x20 c:/program files/atmel/atmel toolchain/avr32 gcc/native/3.4.2.1002/avr32-gnu-toolchain/bin/../lib/gcc/avr32/4.4.7/../../../../avr32/lib/ucr3fp\libm.a(lib_a-s_finite.o)
 .debug_aranges
                0x00000a08       0x20 c:/program files/atmel/atmel toolchain/avr32 gcc/native/3.4.2.1002/avr32-gnu-toolchain/bin/../lib/gcc/avr32/4.4.7/../../../../avr32/lib/ucr3fp\libm.a(lib_a-s_floor.o)
 .debug_aranges
                0x00000a28       0x20 c:/program files/atmel/atmel toolchain/avr32 gcc/native/3.4.2.1002/avr32-gnu-toolchain/bin/../lib/gcc/avr32/4.4.7/../../../../avr32/lib/ucr3fp\libm.a(lib_a-s_isnand.o)
 .debug_aranges
                0x00000a48       0x20 c:/program files/atmel/atmel toolchain/avr32 gcc/native/3.4.2.1002/avr32-gnu-toolchain/bin/../lib/gcc/avr32/4.4.7/../../../../avr32/lib/ucr3fp\libm.a(lib_a-s_matherr.o)
 .debug_aranges
                0x00000a68       0x20 c:/program files/atmel/atmel toolchain/avr32 gcc/native/3.4.2.1002/avr32-gnu-toolchain/bin/../lib/gcc/avr32/4.4.7/../../../../avr32/lib/ucr3fp\libm.a(lib_a-s_nan.o)
 .debug_aranges
                0x00000a88       0x20 c:/program files/atmel/atmel toolchain/avr32 gcc/native/3.4.2.1002/avr32-gnu-toolchain/bin/../lib/gcc/avr32/4.4.7/../../../../avr32/lib/ucr3fp\libm.a(lib_a-s_rint.o)
 .debug_aranges
                0x00000aa8       0x20 c:/program files/atmel/atmel toolchain/avr32 gcc/native/3.4.2.1002/avr32-gnu-toolchain/bin/../lib/gcc/avr32/4.4.7/../../../../avr32/lib/ucr3fp\libm.a(lib_a-s_scalbn.o)
 .debug_aranges
                0x00000ac8       0x20 c:/program files/atmel/atmel toolchain/avr32 gcc/native/3.4.2.1002/avr32-gnu-toolchain/bin/../lib/gcc/avr32/4.4.7/../../../../avr32/lib/ucr3fp\libm.a(lib_a-s_copysign.o)
 .debug_aranges
                0x00000ae8       0x20 c:/program files/atmel/atmel toolchain/avr32 gcc/native/3.4.2.1002/avr32-gnu-toolchain/bin/../lib/gcc/avr32/4.4.7/ucr3fp\libgcc.a(_udivdi3.o)
 .debug_aranges
                0x00000b08       0x20 c:/program files/atmel/atmel toolchain/avr32 gcc/native/3.4.2.1002/avr32-gnu-toolchain/bin/../lib/gcc/avr32/4.4.7/../../../../avr32/lib/ucr3fp\libc.a(lib_a-errno.o)
 .debug_aranges
                0x00000b28       0x20 c:/program files/atmel/atmel toolchain/avr32 gcc/native/3.4.2.1002/avr32-gnu-toolchain/bin/../lib/gcc/avr32/4.4.7/../../../../avr32/lib/ucr3fp\libc.a(lib_a-memset.o)
 .debug_aranges
                0x00000b48       0x20 c:/program files/atmel/atmel toolchain/avr32 gcc/native/3.4.2.1002/avr32-gnu-toolchain/bin/../lib/gcc/avr32/4.4.7/../../../../avr32/lib/ucr3fp\libc.a(lib_a-strcpy.o)
 .debug_aranges
                0x00000b68       0x20 c:/program files/atmel/atmel toolchain/avr32 gcc/native/3.4.2.1002/avr32-gnu-toolchain/bin/../lib/gcc/avr32/4.4.7/../../../../avr32/lib/ucr3fp\libc.a(lib_a-strlen.o)
 .debug_aranges
                0x00000b88       0x80 c:/program files/atmel/atmel toolchain/avr32 gcc/native/3.4.2.1002/avr32-gnu-toolchain/bin/../lib/gcc/avr32/4.4.7/../../../../avr32/lib/ucr3fp\libc.a(lib_a-findfp.o)

.debug_pubnames
                0x00000000     0x7a96
 *(.debug_pubnames)
 .debug_pubnames
                0x00000000      0x2b0 Library/control/neighbor_selection.o
 .debug_pubnames
                0x000002b0      0x329 Library/control/orca.o
 .debug_pubnames
                0x000005d9       0x93 Library/control/pid_control.o
 .debug_pubnames
                0x0000066c      0x2f5 Library/control/stabilisation_copter.o
 .debug_pubnames
                0x00000961       0xc7 Library/hal/analog_monitor.o
 .debug_pubnames
                0x00000a28       0x7a Library/hal/time_keeper.o
 .debug_pubnames
                0x00000aa2      0x3d4 Library/sensing/estimator.o
 .debug_pubnames
                0x00000e76      0x21c Library/sensing/position_estimation.o
 .debug_pubnames
                0x00001092       0x3e Library/sensing/qfilter.o
 .debug_pubnames
                0x000010d0      0x31c src/central_data.o
 .debug_pubnames
                0x000013ec      0x50d src/mavlink_actions.o
 .debug_pubnames
                0x000018f9      0x379 src/tasks.o
 .debug_pubnames
                0x00001c72      0x318 Library/communication/ishtar_stream.o
 .debug_pubnames
                0x00001f8a      0x376 Library/communication/mavlink_stream.o
 .debug_pubnames
                0x00002300      0x323 Library/communication/onboard_parameters.o
 .debug_pubnames
                0x00002623      0x309 Library/control/navigation.o
 .debug_pubnames
                0x0000292c      0x1ad Library/control/stabilisation.o
 .debug_pubnames
                0x00002ad9      0x181 Library/hal/adc_int.o
 .debug_pubnames
                0x00002c5a      0x153 Library/hal/ads1274.o
 .debug_pubnames
                0x00002dad       0x91 Library/hal/adxl345_driver.o
 .debug_pubnames
                0x00002e3e       0xe4 Library/hal/bmp085.o
 .debug_pubnames
                0x00002f22       0x42 Library/hal/compass_hmc5883l.o
 .debug_pubnames
                0x00002f64       0xde Library/hal/dac_dma.o
 .debug_pubnames
                0x00003042       0xb4 Library/hal/i2c_driver.o
 .debug_pubnames
                0x000030f6       0xa3 Library/hal/itg3200_driver.o
 .debug_pubnames
                0x00003199       0xf6 Library/hal/led.o
 .debug_pubnames
                0x0000328f       0x62 Library/hal/radar_module_driver.o
 .debug_pubnames
                0x000032f1       0x3f Library/hal/servo_pwm.o
 .debug_pubnames
                0x00003330      0x254 Library/hal/remote_dsm2.o
 .debug_pubnames
                0x00003584      0x1a7 Library/hal/spi_buffered.o
 .debug_pubnames
                0x0000372b       0xfc Library/hal/uart_int.o
 .debug_pubnames
                0x00003827       0xee Library/runtime/scheduler.o
 .debug_pubnames
                0x00003915      0xa6c Library/sensing/gps_ublox.o
 .debug_pubnames
                0x00004381      0x1eb Library/sensing/imu.o
 .debug_pubnames
                0x0000456c      0x300 Library/sensing/simulation.o
 .debug_pubnames
                0x0000486c      0x419 Library/sensing/mavlink_waypoint_handler.o
 .debug_pubnames
                0x00004c85       0xda Library/util/buffer.o
 .debug_pubnames
                0x00004d5f       0x69 Library/util/coord_conventions.o
 .debug_pubnames
                0x00004dc8      0x11c Library/util/print_util.o
 .debug_pubnames
                0x00004ee4      0x177 src/asf/avr32/drivers/adcifa/adcifa.o
 .debug_pubnames
                0x0000505b      0x1e0 src/asf/avr32/drivers/ast/ast.o
 .debug_pubnames
                0x0000523b       0xbf src/asf/avr32/drivers/dacifb/dacifb.o
 .debug_pubnames
                0x000052fa      0x186 src/asf/avr32/drivers/eic/eic.o
 .debug_pubnames
                0x00005480      0x79d src/asf/avr32/drivers/flashc/flashc.o
 .debug_pubnames
                0x00005c1d      0x3aa src/asf/avr32/drivers/gpio/gpio.o
 .debug_pubnames
                0x00005fc7       0x62 src/asf/avr32/drivers/intc/intc.o
 .debug_pubnames
                0x00006029      0x275 src/asf/avr32/drivers/pdca/pdca.o
 .debug_pubnames
                0x0000629e      0x2b6 src/asf/avr32/drivers/pevc/pevc.o
 .debug_pubnames
                0x00006554      0x3f6 src/asf/avr32/drivers/scif/scif_uc3c.o
 .debug_pubnames
                0x0000694a      0x178 src/asf/avr32/drivers/spi/spi.o
 .debug_pubnames
                0x00006ac2       0xd6 src/asf/avr32/drivers/twim/twim.o
 .debug_pubnames
                0x00006b98      0x227 src/asf/avr32/drivers/usart/usart.o
 .debug_pubnames
                0x00006dbf       0x2e src/asf/avr32/services/delay/delay.o
 .debug_pubnames
                0x00006ded       0x21 src/asf/common/boards/user_board/init.o
 .debug_pubnames
                0x00006e0e       0xe4 src/asf/common/services/clock/uc3c/osc.o
 .debug_pubnames
                0x00006ef2       0x46 src/asf/common/services/clock/uc3c/pll.o
 .debug_pubnames
                0x00006f38       0xbc src/asf/common/services/clock/uc3c/sysclk.o
 .debug_pubnames
                0x00006ff4       0x25 src/asf/common/services/sleepmgr/uc3/sleepmgr.o
 .debug_pubnames
                0x00007019       0x57 src/asf/common/services/spi/uc3_spi/spi_master.o
 .debug_pubnames
                0x00007070      0x286 src/boardsupport.o
 .debug_pubnames
                0x000072f6      0x2ab src/main.o
 .debug_pubnames
                0x000075a1       0x1a c:/program files/atmel/atmel toolchain/avr32 gcc/native/3.4.2.1002/avr32-gnu-toolchain/bin/../lib/gcc/avr32/4.4.7/../../../../avr32/lib/ucr3fp\libm.a(lib_a-s_cos.o)
 .debug_pubnames
                0x000075bb       0x1a c:/program files/atmel/atmel toolchain/avr32 gcc/native/3.4.2.1002/avr32-gnu-toolchain/bin/../lib/gcc/avr32/4.4.7/../../../../avr32/lib/ucr3fp\libm.a(lib_a-s_sin.o)
 .debug_pubnames
                0x000075d5       0x1b c:/program files/atmel/atmel toolchain/avr32 gcc/native/3.4.2.1002/avr32-gnu-toolchain/bin/../lib/gcc/avr32/4.4.7/../../../../avr32/lib/ucr3fp\libm.a(lib_a-w_asin.o)
 .debug_pubnames
                0x000075f0       0x1c c:/program files/atmel/atmel toolchain/avr32 gcc/native/3.4.2.1002/avr32-gnu-toolchain/bin/../lib/gcc/avr32/4.4.7/../../../../avr32/lib/ucr3fp\libm.a(lib_a-w_atan2.o)
 .debug_pubnames
                0x0000760c       0x1a c:/program files/atmel/atmel toolchain/avr32 gcc/native/3.4.2.1002/avr32-gnu-toolchain/bin/../lib/gcc/avr32/4.4.7/../../../../avr32/lib/ucr3fp\libm.a(lib_a-w_pow.o)
 .debug_pubnames
                0x00007626       0x1b c:/program files/atmel/atmel toolchain/avr32 gcc/native/3.4.2.1002/avr32-gnu-toolchain/bin/../lib/gcc/avr32/4.4.7/../../../../avr32/lib/ucr3fp\libm.a(lib_a-w_sqrt.o)
 .debug_pubnames
                0x00007641       0x25 c:/program files/atmel/atmel toolchain/avr32 gcc/native/3.4.2.1002/avr32-gnu-toolchain/bin/../lib/gcc/avr32/4.4.7/../../../../avr32/lib/ucr3fp\libm.a(lib_a-e_asin.o)
 .debug_pubnames
                0x00007666       0x26 c:/program files/atmel/atmel toolchain/avr32 gcc/native/3.4.2.1002/avr32-gnu-toolchain/bin/../lib/gcc/avr32/4.4.7/../../../../avr32/lib/ucr3fp\libm.a(lib_a-e_atan2.o)
 .debug_pubnames
                0x0000768c       0x24 c:/program files/atmel/atmel toolchain/avr32 gcc/native/3.4.2.1002/avr32-gnu-toolchain/bin/../lib/gcc/avr32/4.4.7/../../../../avr32/lib/ucr3fp\libm.a(lib_a-e_pow.o)
 .debug_pubnames
                0x000076b0       0x29 c:/program files/atmel/atmel toolchain/avr32 gcc/native/3.4.2.1002/avr32-gnu-toolchain/bin/../lib/gcc/avr32/4.4.7/../../../../avr32/lib/ucr3fp\libm.a(lib_a-e_rem_pio2.o)
 .debug_pubnames
                0x000076d9       0x25 c:/program files/atmel/atmel toolchain/avr32 gcc/native/3.4.2.1002/avr32-gnu-toolchain/bin/../lib/gcc/avr32/4.4.7/../../../../avr32/lib/ucr3fp\libm.a(lib_a-e_sqrt.o)
 .debug_pubnames
                0x000076fe       0x23 c:/program files/atmel/atmel toolchain/avr32 gcc/native/3.4.2.1002/avr32-gnu-toolchain/bin/../lib/gcc/avr32/4.4.7/../../../../avr32/lib/ucr3fp\libm.a(lib_a-k_cos.o)
 .debug_pubnames
                0x00007721       0x28 c:/program files/atmel/atmel toolchain/avr32 gcc/native/3.4.2.1002/avr32-gnu-toolchain/bin/../lib/gcc/avr32/4.4.7/../../../../avr32/lib/ucr3fp\libm.a(lib_a-k_rem_pio2.o)
 .debug_pubnames
                0x00007749       0x23 c:/program files/atmel/atmel toolchain/avr32 gcc/native/3.4.2.1002/avr32-gnu-toolchain/bin/../lib/gcc/avr32/4.4.7/../../../../avr32/lib/ucr3fp\libm.a(lib_a-k_sin.o)
 .debug_pubnames
                0x0000776c       0x1b c:/program files/atmel/atmel toolchain/avr32 gcc/native/3.4.2.1002/avr32-gnu-toolchain/bin/../lib/gcc/avr32/4.4.7/../../../../avr32/lib/ucr3fp\libm.a(lib_a-s_atan.o)
 .debug_pubnames
                0x00007787       0x1b c:/program files/atmel/atmel toolchain/avr32 gcc/native/3.4.2.1002/avr32-gnu-toolchain/bin/../lib/gcc/avr32/4.4.7/../../../../avr32/lib/ucr3fp\libm.a(lib_a-s_fabs.o)
 .debug_pubnames
                0x000077a2       0x1d c:/program files/atmel/atmel toolchain/avr32 gcc/native/3.4.2.1002/avr32-gnu-toolchain/bin/../lib/gcc/avr32/4.4.7/../../../../avr32/lib/ucr3fp\libm.a(lib_a-s_finite.o)
 .debug_pubnames
                0x000077bf       0x1c c:/program files/atmel/atmel toolchain/avr32 gcc/native/3.4.2.1002/avr32-gnu-toolchain/bin/../lib/gcc/avr32/4.4.7/../../../../avr32/lib/ucr3fp\libm.a(lib_a-s_floor.o)
 .debug_pubnames
                0x000077db       0x1f c:/program files/atmel/atmel toolchain/avr32 gcc/native/3.4.2.1002/avr32-gnu-toolchain/bin/../lib/gcc/avr32/4.4.7/../../../../avr32/lib/ucr3fp\libm.a(lib_a-s_isnand.o)
 .debug_pubnames
                0x000077fa       0x26 c:/program files/atmel/atmel toolchain/avr32 gcc/native/3.4.2.1002/avr32-gnu-toolchain/bin/../lib/gcc/avr32/4.4.7/../../../../avr32/lib/ucr3fp\libm.a(lib_a-s_lib_ver.o)
 .debug_pubnames
                0x00007820       0x1e c:/program files/atmel/atmel toolchain/avr32 gcc/native/3.4.2.1002/avr32-gnu-toolchain/bin/../lib/gcc/avr32/4.4.7/../../../../avr32/lib/ucr3fp\libm.a(lib_a-s_matherr.o)
 .debug_pubnames
                0x0000783e       0x1a c:/program files/atmel/atmel toolchain/avr32 gcc/native/3.4.2.1002/avr32-gnu-toolchain/bin/../lib/gcc/avr32/4.4.7/../../../../avr32/lib/ucr3fp\libm.a(lib_a-s_nan.o)
 .debug_pubnames
                0x00007858       0x1b c:/program files/atmel/atmel toolchain/avr32 gcc/native/3.4.2.1002/avr32-gnu-toolchain/bin/../lib/gcc/avr32/4.4.7/../../../../avr32/lib/ucr3fp\libm.a(lib_a-s_rint.o)
 .debug_pubnames
                0x00007873       0x1d c:/program files/atmel/atmel toolchain/avr32 gcc/native/3.4.2.1002/avr32-gnu-toolchain/bin/../lib/gcc/avr32/4.4.7/../../../../avr32/lib/ucr3fp\libm.a(lib_a-s_scalbn.o)
 .debug_pubnames
                0x00007890       0x1f c:/program files/atmel/atmel toolchain/avr32 gcc/native/3.4.2.1002/avr32-gnu-toolchain/bin/../lib/gcc/avr32/4.4.7/../../../../avr32/lib/ucr3fp\libm.a(lib_a-s_copysign.o)
 .debug_pubnames
                0x000078af       0x20 c:/program files/atmel/atmel toolchain/avr32 gcc/native/3.4.2.1002/avr32-gnu-toolchain/bin/../lib/gcc/avr32/4.4.7/ucr3fp\libgcc.a(_udivdi3.o)
 .debug_pubnames
                0x000078cf       0x1e c:/program files/atmel/atmel toolchain/avr32 gcc/native/3.4.2.1002/avr32-gnu-toolchain/bin/../lib/gcc/avr32/4.4.7/../../../../avr32/lib/ucr3fp\libc.a(lib_a-errno.o)
 .debug_pubnames
                0x000078ed       0x39 c:/program files/atmel/atmel toolchain/avr32 gcc/native/3.4.2.1002/avr32-gnu-toolchain/bin/../lib/gcc/avr32/4.4.7/../../../../avr32/lib/ucr3fp\libc.a(lib_a-impure.o)
 .debug_pubnames
                0x00007926       0x1d c:/program files/atmel/atmel toolchain/avr32 gcc/native/3.4.2.1002/avr32-gnu-toolchain/bin/../lib/gcc/avr32/4.4.7/../../../../avr32/lib/ucr3fp\libc.a(lib_a-memset.o)
 .debug_pubnames
                0x00007943       0x1d c:/program files/atmel/atmel toolchain/avr32 gcc/native/3.4.2.1002/avr32-gnu-toolchain/bin/../lib/gcc/avr32/4.4.7/../../../../avr32/lib/ucr3fp\libc.a(lib_a-strcpy.o)
 .debug_pubnames
                0x00007960       0x1d c:/program files/atmel/atmel toolchain/avr32 gcc/native/3.4.2.1002/avr32-gnu-toolchain/bin/../lib/gcc/avr32/4.4.7/../../../../avr32/lib/ucr3fp\libc.a(lib_a-strlen.o)
 .debug_pubnames
                0x0000797d      0x119 c:/program files/atmel/atmel toolchain/avr32 gcc/native/3.4.2.1002/avr32-gnu-toolchain/bin/../lib/gcc/avr32/4.4.7/../../../../avr32/lib/ucr3fp\libc.a(lib_a-findfp.o)

.debug_info     0x00000000    0x5dbb1
 *(.debug_info .gnu.linkonce.wi.*)
 .debug_info    0x00000000     0x1c54 Library/control/neighbor_selection.o
 .debug_info    0x00001c54     0x207f Library/control/orca.o
 .debug_info    0x00003cd3      0x481 Library/control/pid_control.o
 .debug_info    0x00004154     0x17f5 Library/control/stabilisation_copter.o
 .debug_info    0x00005949      0x186 Library/hal/analog_monitor.o
 .debug_info    0x00005acf      0xc2e Library/hal/time_keeper.o
 .debug_info    0x000066fd     0x1d89 Library/sensing/estimator.o
 .debug_info    0x00008486      0xd98 Library/sensing/position_estimation.o
 .debug_info    0x0000921e      0x60d Library/sensing/qfilter.o
 .debug_info    0x0000982b     0x16a8 src/central_data.o
 .debug_info    0x0000aed3     0x2db7 src/mavlink_actions.o
 .debug_info    0x0000dc8a     0x1bbf src/tasks.o
 .debug_info    0x0000f849     0x32e9 Library/communication/ishtar_stream.o
 .debug_info    0x00012b32     0x2935 Library/communication/mavlink_stream.o
 .debug_info    0x00015467     0x11b8 Library/communication/onboard_parameters.o
 .debug_info    0x0001661f     0x1a52 Library/control/navigation.o
 .debug_info    0x00018071      0x6bd Library/control/stabilisation.o
 .debug_info    0x0001872e     0x1d39 Library/hal/adc_int.o
 .debug_info    0x0001a467     0x4119 Library/hal/ads1274.o
 .debug_info    0x0001e580      0xe49 Library/hal/adxl345_driver.o
 .debug_info    0x0001f3c9     0x1088 Library/hal/bmp085.o
 .debug_info    0x00020451      0xd39 Library/hal/compass_hmc5883l.o
 .debug_info    0x0002118a     0x1acb Library/hal/dac_dma.o
 .debug_info    0x00022c55     0x10de Library/hal/i2c_driver.o
 .debug_info    0x00023d33      0xe58 Library/hal/itg3200_driver.o
 .debug_info    0x00024b8b      0xac0 Library/hal/led.o
 .debug_info    0x0002564b      0xc61 Library/hal/radar_module_driver.o
 .debug_info    0x000262ac     0x2393 Library/hal/servo_pwm.o
 .debug_info    0x0002863f     0x2d51 Library/hal/remote_dsm2.o
 .debug_info    0x0002b390     0x1cde Library/hal/spi_buffered.o
 .debug_info    0x0002d06e     0x2c69 Library/hal/uart_int.o
 .debug_info    0x0002fcd7      0x5d7 Library/runtime/scheduler.o
 .debug_info    0x000302ae     0x2779 Library/sensing/gps_ublox.o
 .debug_info    0x00032a27      0xca0 Library/sensing/imu.o
 .debug_info    0x000336c7     0x1b94 Library/sensing/simulation.o
 .debug_info    0x0003525b     0x312d Library/sensing/mavlink_waypoint_handler.o
 .debug_info    0x00038388      0x3e8 Library/util/buffer.o
 .debug_info    0x00038770      0x295 Library/util/coord_conventions.o
 .debug_info    0x00038a05      0x5e9 Library/util/print_util.o
 .debug_info    0x00038fee     0x1de3 src/asf/avr32/drivers/adcifa/adcifa.o
 .debug_info    0x0003add1     0x1000 src/asf/avr32/drivers/ast/ast.o
 .debug_info    0x0003bdd1      0xf16 src/asf/avr32/drivers/dacifb/dacifb.o
 .debug_info    0x0003cce7     0x18d2 src/asf/avr32/drivers/eic/eic.o
 .debug_info    0x0003e5b9     0x1e38 src/asf/avr32/drivers/flashc/flashc.o
 .debug_info    0x000403f1      0xf66 src/asf/avr32/drivers/gpio/gpio.o
 .debug_info    0x00041357       0x7c src/asf/avr32/drivers/intc/exception.o
 .debug_info    0x000413d3      0x81b src/asf/avr32/drivers/intc/intc.o
 .debug_info    0x00041bee      0xdfb src/asf/avr32/drivers/pdca/pdca.o
 .debug_info    0x000429e9      0x9d3 src/asf/avr32/drivers/pevc/pevc.o
 .debug_info    0x000433bc     0x1d0b src/asf/avr32/drivers/scif/scif_uc3c.o
 .debug_info    0x000450c7     0x130d src/asf/avr32/drivers/spi/spi.o
 .debug_info    0x000463d4     0x11fd src/asf/avr32/drivers/twim/twim.o
 .debug_info    0x000475d1     0x310f src/asf/avr32/drivers/usart/usart.o
 .debug_info    0x0004a6e0      0x288 src/asf/avr32/services/delay/delay.o
 .debug_info    0x0004a968       0x7b src/asf/avr32/utils/startup/startup_uc3.o
 .debug_info    0x0004a9e3       0x82 src/asf/avr32/utils/startup/trampoline_uc3.o
 .debug_info    0x0004aa65       0xa0 src/asf/common/boards/user_board/init.o
 .debug_info    0x0004ab05     0x12ea src/asf/common/services/clock/uc3c/osc.o
 .debug_info    0x0004bdef     0x1262 src/asf/common/services/clock/uc3c/pll.o
 .debug_info    0x0004d051     0x2315 src/asf/common/services/clock/uc3c/sysclk.o
 .debug_info    0x0004f366       0xf5 src/asf/common/services/sleepmgr/uc3/sleepmgr.o
 .debug_info    0x0004f45b     0x1270 src/asf/common/services/spi/uc3_spi/spi_master.o
 .debug_info    0x000506cb     0x3e95 src/boardsupport.o
 .debug_info    0x00054560     0x3f48 src/main.o
 .debug_info    0x000584a8      0x176 c:/program files/atmel/atmel toolchain/avr32 gcc/native/3.4.2.1002/avr32-gnu-toolchain/bin/../lib/gcc/avr32/4.4.7/../../../../avr32/lib/ucr3fp\libm.a(lib_a-s_cos.o)
 .debug_info    0x0005861e      0x176 c:/program files/atmel/atmel toolchain/avr32 gcc/native/3.4.2.1002/avr32-gnu-toolchain/bin/../lib/gcc/avr32/4.4.7/../../../../avr32/lib/ucr3fp\libm.a(lib_a-s_sin.o)
 .debug_info    0x00058794      0x189 c:/program files/atmel/atmel toolchain/avr32 gcc/native/3.4.2.1002/avr32-gnu-toolchain/bin/../lib/gcc/avr32/4.4.7/../../../../avr32/lib/ucr3fp\libm.a(lib_a-w_asin.o)
 .debug_info    0x0005891d       0xbf c:/program files/atmel/atmel toolchain/avr32 gcc/native/3.4.2.1002/avr32-gnu-toolchain/bin/../lib/gcc/avr32/4.4.7/../../../../avr32/lib/ucr3fp\libm.a(lib_a-w_atan2.o)
 .debug_info    0x000589dc      0x1c8 c:/program files/atmel/atmel toolchain/avr32 gcc/native/3.4.2.1002/avr32-gnu-toolchain/bin/../lib/gcc/avr32/4.4.7/../../../../avr32/lib/ucr3fp\libm.a(lib_a-w_pow.o)
 .debug_info    0x00058ba4      0x189 c:/program files/atmel/atmel toolchain/avr32 gcc/native/3.4.2.1002/avr32-gnu-toolchain/bin/../lib/gcc/avr32/4.4.7/../../../../avr32/lib/ucr3fp\libm.a(lib_a-w_sqrt.o)
 .debug_info    0x00058d2d      0x308 c:/program files/atmel/atmel toolchain/avr32 gcc/native/3.4.2.1002/avr32-gnu-toolchain/bin/../lib/gcc/avr32/4.4.7/../../../../avr32/lib/ucr3fp\libm.a(lib_a-e_asin.o)
 .debug_info    0x00059035      0x289 c:/program files/atmel/atmel toolchain/avr32 gcc/native/3.4.2.1002/avr32-gnu-toolchain/bin/../lib/gcc/avr32/4.4.7/../../../../avr32/lib/ucr3fp\libm.a(lib_a-e_atan2.o)
 .debug_info    0x000592be      0x6b9 c:/program files/atmel/atmel toolchain/avr32 gcc/native/3.4.2.1002/avr32-gnu-toolchain/bin/../lib/gcc/avr32/4.4.7/../../../../avr32/lib/ucr3fp\libm.a(lib_a-e_pow.o)
 .debug_info    0x00059977      0x356 c:/program files/atmel/atmel toolchain/avr32 gcc/native/3.4.2.1002/avr32-gnu-toolchain/bin/../lib/gcc/avr32/4.4.7/../../../../avr32/lib/ucr3fp\libm.a(lib_a-e_rem_pio2.o)
 .debug_info    0x00059ccd      0x229 c:/program files/atmel/atmel toolchain/avr32 gcc/native/3.4.2.1002/avr32-gnu-toolchain/bin/../lib/gcc/avr32/4.4.7/../../../../avr32/lib/ucr3fp\libm.a(lib_a-e_sqrt.o)
 .debug_info    0x00059ef6      0x23e c:/program files/atmel/atmel toolchain/avr32 gcc/native/3.4.2.1002/avr32-gnu-toolchain/bin/../lib/gcc/avr32/4.4.7/../../../../avr32/lib/ucr3fp\libm.a(lib_a-k_cos.o)
 .debug_info    0x0005a134      0x2d9 c:/program files/atmel/atmel toolchain/avr32 gcc/native/3.4.2.1002/avr32-gnu-toolchain/bin/../lib/gcc/avr32/4.4.7/../../../../avr32/lib/ucr3fp\libm.a(lib_a-k_rem_pio2.o)
 .debug_info    0x0005a40d      0x18c c:/program files/atmel/atmel toolchain/avr32 gcc/native/3.4.2.1002/avr32-gnu-toolchain/bin/../lib/gcc/avr32/4.4.7/../../../../avr32/lib/ucr3fp\libm.a(lib_a-k_sin.o)
 .debug_info    0x0005a599      0x28b c:/program files/atmel/atmel toolchain/avr32 gcc/native/3.4.2.1002/avr32-gnu-toolchain/bin/../lib/gcc/avr32/4.4.7/../../../../avr32/lib/ucr3fp\libm.a(lib_a-s_atan.o)
 .debug_info    0x0005a824      0x138 c:/program files/atmel/atmel toolchain/avr32 gcc/native/3.4.2.1002/avr32-gnu-toolchain/bin/../lib/gcc/avr32/4.4.7/../../../../avr32/lib/ucr3fp\libm.a(lib_a-s_fabs.o)
 .debug_info    0x0005a95c      0x13b c:/program files/atmel/atmel toolchain/avr32 gcc/native/3.4.2.1002/avr32-gnu-toolchain/bin/../lib/gcc/avr32/4.4.7/../../../../avr32/lib/ucr3fp\libm.a(lib_a-s_finite.o)
 .debug_info    0x0005aa97      0x1b4 c:/program files/atmel/atmel toolchain/avr32 gcc/native/3.4.2.1002/avr32-gnu-toolchain/bin/../lib/gcc/avr32/4.4.7/../../../../avr32/lib/ucr3fp\libm.a(lib_a-s_floor.o)
 .debug_info    0x0005ac4b      0x14c c:/program files/atmel/atmel toolchain/avr32 gcc/native/3.4.2.1002/avr32-gnu-toolchain/bin/../lib/gcc/avr32/4.4.7/../../../../avr32/lib/ucr3fp\libm.a(lib_a-s_isnand.o)
 .debug_info    0x0005ad97       0xc0 c:/program files/atmel/atmel toolchain/avr32 gcc/native/3.4.2.1002/avr32-gnu-toolchain/bin/../lib/gcc/avr32/4.4.7/../../../../avr32/lib/ucr3fp\libm.a(lib_a-s_lib_ver.o)
 .debug_info    0x0005ae57      0x132 c:/program files/atmel/atmel toolchain/avr32 gcc/native/3.4.2.1002/avr32-gnu-toolchain/bin/../lib/gcc/avr32/4.4.7/../../../../avr32/lib/ucr3fp\libm.a(lib_a-s_matherr.o)
 .debug_info    0x0005af89       0xc4 c:/program files/atmel/atmel toolchain/avr32 gcc/native/3.4.2.1002/avr32-gnu-toolchain/bin/../lib/gcc/avr32/4.4.7/../../../../avr32/lib/ucr3fp\libm.a(lib_a-s_nan.o)
 .debug_info    0x0005b04d      0x201 c:/program files/atmel/atmel toolchain/avr32 gcc/native/3.4.2.1002/avr32-gnu-toolchain/bin/../lib/gcc/avr32/4.4.7/../../../../avr32/lib/ucr3fp\libm.a(lib_a-s_rint.o)
 .debug_info    0x0005b24e      0x21b c:/program files/atmel/atmel toolchain/avr32 gcc/native/3.4.2.1002/avr32-gnu-toolchain/bin/../lib/gcc/avr32/4.4.7/../../../../avr32/lib/ucr3fp\libm.a(lib_a-s_scalbn.o)
 .debug_info    0x0005b469      0x150 c:/program files/atmel/atmel toolchain/avr32 gcc/native/3.4.2.1002/avr32-gnu-toolchain/bin/../lib/gcc/avr32/4.4.7/../../../../avr32/lib/ucr3fp\libm.a(lib_a-s_copysign.o)
 .debug_info    0x0005b5b9      0x57b c:/program files/atmel/atmel toolchain/avr32 gcc/native/3.4.2.1002/avr32-gnu-toolchain/bin/../lib/gcc/avr32/4.4.7/ucr3fp\libgcc.a(_udivdi3.o)
 .debug_info    0x0005bb34      0x8a6 c:/program files/atmel/atmel toolchain/avr32 gcc/native/3.4.2.1002/avr32-gnu-toolchain/bin/../lib/gcc/avr32/4.4.7/../../../../avr32/lib/ucr3fp\libc.a(lib_a-errno.o)
 .debug_info    0x0005c3da      0x960 c:/program files/atmel/atmel toolchain/avr32 gcc/native/3.4.2.1002/avr32-gnu-toolchain/bin/../lib/gcc/avr32/4.4.7/../../../../avr32/lib/ucr3fp\libc.a(lib_a-impure.o)
 .debug_info    0x0005cd3a       0xcd c:/program files/atmel/atmel toolchain/avr32 gcc/native/3.4.2.1002/avr32-gnu-toolchain/bin/../lib/gcc/avr32/4.4.7/../../../../avr32/lib/ucr3fp\libc.a(lib_a-memset.o)
 .debug_info    0x0005ce07       0xc2 c:/program files/atmel/atmel toolchain/avr32 gcc/native/3.4.2.1002/avr32-gnu-toolchain/bin/../lib/gcc/avr32/4.4.7/../../../../avr32/lib/ucr3fp\libc.a(lib_a-strcpy.o)
 .debug_info    0x0005cec9       0xbe c:/program files/atmel/atmel toolchain/avr32 gcc/native/3.4.2.1002/avr32-gnu-toolchain/bin/../lib/gcc/avr32/4.4.7/../../../../avr32/lib/ucr3fp\libc.a(lib_a-strlen.o)
 .debug_info    0x0005cf87      0xc2a c:/program files/atmel/atmel toolchain/avr32 gcc/native/3.4.2.1002/avr32-gnu-toolchain/bin/../lib/gcc/avr32/4.4.7/../../../../avr32/lib/ucr3fp\libc.a(lib_a-findfp.o)

.debug_abbrev   0x00000000     0x90e5
 *(.debug_abbrev)
 .debug_abbrev  0x00000000      0x25b Library/control/neighbor_selection.o
 .debug_abbrev  0x0000025b      0x285 Library/control/orca.o
 .debug_abbrev  0x000004e0      0x125 Library/control/pid_control.o
 .debug_abbrev  0x00000605      0x1e2 Library/control/stabilisation_copter.o
 .debug_abbrev  0x000007e7       0xc2 Library/hal/analog_monitor.o
 .debug_abbrev  0x000008a9      0x12d Library/hal/time_keeper.o
 .debug_abbrev  0x000009d6      0x23b Library/sensing/estimator.o
 .debug_abbrev  0x00000c11      0x178 Library/sensing/position_estimation.o
 .debug_abbrev  0x00000d89      0x138 Library/sensing/qfilter.o
 .debug_abbrev  0x00000ec1      0x1dd src/central_data.o
 .debug_abbrev  0x0000109e      0x2b5 src/mavlink_actions.o
 .debug_abbrev  0x00001353      0x290 src/tasks.o
 .debug_abbrev  0x000015e3      0x266 Library/communication/ishtar_stream.o
 .debug_abbrev  0x00001849      0x2cc Library/communication/mavlink_stream.o
 .debug_abbrev  0x00001b15      0x22e Library/communication/onboard_parameters.o
 .debug_abbrev  0x00001d43      0x21d Library/control/navigation.o
 .debug_abbrev  0x00001f60      0x131 Library/control/stabilisation.o
 .debug_abbrev  0x00002091      0x1e3 Library/hal/adc_int.o
 .debug_abbrev  0x00002274      0x264 Library/hal/ads1274.o
 .debug_abbrev  0x000024d8      0x1bb Library/hal/adxl345_driver.o
 .debug_abbrev  0x00002693      0x1d8 Library/hal/bmp085.o
 .debug_abbrev  0x0000286b      0x16a Library/hal/compass_hmc5883l.o
 .debug_abbrev  0x000029d5      0x1fa Library/hal/dac_dma.o
 .debug_abbrev  0x00002bcf      0x220 Library/hal/i2c_driver.o
 .debug_abbrev  0x00002def      0x17d Library/hal/itg3200_driver.o
 .debug_abbrev  0x00002f6c      0x206 Library/hal/led.o
 .debug_abbrev  0x00003172      0x13f Library/hal/radar_module_driver.o
 .debug_abbrev  0x000032b1      0x174 Library/hal/servo_pwm.o
 .debug_abbrev  0x00003425      0x284 Library/hal/remote_dsm2.o
 .debug_abbrev  0x000036a9      0x25c Library/hal/spi_buffered.o
 .debug_abbrev  0x00003905      0x23f Library/hal/uart_int.o
 .debug_abbrev  0x00003b44      0x129 Library/runtime/scheduler.o
 .debug_abbrev  0x00003c6d      0x27f Library/sensing/gps_ublox.o
 .debug_abbrev  0x00003eec      0x199 Library/sensing/imu.o
 .debug_abbrev  0x00004085      0x1e2 Library/sensing/simulation.o
 .debug_abbrev  0x00004267      0x304 Library/sensing/mavlink_waypoint_handler.o
 .debug_abbrev  0x0000456b      0x11f Library/util/buffer.o
 .debug_abbrev  0x0000468a       0xe9 Library/util/coord_conventions.o
 .debug_abbrev  0x00004773      0x132 Library/util/print_util.o
 .debug_abbrev  0x000048a5      0x1d1 src/asf/avr32/drivers/adcifa/adcifa.o
 .debug_abbrev  0x00004a76      0x1b9 src/asf/avr32/drivers/ast/ast.o
 .debug_abbrev  0x00004c2f      0x24f src/asf/avr32/drivers/dacifb/dacifb.o
 .debug_abbrev  0x00004e7e      0x1a7 src/asf/avr32/drivers/eic/eic.o
 .debug_abbrev  0x00005025      0x281 src/asf/avr32/drivers/flashc/flashc.o
 .debug_abbrev  0x000052a6      0x23b src/asf/avr32/drivers/gpio/gpio.o
 .debug_abbrev  0x000054e1       0x14 src/asf/avr32/drivers/intc/exception.o
 .debug_abbrev  0x000054f5      0x18e src/asf/avr32/drivers/intc/intc.o
 .debug_abbrev  0x00005683      0x1fc src/asf/avr32/drivers/pdca/pdca.o
 .debug_abbrev  0x0000587f      0x1a4 src/asf/avr32/drivers/pevc/pevc.o
 .debug_abbrev  0x00005a23      0x26f src/asf/avr32/drivers/scif/scif_uc3c.o
 .debug_abbrev  0x00005c92      0x200 src/asf/avr32/drivers/spi/spi.o
 .debug_abbrev  0x00005e92      0x1e9 src/asf/avr32/drivers/twim/twim.o
 .debug_abbrev  0x0000607b      0x262 src/asf/avr32/drivers/usart/usart.o
 .debug_abbrev  0x000062dd      0x15a src/asf/avr32/services/delay/delay.o
 .debug_abbrev  0x00006437       0x12 src/asf/avr32/utils/startup/startup_uc3.o
 .debug_abbrev  0x00006449       0x14 src/asf/avr32/utils/startup/trampoline_uc3.o
 .debug_abbrev  0x0000645d       0x48 src/asf/common/boards/user_board/init.o
 .debug_abbrev  0x000064a5      0x16c src/asf/common/services/clock/uc3c/osc.o
 .debug_abbrev  0x00006611      0x1a2 src/asf/common/services/clock/uc3c/pll.o
 .debug_abbrev  0x000067b3      0x246 src/asf/common/services/clock/uc3c/sysclk.o
 .debug_abbrev  0x000069f9       0x7b src/asf/common/services/sleepmgr/uc3/sleepmgr.o
 .debug_abbrev  0x00006a74      0x1f2 src/asf/common/services/spi/uc3_spi/spi_master.o
 .debug_abbrev  0x00006c66      0x29a src/boardsupport.o
 .debug_abbrev  0x00006f00      0x28d src/main.o
 .debug_abbrev  0x0000718d       0xfe c:/program files/atmel/atmel toolchain/avr32 gcc/native/3.4.2.1002/avr32-gnu-toolchain/bin/../lib/gcc/avr32/4.4.7/../../../../avr32/lib/ucr3fp\libm.a(lib_a-s_cos.o)
 .debug_abbrev  0x0000728b       0xfe c:/program files/atmel/atmel toolchain/avr32 gcc/native/3.4.2.1002/avr32-gnu-toolchain/bin/../lib/gcc/avr32/4.4.7/../../../../avr32/lib/ucr3fp\libm.a(lib_a-s_sin.o)
 .debug_abbrev  0x00007389       0xee c:/program files/atmel/atmel toolchain/avr32 gcc/native/3.4.2.1002/avr32-gnu-toolchain/bin/../lib/gcc/avr32/4.4.7/../../../../avr32/lib/ucr3fp\libm.a(lib_a-w_asin.o)
 .debug_abbrev  0x00007477       0x59 c:/program files/atmel/atmel toolchain/avr32 gcc/native/3.4.2.1002/avr32-gnu-toolchain/bin/../lib/gcc/avr32/4.4.7/../../../../avr32/lib/ucr3fp\libm.a(lib_a-w_atan2.o)
 .debug_abbrev  0x000074d0       0xf9 c:/program files/atmel/atmel toolchain/avr32 gcc/native/3.4.2.1002/avr32-gnu-toolchain/bin/../lib/gcc/avr32/4.4.7/../../../../avr32/lib/ucr3fp\libm.a(lib_a-w_pow.o)
 .debug_abbrev  0x000075c9       0xee c:/program files/atmel/atmel toolchain/avr32 gcc/native/3.4.2.1002/avr32-gnu-toolchain/bin/../lib/gcc/avr32/4.4.7/../../../../avr32/lib/ucr3fp\libm.a(lib_a-w_sqrt.o)
 .debug_abbrev  0x000076b7      0x11c c:/program files/atmel/atmel toolchain/avr32 gcc/native/3.4.2.1002/avr32-gnu-toolchain/bin/../lib/gcc/avr32/4.4.7/../../../../avr32/lib/ucr3fp\libm.a(lib_a-e_asin.o)
 .debug_abbrev  0x000077d3      0x12b c:/program files/atmel/atmel toolchain/avr32 gcc/native/3.4.2.1002/avr32-gnu-toolchain/bin/../lib/gcc/avr32/4.4.7/../../../../avr32/lib/ucr3fp\libm.a(lib_a-e_atan2.o)
 .debug_abbrev  0x000078fe      0x166 c:/program files/atmel/atmel toolchain/avr32 gcc/native/3.4.2.1002/avr32-gnu-toolchain/bin/../lib/gcc/avr32/4.4.7/../../../../avr32/lib/ucr3fp\libm.a(lib_a-e_pow.o)
 .debug_abbrev  0x00007a64      0x14f c:/program files/atmel/atmel toolchain/avr32 gcc/native/3.4.2.1002/avr32-gnu-toolchain/bin/../lib/gcc/avr32/4.4.7/../../../../avr32/lib/ucr3fp\libm.a(lib_a-e_rem_pio2.o)
 .debug_abbrev  0x00007bb3      0x138 c:/program files/atmel/atmel toolchain/avr32 gcc/native/3.4.2.1002/avr32-gnu-toolchain/bin/../lib/gcc/avr32/4.4.7/../../../../avr32/lib/ucr3fp\libm.a(lib_a-e_sqrt.o)
 .debug_abbrev  0x00007ceb      0x11e c:/program files/atmel/atmel toolchain/avr32 gcc/native/3.4.2.1002/avr32-gnu-toolchain/bin/../lib/gcc/avr32/4.4.7/../../../../avr32/lib/ucr3fp\libm.a(lib_a-k_cos.o)
 .debug_abbrev  0x00007e09      0x11a c:/program files/atmel/atmel toolchain/avr32 gcc/native/3.4.2.1002/avr32-gnu-toolchain/bin/../lib/gcc/avr32/4.4.7/../../../../avr32/lib/ucr3fp\libm.a(lib_a-k_rem_pio2.o)
 .debug_abbrev  0x00007f23       0x9a c:/program files/atmel/atmel toolchain/avr32 gcc/native/3.4.2.1002/avr32-gnu-toolchain/bin/../lib/gcc/avr32/4.4.7/../../../../avr32/lib/ucr3fp\libm.a(lib_a-k_sin.o)
 .debug_abbrev  0x00007fbd      0x130 c:/program files/atmel/atmel toolchain/avr32 gcc/native/3.4.2.1002/avr32-gnu-toolchain/bin/../lib/gcc/avr32/4.4.7/../../../../avr32/lib/ucr3fp\libm.a(lib_a-s_atan.o)
 .debug_abbrev  0x000080ed       0xce c:/program files/atmel/atmel toolchain/avr32 gcc/native/3.4.2.1002/avr32-gnu-toolchain/bin/../lib/gcc/avr32/4.4.7/../../../../avr32/lib/ucr3fp\libm.a(lib_a-s_fabs.o)
 .debug_abbrev  0x000081bb       0xcc c:/program files/atmel/atmel toolchain/avr32 gcc/native/3.4.2.1002/avr32-gnu-toolchain/bin/../lib/gcc/avr32/4.4.7/../../../../avr32/lib/ucr3fp\libm.a(lib_a-s_finite.o)
 .debug_abbrev  0x00008287      0x10f c:/program files/atmel/atmel toolchain/avr32 gcc/native/3.4.2.1002/avr32-gnu-toolchain/bin/../lib/gcc/avr32/4.4.7/../../../../avr32/lib/ucr3fp\libm.a(lib_a-s_floor.o)
 .debug_abbrev  0x00008396       0xce c:/program files/atmel/atmel toolchain/avr32 gcc/native/3.4.2.1002/avr32-gnu-toolchain/bin/../lib/gcc/avr32/4.4.7/../../../../avr32/lib/ucr3fp\libm.a(lib_a-s_isnand.o)
 .debug_abbrev  0x00008464       0x5a c:/program files/atmel/atmel toolchain/avr32 gcc/native/3.4.2.1002/avr32-gnu-toolchain/bin/../lib/gcc/avr32/4.4.7/../../../../avr32/lib/ucr3fp\libm.a(lib_a-s_lib_ver.o)
 .debug_abbrev  0x000084be       0x9e c:/program files/atmel/atmel toolchain/avr32 gcc/native/3.4.2.1002/avr32-gnu-toolchain/bin/../lib/gcc/avr32/4.4.7/../../../../avr32/lib/ucr3fp\libm.a(lib_a-s_matherr.o)
 .debug_abbrev  0x0000855c       0x76 c:/program files/atmel/atmel toolchain/avr32 gcc/native/3.4.2.1002/avr32-gnu-toolchain/bin/../lib/gcc/avr32/4.4.7/../../../../avr32/lib/ucr3fp\libm.a(lib_a-s_nan.o)
 .debug_abbrev  0x000085d2      0x119 c:/program files/atmel/atmel toolchain/avr32 gcc/native/3.4.2.1002/avr32-gnu-toolchain/bin/../lib/gcc/avr32/4.4.7/../../../../avr32/lib/ucr3fp\libm.a(lib_a-s_rint.o)
 .debug_abbrev  0x000086eb      0x118 c:/program files/atmel/atmel toolchain/avr32 gcc/native/3.4.2.1002/avr32-gnu-toolchain/bin/../lib/gcc/avr32/4.4.7/../../../../avr32/lib/ucr3fp\libm.a(lib_a-s_scalbn.o)
 .debug_abbrev  0x00008803       0xce c:/program files/atmel/atmel toolchain/avr32 gcc/native/3.4.2.1002/avr32-gnu-toolchain/bin/../lib/gcc/avr32/4.4.7/../../../../avr32/lib/ucr3fp\libm.a(lib_a-s_copysign.o)
 .debug_abbrev  0x000088d1      0x15a c:/program files/atmel/atmel toolchain/avr32 gcc/native/3.4.2.1002/avr32-gnu-toolchain/bin/../lib/gcc/avr32/4.4.7/ucr3fp\libgcc.a(_udivdi3.o)
 .debug_abbrev  0x00008a2b      0x150 c:/program files/atmel/atmel toolchain/avr32 gcc/native/3.4.2.1002/avr32-gnu-toolchain/bin/../lib/gcc/avr32/4.4.7/../../../../avr32/lib/ucr3fp\libc.a(lib_a-errno.o)
 .debug_abbrev  0x00008b7b      0x160 c:/program files/atmel/atmel toolchain/avr32 gcc/native/3.4.2.1002/avr32-gnu-toolchain/bin/../lib/gcc/avr32/4.4.7/../../../../avr32/lib/ucr3fp\libc.a(lib_a-impure.o)
 .debug_abbrev  0x00008cdb       0x85 c:/program files/atmel/atmel toolchain/avr32 gcc/native/3.4.2.1002/avr32-gnu-toolchain/bin/../lib/gcc/avr32/4.4.7/../../../../avr32/lib/ucr3fp\libc.a(lib_a-memset.o)
 .debug_abbrev  0x00008d60       0x76 c:/program files/atmel/atmel toolchain/avr32 gcc/native/3.4.2.1002/avr32-gnu-toolchain/bin/../lib/gcc/avr32/4.4.7/../../../../avr32/lib/ucr3fp\libc.a(lib_a-strcpy.o)
 .debug_abbrev  0x00008dd6       0x83 c:/program files/atmel/atmel toolchain/avr32 gcc/native/3.4.2.1002/avr32-gnu-toolchain/bin/../lib/gcc/avr32/4.4.7/../../../../avr32/lib/ucr3fp\libc.a(lib_a-strlen.o)
 .debug_abbrev  0x00008e59      0x28c c:/program files/atmel/atmel toolchain/avr32 gcc/native/3.4.2.1002/avr32-gnu-toolchain/bin/../lib/gcc/avr32/4.4.7/../../../../avr32/lib/ucr3fp\libc.a(lib_a-findfp.o)

.debug_line     0x00000000    0x11529
 *(.debug_line)
 .debug_line    0x00000000      0x4b1 Library/control/neighbor_selection.o
 .debug_line    0x000004b1      0x66f Library/control/orca.o
 .debug_line    0x00000b20      0x17f Library/control/pid_control.o
 .debug_line    0x00000c9f      0x479 Library/control/stabilisation_copter.o
 .debug_line    0x00001118      0x110 Library/hal/analog_monitor.o
 .debug_line    0x00001228      0x199 Library/hal/time_keeper.o
 .debug_line    0x000013c1      0x6ca Library/sensing/estimator.o
 .debug_line    0x00001a8b      0x2b3 Library/sensing/position_estimation.o
 .debug_line    0x00001d3e      0x246 Library/sensing/qfilter.o
 .debug_line    0x00001f84      0x3e4 src/central_data.o
 .debug_line    0x00002368      0xbb6 src/mavlink_actions.o
 .debug_line    0x00002f1e      0x5b0 src/tasks.o
 .debug_line    0x000034ce      0x430 Library/communication/ishtar_stream.o
 .debug_line    0x000038fe      0x71c Library/communication/mavlink_stream.o
 .debug_line    0x0000401a      0x4a1 Library/communication/onboard_parameters.o
 .debug_line    0x000044bb      0x480 Library/control/navigation.o
 .debug_line    0x0000493b      0x144 Library/control/stabilisation.o
 .debug_line    0x00004a7f      0x281 Library/hal/adc_int.o
 .debug_line    0x00004d00      0x2d1 Library/hal/ads1274.o
 .debug_line    0x00004fd1      0x203 Library/hal/adxl345_driver.o
 .debug_line    0x000051d4      0x2c5 Library/hal/bmp085.o
 .debug_line    0x00005499      0x1db Library/hal/compass_hmc5883l.o
 .debug_line    0x00005674      0x2e4 Library/hal/dac_dma.o
 .debug_line    0x00005958      0x33f Library/hal/i2c_driver.o
 .debug_line    0x00005c97      0x204 Library/hal/itg3200_driver.o
 .debug_line    0x00005e9b      0x227 Library/hal/led.o
 .debug_line    0x000060c2      0x1df Library/hal/radar_module_driver.o
 .debug_line    0x000062a1      0x152 Library/hal/servo_pwm.o
 .debug_line    0x000063f3      0x304 Library/hal/remote_dsm2.o
 .debug_line    0x000066f7      0x398 Library/hal/spi_buffered.o
 .debug_line    0x00006a8f      0x2d2 Library/hal/uart_int.o
 .debug_line    0x00006d61      0x1b5 Library/runtime/scheduler.o
 .debug_line    0x00006f16      0x7a9 Library/sensing/gps_ublox.o
 .debug_line    0x000076bf      0x21e Library/sensing/imu.o
 .debug_line    0x000078dd      0x543 Library/sensing/simulation.o
 .debug_line    0x00007e20      0xa1c Library/sensing/mavlink_waypoint_handler.o
 .debug_line    0x0000883c      0x145 Library/util/buffer.o
 .debug_line    0x00008981      0x144 Library/util/coord_conventions.o
 .debug_line    0x00008ac5      0x1b7 Library/util/print_util.o
 .debug_line    0x00008c7c      0x27d src/asf/avr32/drivers/adcifa/adcifa.o
 .debug_line    0x00008ef9      0x223 src/asf/avr32/drivers/ast/ast.o
 .debug_line    0x0000911c      0x302 src/asf/avr32/drivers/dacifb/dacifb.o
 .debug_line    0x0000941e      0x24e src/asf/avr32/drivers/eic/eic.o
 .debug_line    0x0000966c      0x4d7 src/asf/avr32/drivers/flashc/flashc.o
 .debug_line    0x00009b43      0x31c src/asf/avr32/drivers/gpio/gpio.o
 .debug_line    0x00009e5f       0xdf src/asf/avr32/drivers/intc/exception.o
 .debug_line    0x00009f3e      0x159 src/asf/avr32/drivers/intc/intc.o
 .debug_line    0x0000a097      0x255 src/asf/avr32/drivers/pdca/pdca.o
 .debug_line    0x0000a2ec      0x198 src/asf/avr32/drivers/pevc/pevc.o
 .debug_line    0x0000a484      0x367 src/asf/avr32/drivers/scif/scif_uc3c.o
 .debug_line    0x0000a7eb      0x254 src/asf/avr32/drivers/spi/spi.o
 .debug_line    0x0000aa3f      0x3c5 src/asf/avr32/drivers/twim/twim.o
 .debug_line    0x0000ae04      0x3f0 src/asf/avr32/drivers/usart/usart.o
 .debug_line    0x0000b1f4      0x161 src/asf/avr32/services/delay/delay.o
 .debug_line    0x0000b355       0xf2 src/asf/avr32/utils/startup/startup_uc3.o
 .debug_line    0x0000b447       0x67 src/asf/avr32/utils/startup/trampoline_uc3.o
 .debug_line    0x0000b4ae       0x61 src/asf/common/boards/user_board/init.o
 .debug_line    0x0000b50f      0x214 src/asf/common/services/clock/uc3c/osc.o
 .debug_line    0x0000b723      0x1fc src/asf/common/services/clock/uc3c/pll.o
 .debug_line    0x0000b91f      0x33e src/asf/common/services/clock/uc3c/sysclk.o
 .debug_line    0x0000bc5d       0xf9 src/asf/common/services/sleepmgr/uc3/sleepmgr.o
 .debug_line    0x0000bd56      0x3b5 src/asf/common/services/spi/uc3_spi/spi_master.o
 .debug_line    0x0000c10b      0x5d0 src/boardsupport.o
 .debug_line    0x0000c6db      0x5b4 src/main.o
 .debug_line    0x0000cc8f      0x244 c:/program files/atmel/atmel toolchain/avr32 gcc/native/3.4.2.1002/avr32-gnu-toolchain/bin/../lib/gcc/avr32/4.4.7/../../../../avr32/lib/ucr3fp\libm.a(lib_a-s_cos.o)
 .debug_line    0x0000ced3      0x245 c:/program files/atmel/atmel toolchain/avr32 gcc/native/3.4.2.1002/avr32-gnu-toolchain/bin/../lib/gcc/avr32/4.4.7/../../../../avr32/lib/ucr3fp\libm.a(lib_a-s_sin.o)
 .debug_line    0x0000d118      0x17d c:/program files/atmel/atmel toolchain/avr32 gcc/native/3.4.2.1002/avr32-gnu-toolchain/bin/../lib/gcc/avr32/4.4.7/../../../../avr32/lib/ucr3fp\libm.a(lib_a-w_asin.o)
 .debug_line    0x0000d295      0x112 c:/program files/atmel/atmel toolchain/avr32 gcc/native/3.4.2.1002/avr32-gnu-toolchain/bin/../lib/gcc/avr32/4.4.7/../../../../avr32/lib/ucr3fp\libm.a(lib_a-w_atan2.o)
 .debug_line    0x0000d3a7      0x31a c:/program files/atmel/atmel toolchain/avr32 gcc/native/3.4.2.1002/avr32-gnu-toolchain/bin/../lib/gcc/avr32/4.4.7/../../../../avr32/lib/ucr3fp\libm.a(lib_a-w_pow.o)
 .debug_line    0x0000d6c1      0x194 c:/program files/atmel/atmel toolchain/avr32 gcc/native/3.4.2.1002/avr32-gnu-toolchain/bin/../lib/gcc/avr32/4.4.7/../../../../avr32/lib/ucr3fp\libm.a(lib_a-w_sqrt.o)
 .debug_line    0x0000d855      0x270 c:/program files/atmel/atmel toolchain/avr32 gcc/native/3.4.2.1002/avr32-gnu-toolchain/bin/../lib/gcc/avr32/4.4.7/../../../../avr32/lib/ucr3fp\libm.a(lib_a-e_asin.o)
 .debug_line    0x0000dac5      0x27c c:/program files/atmel/atmel toolchain/avr32 gcc/native/3.4.2.1002/avr32-gnu-toolchain/bin/../lib/gcc/avr32/4.4.7/../../../../avr32/lib/ucr3fp\libm.a(lib_a-e_atan2.o)
 .debug_line    0x0000dd41      0x5e7 c:/program files/atmel/atmel toolchain/avr32 gcc/native/3.4.2.1002/avr32-gnu-toolchain/bin/../lib/gcc/avr32/4.4.7/../../../../avr32/lib/ucr3fp\libm.a(lib_a-e_pow.o)
 .debug_line    0x0000e328      0x3ac c:/program files/atmel/atmel toolchain/avr32 gcc/native/3.4.2.1002/avr32-gnu-toolchain/bin/../lib/gcc/avr32/4.4.7/../../../../avr32/lib/ucr3fp\libm.a(lib_a-e_rem_pio2.o)
 .debug_line    0x0000e6d4      0x34e c:/program files/atmel/atmel toolchain/avr32 gcc/native/3.4.2.1002/avr32-gnu-toolchain/bin/../lib/gcc/avr32/4.4.7/../../../../avr32/lib/ucr3fp\libm.a(lib_a-e_sqrt.o)
 .debug_line    0x0000ea22      0x1e5 c:/program files/atmel/atmel toolchain/avr32 gcc/native/3.4.2.1002/avr32-gnu-toolchain/bin/../lib/gcc/avr32/4.4.7/../../../../avr32/lib/ucr3fp\libm.a(lib_a-k_cos.o)
 .debug_line    0x0000ec07      0x4db c:/program files/atmel/atmel toolchain/avr32 gcc/native/3.4.2.1002/avr32-gnu-toolchain/bin/../lib/gcc/avr32/4.4.7/../../../../avr32/lib/ucr3fp\libm.a(lib_a-k_rem_pio2.o)
 .debug_line    0x0000f0e2      0x170 c:/program files/atmel/atmel toolchain/avr32 gcc/native/3.4.2.1002/avr32-gnu-toolchain/bin/../lib/gcc/avr32/4.4.7/../../../../avr32/lib/ucr3fp\libm.a(lib_a-k_sin.o)
 .debug_line    0x0000f252      0x2c4 c:/program files/atmel/atmel toolchain/avr32 gcc/native/3.4.2.1002/avr32-gnu-toolchain/bin/../lib/gcc/avr32/4.4.7/../../../../avr32/lib/ucr3fp\libm.a(lib_a-s_atan.o)
 .debug_line    0x0000f516      0x204 c:/program files/atmel/atmel toolchain/avr32 gcc/native/3.4.2.1002/avr32-gnu-toolchain/bin/../lib/gcc/avr32/4.4.7/../../../../avr32/lib/ucr3fp\libm.a(lib_a-s_fabs.o)
 .debug_line    0x0000f71a      0x19e c:/program files/atmel/atmel toolchain/avr32 gcc/native/3.4.2.1002/avr32-gnu-toolchain/bin/../lib/gcc/avr32/4.4.7/../../../../avr32/lib/ucr3fp\libm.a(lib_a-s_finite.o)
 .debug_line    0x0000f8b8      0x295 c:/program files/atmel/atmel toolchain/avr32 gcc/native/3.4.2.1002/avr32-gnu-toolchain/bin/../lib/gcc/avr32/4.4.7/../../../../avr32/lib/ucr3fp\libm.a(lib_a-s_floor.o)
 .debug_line    0x0000fb4d      0x1a5 c:/program files/atmel/atmel toolchain/avr32 gcc/native/3.4.2.1002/avr32-gnu-toolchain/bin/../lib/gcc/avr32/4.4.7/../../../../avr32/lib/ucr3fp\libm.a(lib_a-s_isnand.o)
 .debug_line    0x0000fcf2       0x89 c:/program files/atmel/atmel toolchain/avr32 gcc/native/3.4.2.1002/avr32-gnu-toolchain/bin/../lib/gcc/avr32/4.4.7/../../../../avr32/lib/ucr3fp\libm.a(lib_a-s_lib_ver.o)
 .debug_line    0x0000fd7b      0x110 c:/program files/atmel/atmel toolchain/avr32 gcc/native/3.4.2.1002/avr32-gnu-toolchain/bin/../lib/gcc/avr32/4.4.7/../../../../avr32/lib/ucr3fp\libm.a(lib_a-s_matherr.o)
 .debug_line    0x0000fe8b      0x10b c:/program files/atmel/atmel toolchain/avr32 gcc/native/3.4.2.1002/avr32-gnu-toolchain/bin/../lib/gcc/avr32/4.4.7/../../../../avr32/lib/ucr3fp\libm.a(lib_a-s_nan.o)
 .debug_line    0x0000ff96      0x262 c:/program files/atmel/atmel toolchain/avr32 gcc/native/3.4.2.1002/avr32-gnu-toolchain/bin/../lib/gcc/avr32/4.4.7/../../../../avr32/lib/ucr3fp\libm.a(lib_a-s_rint.o)
 .debug_line    0x000101f8      0x21d c:/program files/atmel/atmel toolchain/avr32 gcc/native/3.4.2.1002/avr32-gnu-toolchain/bin/../lib/gcc/avr32/4.4.7/../../../../avr32/lib/ucr3fp\libm.a(lib_a-s_scalbn.o)
 .debug_line    0x00010415      0x1a1 c:/program files/atmel/atmel toolchain/avr32 gcc/native/3.4.2.1002/avr32-gnu-toolchain/bin/../lib/gcc/avr32/4.4.7/../../../../avr32/lib/ucr3fp\libm.a(lib_a-s_copysign.o)
 .debug_line    0x000105b6      0x1d1 c:/program files/atmel/atmel toolchain/avr32 gcc/native/3.4.2.1002/avr32-gnu-toolchain/bin/../lib/gcc/avr32/4.4.7/ucr3fp\libgcc.a(_udivdi3.o)
 .debug_line    0x00010787      0x1c9 c:/program files/atmel/atmel toolchain/avr32 gcc/native/3.4.2.1002/avr32-gnu-toolchain/bin/../lib/gcc/avr32/4.4.7/../../../../avr32/lib/ucr3fp\libc.a(lib_a-errno.o)
 .debug_line    0x00010950      0x1a3 c:/program files/atmel/atmel toolchain/avr32 gcc/native/3.4.2.1002/avr32-gnu-toolchain/bin/../lib/gcc/avr32/4.4.7/../../../../avr32/lib/ucr3fp\libc.a(lib_a-impure.o)
 .debug_line    0x00010af3      0x1b9 c:/program files/atmel/atmel toolchain/avr32 gcc/native/3.4.2.1002/avr32-gnu-toolchain/bin/../lib/gcc/avr32/4.4.7/../../../../avr32/lib/ucr3fp\libc.a(lib_a-memset.o)
 .debug_line    0x00010cac      0x11a c:/program files/atmel/atmel toolchain/avr32 gcc/native/3.4.2.1002/avr32-gnu-toolchain/bin/../lib/gcc/avr32/4.4.7/../../../../avr32/lib/ucr3fp\libc.a(lib_a-strcpy.o)
 .debug_line    0x00010dc6      0x1bf c:/program files/atmel/atmel toolchain/avr32 gcc/native/3.4.2.1002/avr32-gnu-toolchain/bin/../lib/gcc/avr32/4.4.7/../../../../avr32/lib/ucr3fp\libc.a(lib_a-strlen.o)
 .debug_line    0x00010f85      0x5a4 c:/program files/atmel/atmel toolchain/avr32 gcc/native/3.4.2.1002/avr32-gnu-toolchain/bin/../lib/gcc/avr32/4.4.7/../../../../avr32/lib/ucr3fp\libc.a(lib_a-findfp.o)

.debug_frame    0x00000000     0x85c8
 *(.debug_frame)
 .debug_frame   0x00000000      0x278 Library/control/neighbor_selection.o
 .debug_frame   0x00000278      0x250 Library/control/orca.o
 .debug_frame   0x000004c8      0x15c Library/control/pid_control.o
 .debug_frame   0x00000624      0x124 Library/control/stabilisation_copter.o
 .debug_frame   0x00000748       0xf0 Library/hal/analog_monitor.o
 .debug_frame   0x00000838       0xd0 Library/hal/time_keeper.o
 .debug_frame   0x00000908      0x21c Library/sensing/estimator.o
 .debug_frame   0x00000b24      0x1b4 Library/sensing/position_estimation.o
 .debug_frame   0x00000cd8      0x170 Library/sensing/qfilter.o
 .debug_frame   0x00000e48      0x110 src/central_data.o
 .debug_frame   0x00000f58      0x864 src/mavlink_actions.o
 .debug_frame   0x000017bc      0x240 src/tasks.o
 .debug_frame   0x000019fc       0xd0 Library/communication/ishtar_stream.o
 .debug_frame   0x00001acc      0x614 Library/communication/mavlink_stream.o
 .debug_frame   0x000020e0      0x414 Library/communication/onboard_parameters.o
 .debug_frame   0x000024f4      0x238 Library/control/navigation.o
 .debug_frame   0x0000272c       0x34 Library/control/stabilisation.o
 .debug_frame   0x00002760      0x150 Library/hal/adc_int.o
 .debug_frame   0x000028b0      0x21c Library/hal/ads1274.o
 .debug_frame   0x00002acc       0x90 Library/hal/adxl345_driver.o
 .debug_frame   0x00002b5c       0xf0 Library/hal/bmp085.o
 .debug_frame   0x00002c4c       0x50 Library/hal/compass_hmc5883l.o
 .debug_frame   0x00002c9c      0x144 Library/hal/dac_dma.o
 .debug_frame   0x00002de0      0x19c Library/hal/i2c_driver.o
 .debug_frame   0x00002f7c       0xb0 Library/hal/itg3200_driver.o
 .debug_frame   0x0000302c      0x188 Library/hal/led.o
 .debug_frame   0x000031b4       0x70 Library/hal/radar_module_driver.o
 .debug_frame   0x00003224       0x6c Library/hal/servo_pwm.o
 .debug_frame   0x00003290      0x174 Library/hal/remote_dsm2.o
 .debug_frame   0x00003404      0x470 Library/hal/spi_buffered.o
 .debug_frame   0x00003874      0x248 Library/hal/uart_int.o
 .debug_frame   0x00003abc      0x164 Library/runtime/scheduler.o
 .debug_frame   0x00003c20      0x374 Library/sensing/gps_ublox.o
 .debug_frame   0x00003f94       0x98 Library/sensing/imu.o
 .debug_frame   0x0000402c      0x27c Library/sensing/simulation.o
 .debug_frame   0x000042a8      0xa20 Library/sensing/mavlink_waypoint_handler.o
 .debug_frame   0x00004cc8      0x138 Library/util/buffer.o
 .debug_frame   0x00004e00       0xbc Library/util/coord_conventions.o
 .debug_frame   0x00004ebc      0x1cc Library/util/print_util.o
 .debug_frame   0x00005088      0x180 src/asf/avr32/drivers/adcifa/adcifa.o
 .debug_frame   0x00005208      0x290 src/asf/avr32/drivers/ast/ast.o
 .debug_frame   0x00005498      0x100 src/asf/avr32/drivers/dacifb/dacifb.o
 .debug_frame   0x00005598      0x1e0 src/asf/avr32/drivers/eic/eic.o
 .debug_frame   0x00005778      0x858 src/asf/avr32/drivers/flashc/flashc.o
 .debug_frame   0x00005fd0      0x3d8 src/asf/avr32/drivers/gpio/gpio.o
 .debug_frame   0x000063a8       0xb0 src/asf/avr32/drivers/intc/intc.o
 .debug_frame   0x00006458      0x2a8 src/asf/avr32/drivers/pdca/pdca.o
 .debug_frame   0x00006700      0x224 src/asf/avr32/drivers/pevc/pevc.o
 .debug_frame   0x00006924      0x510 src/asf/avr32/drivers/scif/scif_uc3c.o
 .debug_frame   0x00006e34      0x20c src/asf/avr32/drivers/spi/spi.o
 .debug_frame   0x00007040      0x1e0 src/asf/avr32/drivers/twim/twim.o
 .debug_frame   0x00007220      0x3a4 src/asf/avr32/drivers/usart/usart.o
 .debug_frame   0x000075c4       0x50 src/asf/avr32/services/delay/delay.o
 .debug_frame   0x00007614       0x30 src/asf/common/boards/user_board/init.o
 .debug_frame   0x00007644      0x148 src/asf/common/services/clock/uc3c/osc.o
 .debug_frame   0x0000778c       0xa8 src/asf/common/services/clock/uc3c/pll.o
 .debug_frame   0x00007834      0x2e4 src/asf/common/services/clock/uc3c/sysclk.o
 .debug_frame   0x00007b18      0x224 src/asf/common/services/spi/uc3_spi/spi_master.o
 .debug_frame   0x00007d3c       0xd0 src/boardsupport.o
 .debug_frame   0x00007e0c       0x70 src/main.o
 .debug_frame   0x00007e7c       0x38 c:/program files/atmel/atmel toolchain/avr32 gcc/native/3.4.2.1002/avr32-gnu-toolchain/bin/../lib/gcc/avr32/4.4.7/../../../../avr32/lib/ucr3fp\libm.a(lib_a-s_cos.o)
 .debug_frame   0x00007eb4       0x38 c:/program files/atmel/atmel toolchain/avr32 gcc/native/3.4.2.1002/avr32-gnu-toolchain/bin/../lib/gcc/avr32/4.4.7/../../../../avr32/lib/ucr3fp\libm.a(lib_a-s_sin.o)
 .debug_frame   0x00007eec       0x44 c:/program files/atmel/atmel toolchain/avr32 gcc/native/3.4.2.1002/avr32-gnu-toolchain/bin/../lib/gcc/avr32/4.4.7/../../../../avr32/lib/ucr3fp\libm.a(lib_a-w_asin.o)
 .debug_frame   0x00007f30       0x28 c:/program files/atmel/atmel toolchain/avr32 gcc/native/3.4.2.1002/avr32-gnu-toolchain/bin/../lib/gcc/avr32/4.4.7/../../../../avr32/lib/ucr3fp\libm.a(lib_a-w_atan2.o)
 .debug_frame   0x00007f58       0x44 c:/program files/atmel/atmel toolchain/avr32 gcc/native/3.4.2.1002/avr32-gnu-toolchain/bin/../lib/gcc/avr32/4.4.7/../../../../avr32/lib/ucr3fp\libm.a(lib_a-w_pow.o)
 .debug_frame   0x00007f9c       0x44 c:/program files/atmel/atmel toolchain/avr32 gcc/native/3.4.2.1002/avr32-gnu-toolchain/bin/../lib/gcc/avr32/4.4.7/../../../../avr32/lib/ucr3fp\libm.a(lib_a-w_sqrt.o)
 .debug_frame   0x00007fe0       0x44 c:/program files/atmel/atmel toolchain/avr32 gcc/native/3.4.2.1002/avr32-gnu-toolchain/bin/../lib/gcc/avr32/4.4.7/../../../../avr32/lib/ucr3fp\libm.a(lib_a-e_asin.o)
 .debug_frame   0x00008024       0x44 c:/program files/atmel/atmel toolchain/avr32 gcc/native/3.4.2.1002/avr32-gnu-toolchain/bin/../lib/gcc/avr32/4.4.7/../../../../avr32/lib/ucr3fp\libm.a(lib_a-e_atan2.o)
 .debug_frame   0x00008068       0x44 c:/program files/atmel/atmel toolchain/avr32 gcc/native/3.4.2.1002/avr32-gnu-toolchain/bin/../lib/gcc/avr32/4.4.7/../../../../avr32/lib/ucr3fp\libm.a(lib_a-e_pow.o)
 .debug_frame   0x000080ac       0x4c c:/program files/atmel/atmel toolchain/avr32 gcc/native/3.4.2.1002/avr32-gnu-toolchain/bin/../lib/gcc/avr32/4.4.7/../../../../avr32/lib/ucr3fp\libm.a(lib_a-e_rem_pio2.o)
 .debug_frame   0x000080f8       0x40 c:/program files/atmel/atmel toolchain/avr32 gcc/native/3.4.2.1002/avr32-gnu-toolchain/bin/../lib/gcc/avr32/4.4.7/../../../../avr32/lib/ucr3fp\libm.a(lib_a-e_sqrt.o)
 .debug_frame   0x00008138       0x44 c:/program files/atmel/atmel toolchain/avr32 gcc/native/3.4.2.1002/avr32-gnu-toolchain/bin/../lib/gcc/avr32/4.4.7/../../../../avr32/lib/ucr3fp\libm.a(lib_a-k_cos.o)
 .debug_frame   0x0000817c       0x44 c:/program files/atmel/atmel toolchain/avr32 gcc/native/3.4.2.1002/avr32-gnu-toolchain/bin/../lib/gcc/avr32/4.4.7/../../../../avr32/lib/ucr3fp\libm.a(lib_a-k_rem_pio2.o)
 .debug_frame   0x000081c0       0x44 c:/program files/atmel/atmel toolchain/avr32 gcc/native/3.4.2.1002/avr32-gnu-toolchain/bin/../lib/gcc/avr32/4.4.7/../../../../avr32/lib/ucr3fp\libm.a(lib_a-k_sin.o)
 .debug_frame   0x00008204       0x44 c:/program files/atmel/atmel toolchain/avr32 gcc/native/3.4.2.1002/avr32-gnu-toolchain/bin/../lib/gcc/avr32/4.4.7/../../../../avr32/lib/ucr3fp\libm.a(lib_a-s_atan.o)
 .debug_frame   0x00008248       0x20 c:/program files/atmel/atmel toolchain/avr32 gcc/native/3.4.2.1002/avr32-gnu-toolchain/bin/../lib/gcc/avr32/4.4.7/../../../../avr32/lib/ucr3fp\libm.a(lib_a-s_fabs.o)
 .debug_frame   0x00008268       0x20 c:/program files/atmel/atmel toolchain/avr32 gcc/native/3.4.2.1002/avr32-gnu-toolchain/bin/../lib/gcc/avr32/4.4.7/../../../../avr32/lib/ucr3fp\libm.a(lib_a-s_finite.o)
 .debug_frame   0x00008288       0x40 c:/program files/atmel/atmel toolchain/avr32 gcc/native/3.4.2.1002/avr32-gnu-toolchain/bin/../lib/gcc/avr32/4.4.7/../../../../avr32/lib/ucr3fp\libm.a(lib_a-s_floor.o)
 .debug_frame   0x000082c8       0x20 c:/program files/atmel/atmel toolchain/avr32 gcc/native/3.4.2.1002/avr32-gnu-toolchain/bin/../lib/gcc/avr32/4.4.7/../../../../avr32/lib/ucr3fp\libm.a(lib_a-s_isnand.o)
 .debug_frame   0x000082e8       0x20 c:/program files/atmel/atmel toolchain/avr32 gcc/native/3.4.2.1002/avr32-gnu-toolchain/bin/../lib/gcc/avr32/4.4.7/../../../../avr32/lib/ucr3fp\libm.a(lib_a-s_matherr.o)
 .debug_frame   0x00008308       0x20 c:/program files/atmel/atmel toolchain/avr32 gcc/native/3.4.2.1002/avr32-gnu-toolchain/bin/../lib/gcc/avr32/4.4.7/../../../../avr32/lib/ucr3fp\libm.a(lib_a-s_nan.o)
 .debug_frame   0x00008328       0x38 c:/program files/atmel/atmel toolchain/avr32 gcc/native/3.4.2.1002/avr32-gnu-toolchain/bin/../lib/gcc/avr32/4.4.7/../../../../avr32/lib/ucr3fp\libm.a(lib_a-s_rint.o)
 .debug_frame   0x00008360       0x34 c:/program files/atmel/atmel toolchain/avr32 gcc/native/3.4.2.1002/avr32-gnu-toolchain/bin/../lib/gcc/avr32/4.4.7/../../../../avr32/lib/ucr3fp\libm.a(lib_a-s_scalbn.o)
 .debug_frame   0x00008394       0x34 c:/program files/atmel/atmel toolchain/avr32 gcc/native/3.4.2.1002/avr32-gnu-toolchain/bin/../lib/gcc/avr32/4.4.7/../../../../avr32/lib/ucr3fp\libm.a(lib_a-s_copysign.o)
 .debug_frame   0x000083c8       0x44 c:/program files/atmel/atmel toolchain/avr32 gcc/native/3.4.2.1002/avr32-gnu-toolchain/bin/../lib/gcc/avr32/4.4.7/ucr3fp\libgcc.a(_udivdi3.o)
 .debug_frame   0x0000840c       0x20 c:/program files/atmel/atmel toolchain/avr32 gcc/native/3.4.2.1002/avr32-gnu-toolchain/bin/../lib/gcc/avr32/4.4.7/../../../../avr32/lib/ucr3fp\libc.a(lib_a-errno.o)
 .debug_frame   0x0000842c       0x20 c:/program files/atmel/atmel toolchain/avr32 gcc/native/3.4.2.1002/avr32-gnu-toolchain/bin/../lib/gcc/avr32/4.4.7/../../../../avr32/lib/ucr3fp\libc.a(lib_a-memset.o)
 .debug_frame   0x0000844c       0x20 c:/program files/atmel/atmel toolchain/avr32 gcc/native/3.4.2.1002/avr32-gnu-toolchain/bin/../lib/gcc/avr32/4.4.7/../../../../avr32/lib/ucr3fp\libc.a(lib_a-strcpy.o)
 .debug_frame   0x0000846c       0x20 c:/program files/atmel/atmel toolchain/avr32 gcc/native/3.4.2.1002/avr32-gnu-toolchain/bin/../lib/gcc/avr32/4.4.7/../../../../avr32/lib/ucr3fp\libc.a(lib_a-strlen.o)
 .debug_frame   0x0000848c      0x13c c:/program files/atmel/atmel toolchain/avr32 gcc/native/3.4.2.1002/avr32-gnu-toolchain/bin/../lib/gcc/avr32/4.4.7/../../../../avr32/lib/ucr3fp\libc.a(lib_a-findfp.o)

.debug_str      0x00000000     0xed08
 *(.debug_str)
 .debug_str     0x00000000     0x12f2 Library/control/neighbor_selection.o
                               0x154d (size before relaxing)
 .debug_str     0x000012f2      0x3e9 Library/control/orca.o
                               0x142d (size before relaxing)
 .debug_str     0x000016db       0xac Library/control/pid_control.o
                                0x272 (size before relaxing)
 .debug_str     0x00001787      0x10e Library/control/stabilisation_copter.o
                               0x112f (size before relaxing)
 .debug_str     0x00001895       0xdf Library/hal/analog_monitor.o
                                0x197 (size before relaxing)
 .debug_str     0x00001974      0x23f Library/hal/time_keeper.o
                                0x373 (size before relaxing)
 .debug_str     0x00001bb3      0x20c Library/sensing/estimator.o
                               0x1225 (size before relaxing)
 .debug_str     0x00001dbf      0x14b Library/sensing/position_estimation.o
                                0x8ad (size before relaxing)
 .debug_str     0x00001f0a       0xf4 Library/sensing/qfilter.o
                                0x2fa (size before relaxing)
 .debug_str     0x00001ffe       0xa5 src/central_data.o
                               0x10a1 (size before relaxing)
 .debug_str     0x000020a3      0xd50 src/mavlink_actions.o
                               0x1fcd (size before relaxing)
 .debug_str     0x00002df3      0x34d src/tasks.o
                               0x1514 (size before relaxing)
 .debug_str     0x00003140      0x757 Library/communication/ishtar_stream.o
                                0xf2e (size before relaxing)
 .debug_str     0x00003897      0xcac Library/communication/mavlink_stream.o
                               0x2430 (size before relaxing)
 .debug_str     0x00004543      0x404 Library/communication/onboard_parameters.o
                                0xcdb (size before relaxing)
 .debug_str     0x00004947      0x13d Library/control/navigation.o
                               0x11c5 (size before relaxing)
 .debug_str     0x00004a84       0x2d Library/control/stabilisation.o
                                0x5b4 (size before relaxing)
 .debug_str     0x00004ab1      0x8a6 Library/hal/adc_int.o
                                0xa9d (size before relaxing)
 .debug_str     0x00005357      0xc5e Library/hal/ads1274.o
                                0xf0f (size before relaxing)
 .debug_str     0x00005fb5      0x36a Library/hal/adxl345_driver.o
                                0x523 (size before relaxing)
 .debug_str     0x0000631f      0x1ce Library/hal/bmp085.o
                                0x5e9 (size before relaxing)
 .debug_str     0x000064ed      0x1dd Library/hal/compass_hmc5883l.o
                                0x511 (size before relaxing)
 .debug_str     0x000066ca      0x81d Library/hal/dac_dma.o
                                0x9ee (size before relaxing)
 .debug_str     0x00006ee7      0x187 Library/hal/i2c_driver.o
                                0x6b0 (size before relaxing)
 .debug_str     0x0000706e       0xb1 Library/hal/itg3200_driver.o
                                0x54f (size before relaxing)
 .debug_str     0x0000711f      0x33e Library/hal/led.o
                                0x48f (size before relaxing)
 .debug_str     0x0000745d       0x59 Library/hal/radar_module_driver.o
                                0x3b6 (size before relaxing)
 .debug_str     0x000074b6      0x8d7 Library/hal/servo_pwm.o
                                0xa6a (size before relaxing)
 .debug_str     0x00007d8d      0x121 Library/hal/remote_dsm2.o
                                0xb90 (size before relaxing)
 .debug_str     0x00007eae      0x3aa Library/hal/spi_buffered.o
                                0x9ee (size before relaxing)
 .debug_str     0x00008258      0x127 Library/hal/uart_int.o
                                0xa02 (size before relaxing)
 .debug_str     0x0000837f      0x14c Library/runtime/scheduler.o
                                0x403 (size before relaxing)
 .debug_str     0x000084cb      0xaa8 Library/sensing/gps_ublox.o
                               0x1b0d (size before relaxing)
 .debug_str     0x00008f73       0xe7 Library/sensing/imu.o
                                0x88a (size before relaxing)
 .debug_str     0x0000905a      0x177 Library/sensing/simulation.o
                               0x1244 (size before relaxing)
 .debug_str     0x000091d1      0xc21 Library/sensing/mavlink_waypoint_handler.o
                               0x2663 (size before relaxing)
 .debug_str     0x00009df2       0xac Library/util/buffer.o
                                0x20f (size before relaxing)
 .debug_str     0x00009e9e       0x7d Library/util/coord_conventions.o
                                0x1fa (size before relaxing)
 .debug_str     0x00009f1b       0xdf Library/util/print_util.o
                                0x289 (size before relaxing)
 .debug_str     0x00009ffa      0x253 src/asf/avr32/drivers/adcifa/adcifa.o
                                0xa78 (size before relaxing)
 .debug_str     0x0000a24d      0x203 src/asf/avr32/drivers/ast/ast.o
                                0x503 (size before relaxing)
 .debug_str     0x0000a450      0x1de src/asf/avr32/drivers/dacifb/dacifb.o
                                0x595 (size before relaxing)
 .debug_str     0x0000a62e      0x19c src/asf/avr32/drivers/eic/eic.o
                                0x490 (size before relaxing)
 .debug_str     0x0000a7ca      0xa8c src/asf/avr32/drivers/flashc/flashc.o
                                0xc63 (size before relaxing)
 .debug_str     0x0000b256      0x35e src/asf/avr32/drivers/gpio/gpio.o
                                0x6c5 (size before relaxing)
 .debug_str     0x0000b5b4      0x646 src/asf/avr32/drivers/intc/intc.o
                                0x72c (size before relaxing)
 .debug_str     0x0000bbfa      0x254 src/asf/avr32/drivers/pdca/pdca.o
                                0x5f0 (size before relaxing)
 .debug_str     0x0000be4e      0x2a0 src/asf/avr32/drivers/pevc/pevc.o
                                0x526 (size before relaxing)
 .debug_str     0x0000c0ee      0x580 src/asf/avr32/drivers/scif/scif_uc3c.o
                                0xc1d (size before relaxing)
 .debug_str     0x0000c66e      0x22d src/asf/avr32/drivers/spi/spi.o
                                0x644 (size before relaxing)
 .debug_str     0x0000c89b      0x27c src/asf/avr32/drivers/twim/twim.o
                                0x6e0 (size before relaxing)
 .debug_str     0x0000cb17      0x398 src/asf/avr32/drivers/usart/usart.o
                                0xad1 (size before relaxing)
 .debug_str     0x0000ceaf       0x56 src/asf/avr32/services/delay/delay.o
                                0x1c3 (size before relaxing)
 .debug_str     0x0000cf05       0x36 src/asf/common/boards/user_board/init.o
                                0x108 (size before relaxing)
 .debug_str     0x0000cf3b       0xde src/asf/common/services/clock/uc3c/osc.o
                                0x65f (size before relaxing)
 .debug_str     0x0000d019       0x4f src/asf/common/services/clock/uc3c/pll.o
                                0x5d6 (size before relaxing)
 .debug_str     0x0000d068      0x4d4 src/asf/common/services/clock/uc3c/sysclk.o
                                0xc4a (size before relaxing)
 .debug_str     0x0000d53c       0xd2 src/asf/common/services/sleepmgr/uc3/sleepmgr.o
                                0x1ac (size before relaxing)
 .debug_str     0x0000d60e      0x16c src/asf/common/services/spi/uc3_spi/spi_master.o
                                0x6ae (size before relaxing)
 .debug_str     0x0000d77a       0x49 src/boardsupport.o
                               0x1919 (size before relaxing)
 .debug_str     0x0000d7c3       0x3d src/main.o
                               0x19a0 (size before relaxing)
 .debug_str     0x0000d800       0x9e c:/program files/atmel/atmel toolchain/avr32 gcc/native/3.4.2.1002/avr32-gnu-toolchain/bin/../lib/gcc/avr32/4.4.7/../../../../avr32/lib/ucr3fp\libm.a(lib_a-s_cos.o)
                                0x152 (size before relaxing)
 .debug_str     0x0000d89e       0x67 c:/program files/atmel/atmel toolchain/avr32 gcc/native/3.4.2.1002/avr32-gnu-toolchain/bin/../lib/gcc/avr32/4.4.7/../../../../avr32/lib/ucr3fp\libm.a(lib_a-s_sin.o)
                                0x152 (size before relaxing)
 .debug_str     0x0000d905       0xd7 c:/program files/atmel/atmel toolchain/avr32 gcc/native/3.4.2.1002/avr32-gnu-toolchain/bin/../lib/gcc/avr32/4.4.7/../../../../avr32/lib/ucr3fp\libm.a(lib_a-w_asin.o)
                                0x19b (size before relaxing)
 .debug_str     0x0000d9dc       0x69 c:/program files/atmel/atmel toolchain/avr32 gcc/native/3.4.2.1002/avr32-gnu-toolchain/bin/../lib/gcc/avr32/4.4.7/../../../../avr32/lib/ucr3fp\libm.a(lib_a-w_atan2.o)
                                0x11d (size before relaxing)
 .debug_str     0x0000da45       0x67 c:/program files/atmel/atmel toolchain/avr32 gcc/native/3.4.2.1002/avr32-gnu-toolchain/bin/../lib/gcc/avr32/4.4.7/../../../../avr32/lib/ucr3fp\libm.a(lib_a-w_pow.o)
                                0x195 (size before relaxing)
 .debug_str     0x0000daac       0x68 c:/program files/atmel/atmel toolchain/avr32 gcc/native/3.4.2.1002/avr32-gnu-toolchain/bin/../lib/gcc/avr32/4.4.7/../../../../avr32/lib/ucr3fp\libm.a(lib_a-w_sqrt.o)
                                0x19b (size before relaxing)
 .debug_str     0x0000db14       0x99 c:/program files/atmel/atmel toolchain/avr32 gcc/native/3.4.2.1002/avr32-gnu-toolchain/bin/../lib/gcc/avr32/4.4.7/../../../../avr32/lib/ucr3fp\libm.a(lib_a-e_asin.o)
                                0x184 (size before relaxing)
 .debug_str     0x0000dbad       0x9c c:/program files/atmel/atmel toolchain/avr32 gcc/native/3.4.2.1002/avr32-gnu-toolchain/bin/../lib/gcc/avr32/4.4.7/../../../../avr32/lib/ucr3fp\libm.a(lib_a-e_atan2.o)
                                0x187 (size before relaxing)
 .debug_str     0x0000dc49       0xb8 c:/program files/atmel/atmel toolchain/avr32 gcc/native/3.4.2.1002/avr32-gnu-toolchain/bin/../lib/gcc/avr32/4.4.7/../../../../avr32/lib/ucr3fp\libm.a(lib_a-e_pow.o)
                                0x1c1 (size before relaxing)
 .debug_str     0x0000dd01       0xd4 c:/program files/atmel/atmel toolchain/avr32 gcc/native/3.4.2.1002/avr32-gnu-toolchain/bin/../lib/gcc/avr32/4.4.7/../../../../avr32/lib/ucr3fp\libm.a(lib_a-e_rem_pio2.o)
                                0x1ce (size before relaxing)
 .debug_str     0x0000ddd5       0x7c c:/program files/atmel/atmel toolchain/avr32 gcc/native/3.4.2.1002/avr32-gnu-toolchain/bin/../lib/gcc/avr32/4.4.7/../../../../avr32/lib/ucr3fp\libm.a(lib_a-e_sqrt.o)
                                0x171 (size before relaxing)
 .debug_str     0x0000de51       0x74 c:/program files/atmel/atmel toolchain/avr32 gcc/native/3.4.2.1002/avr32-gnu-toolchain/bin/../lib/gcc/avr32/4.4.7/../../../../avr32/lib/ucr3fp\libm.a(lib_a-k_cos.o)
                                0x164 (size before relaxing)
 .debug_str     0x0000dec5       0xa8 c:/program files/atmel/atmel toolchain/avr32 gcc/native/3.4.2.1002/avr32-gnu-toolchain/bin/../lib/gcc/avr32/4.4.7/../../../../avr32/lib/ucr3fp\libm.a(lib_a-k_rem_pio2.o)
                                0x170 (size before relaxing)
 .debug_str     0x0000df6d       0x74 c:/program files/atmel/atmel toolchain/avr32 gcc/native/3.4.2.1002/avr32-gnu-toolchain/bin/../lib/gcc/avr32/4.4.7/../../../../avr32/lib/ucr3fp\libm.a(lib_a-k_sin.o)
                                0x131 (size before relaxing)
 .debug_str     0x0000dfe1       0x7b c:/program files/atmel/atmel toolchain/avr32 gcc/native/3.4.2.1002/avr32-gnu-toolchain/bin/../lib/gcc/avr32/4.4.7/../../../../avr32/lib/ucr3fp\libm.a(lib_a-s_atan.o)
                                0x16b (size before relaxing)
 .debug_str     0x0000e05c       0x6d c:/program files/atmel/atmel toolchain/avr32 gcc/native/3.4.2.1002/avr32-gnu-toolchain/bin/../lib/gcc/avr32/4.4.7/../../../../avr32/lib/ucr3fp\libm.a(lib_a-s_fabs.o)
                                0x153 (size before relaxing)
 .debug_str     0x0000e0c9       0x73 c:/program files/atmel/atmel toolchain/avr32 gcc/native/3.4.2.1002/avr32-gnu-toolchain/bin/../lib/gcc/avr32/4.4.7/../../../../avr32/lib/ucr3fp\libm.a(lib_a-s_finite.o)
                                0x15e (size before relaxing)
 .debug_str     0x0000e13c       0x6f c:/program files/atmel/atmel toolchain/avr32 gcc/native/3.4.2.1002/avr32-gnu-toolchain/bin/../lib/gcc/avr32/4.4.7/../../../../avr32/lib/ucr3fp\libm.a(lib_a-s_floor.o)
                                0x164 (size before relaxing)
 .debug_str     0x0000e1ab       0x75 c:/program files/atmel/atmel toolchain/avr32 gcc/native/3.4.2.1002/avr32-gnu-toolchain/bin/../lib/gcc/avr32/4.4.7/../../../../avr32/lib/ucr3fp\libm.a(lib_a-s_isnand.o)
                                0x160 (size before relaxing)
 .debug_str     0x0000e220       0x6d c:/program files/atmel/atmel toolchain/avr32 gcc/native/3.4.2.1002/avr32-gnu-toolchain/bin/../lib/gcc/avr32/4.4.7/../../../../avr32/lib/ucr3fp\libm.a(lib_a-s_lib_ver.o)
                                0x176 (size before relaxing)
 .debug_str     0x0000e28d       0x75 c:/program files/atmel/atmel toolchain/avr32 gcc/native/3.4.2.1002/avr32-gnu-toolchain/bin/../lib/gcc/avr32/4.4.7/../../../../avr32/lib/ucr3fp\libm.a(lib_a-s_matherr.o)
                                0x148 (size before relaxing)
 .debug_str     0x0000e302       0x70 c:/program files/atmel/atmel toolchain/avr32 gcc/native/3.4.2.1002/avr32-gnu-toolchain/bin/../lib/gcc/avr32/4.4.7/../../../../avr32/lib/ucr3fp\libm.a(lib_a-s_nan.o)
                                0x11e (size before relaxing)
 .debug_str     0x0000e372       0x70 c:/program files/atmel/atmel toolchain/avr32 gcc/native/3.4.2.1002/avr32-gnu-toolchain/bin/../lib/gcc/avr32/4.4.7/../../../../avr32/lib/ucr3fp\libm.a(lib_a-s_rint.o)
                                0x165 (size before relaxing)
 .debug_str     0x0000e3e2       0x80 c:/program files/atmel/atmel toolchain/avr32 gcc/native/3.4.2.1002/avr32-gnu-toolchain/bin/../lib/gcc/avr32/4.4.7/../../../../avr32/lib/ucr3fp\libm.a(lib_a-s_scalbn.o)
                                0x17f (size before relaxing)
 .debug_str     0x0000e462       0x77 c:/program files/atmel/atmel toolchain/avr32 gcc/native/3.4.2.1002/avr32-gnu-toolchain/bin/../lib/gcc/avr32/4.4.7/../../../../avr32/lib/ucr3fp\libm.a(lib_a-s_copysign.o)
                                0x158 (size before relaxing)
 .debug_str     0x0000e4d9      0x146 c:/program files/atmel/atmel toolchain/avr32 gcc/native/3.4.2.1002/avr32-gnu-toolchain/bin/../lib/gcc/avr32/4.4.7/ucr3fp\libgcc.a(_udivdi3.o)
                                0x1fb (size before relaxing)
 .debug_str     0x0000e61f      0x39a c:/program files/atmel/atmel toolchain/avr32 gcc/native/3.4.2.1002/avr32-gnu-toolchain/bin/../lib/gcc/avr32/4.4.7/../../../../avr32/lib/ucr3fp\libc.a(lib_a-errno.o)
                                0x4a7 (size before relaxing)
 .debug_str     0x0000e9b9       0xc7 c:/program files/atmel/atmel toolchain/avr32 gcc/native/3.4.2.1002/avr32-gnu-toolchain/bin/../lib/gcc/avr32/4.4.7/../../../../avr32/lib/ucr3fp\libc.a(lib_a-impure.o)
                                0x4fe (size before relaxing)
 .debug_str     0x0000ea80       0x71 c:/program files/atmel/atmel toolchain/avr32 gcc/native/3.4.2.1002/avr32-gnu-toolchain/bin/../lib/gcc/avr32/4.4.7/../../../../avr32/lib/ucr3fp\libc.a(lib_a-memset.o)
                                0x10d (size before relaxing)
 .debug_str     0x0000eaf1       0x7b c:/program files/atmel/atmel toolchain/avr32 gcc/native/3.4.2.1002/avr32-gnu-toolchain/bin/../lib/gcc/avr32/4.4.7/../../../../avr32/lib/ucr3fp\libc.a(lib_a-strcpy.o)
                                0x110 (size before relaxing)
 .debug_str     0x0000eb6c       0x71 c:/program files/atmel/atmel toolchain/avr32 gcc/native/3.4.2.1002/avr32-gnu-toolchain/bin/../lib/gcc/avr32/4.4.7/../../../../avr32/lib/ucr3fp\libc.a(lib_a-strlen.o)
                                0x113 (size before relaxing)
 .debug_str     0x0000ebdd      0x12b c:/program files/atmel/atmel toolchain/avr32 gcc/native/3.4.2.1002/avr32-gnu-toolchain/bin/../lib/gcc/avr32/4.4.7/../../../../avr32/lib/ucr3fp\libc.a(lib_a-findfp.o)
                                0x5d8 (size before relaxing)

.debug_loc      0x00000000     0xd650
 *(.debug_loc)
 .debug_loc     0x00000000      0x331 Library/control/neighbor_selection.o
 .debug_loc     0x00000331      0x2b0 Library/control/orca.o
 .debug_loc     0x000005e1      0x1ae Library/control/pid_control.o
 .debug_loc     0x0000078f      0x158 Library/control/stabilisation_copter.o
 .debug_loc     0x000008e7      0x12d Library/hal/analog_monitor.o
 .debug_loc     0x00000a14      0x102 Library/hal/time_keeper.o
 .debug_loc     0x00000b16      0x22f Library/sensing/estimator.o
 .debug_loc     0x00000d45      0x1d9 Library/sensing/position_estimation.o
 .debug_loc     0x00000f1e      0x183 Library/sensing/qfilter.o
 .debug_loc     0x000010a1      0x158 src/central_data.o
 .debug_loc     0x000011f9      0x8e7 src/mavlink_actions.o
 .debug_loc     0x00001ae0      0x2db src/tasks.o
 .debug_loc     0x00001dbb      0x102 Library/communication/ishtar_stream.o
 .debug_loc     0x00001ebd      0x866 Library/communication/mavlink_stream.o
 .debug_loc     0x00002723      0x560 Library/communication/onboard_parameters.o
 .debug_loc     0x00002c83      0x2b0 Library/control/navigation.o
 .debug_loc     0x00002f33       0x2b Library/control/stabilisation.o
 .debug_loc     0x00002f5e      0x1ae Library/hal/adc_int.o
 .debug_loc     0x0000310c      0x2db Library/hal/ads1274.o
 .debug_loc     0x000033e7       0xac Library/hal/adxl345_driver.o
 .debug_loc     0x00003493      0x12d Library/hal/bmp085.o
 .debug_loc     0x000035c0       0x56 Library/hal/compass_hmc5883l.o
 .debug_loc     0x00003616      0x1ae Library/hal/dac_dma.o
 .debug_loc     0x000037c4      0x22f Library/hal/i2c_driver.o
 .debug_loc     0x000039f3       0xd7 Library/hal/itg3200_driver.o
 .debug_loc     0x00003aca      0x204 Library/hal/led.o
 .debug_loc     0x00003cce       0x81 Library/hal/radar_module_driver.o
 .debug_loc     0x00003d4f       0x81 Library/hal/servo_pwm.o
 .debug_loc     0x00003dd0      0x1d9 Library/hal/remote_dsm2.o
 .debug_loc     0x00003fa9      0x60c Library/hal/spi_buffered.o
 .debug_loc     0x000045b5      0x306 Library/hal/uart_int.o
 .debug_loc     0x000048bb      0x1d9 Library/runtime/scheduler.o
 .debug_loc     0x00004a94      0x489 Library/sensing/gps_ublox.o
 .debug_loc     0x00004f1d       0xac Library/sensing/imu.o
 .debug_loc     0x00004fc9      0x2b0 Library/sensing/simulation.o
 .debug_loc     0x00005279      0xd70 Library/sensing/mavlink_waypoint_handler.o
 .debug_loc     0x00005fe9      0x1ae Library/util/buffer.o
 .debug_loc     0x00006197       0xac Library/util/coord_conventions.o
 .debug_loc     0x00006243      0x25a Library/util/print_util.o
 .debug_loc     0x0000649d      0x22f src/asf/avr32/drivers/adcifa/adcifa.o
 .debug_loc     0x000066cc      0x387 src/asf/avr32/drivers/ast/ast.o
 .debug_loc     0x00006a53      0x158 src/asf/avr32/drivers/dacifb/dacifb.o
 .debug_loc     0x00006bab      0x2b0 src/asf/avr32/drivers/eic/eic.o
 .debug_loc     0x00006e5b      0xb16 src/asf/avr32/drivers/flashc/flashc.o
 .debug_loc     0x00007971      0x5b6 src/asf/avr32/drivers/gpio/gpio.o
 .debug_loc     0x00007f27       0xd7 src/asf/avr32/drivers/intc/intc.o
 .debug_loc     0x00007ffe      0x387 src/asf/avr32/drivers/pdca/pdca.o
 .debug_loc     0x00008385      0x331 src/asf/avr32/drivers/pevc/pevc.o
 .debug_loc     0x000086b6      0x739 src/asf/avr32/drivers/scif/scif_uc3c.o
 .debug_loc     0x00008def      0x306 src/asf/avr32/drivers/spi/spi.o
 .debug_loc     0x000090f5      0x285 src/asf/avr32/drivers/twim/twim.o
 .debug_loc     0x0000937a      0x50a src/asf/avr32/drivers/usart/usart.o
 .debug_loc     0x00009884       0x56 src/asf/avr32/services/delay/delay.o
 .debug_loc     0x000098da       0x2b src/asf/common/boards/user_board/init.o
 .debug_loc     0x00009905      0x1ae src/asf/common/services/clock/uc3c/osc.o
 .debug_loc     0x00009ab3       0xd7 src/asf/common/services/clock/uc3c/pll.o
 .debug_loc     0x00009b8a      0x408 src/asf/common/services/clock/uc3c/sysclk.o
 .debug_loc     0x00009f92      0x306 src/asf/common/services/spi/uc3_spi/spi_master.o
 .debug_loc     0x0000a298      0x102 src/boardsupport.o
 .debug_loc     0x0000a39a       0x81 src/main.o
 .debug_loc     0x0000a41b       0xac c:/program files/atmel/atmel toolchain/avr32 gcc/native/3.4.2.1002/avr32-gnu-toolchain/bin/../lib/gcc/avr32/4.4.7/../../../../avr32/lib/ucr3fp\libm.a(lib_a-s_cos.o)
 .debug_loc     0x0000a4c7       0xac c:/program files/atmel/atmel toolchain/avr32 gcc/native/3.4.2.1002/avr32-gnu-toolchain/bin/../lib/gcc/avr32/4.4.7/../../../../avr32/lib/ucr3fp\libm.a(lib_a-s_sin.o)
 .debug_loc     0x0000a573       0x7c c:/program files/atmel/atmel toolchain/avr32 gcc/native/3.4.2.1002/avr32-gnu-toolchain/bin/../lib/gcc/avr32/4.4.7/../../../../avr32/lib/ucr3fp\libm.a(lib_a-w_asin.o)
 .debug_loc     0x0000a5ef       0x4f c:/program files/atmel/atmel toolchain/avr32 gcc/native/3.4.2.1002/avr32-gnu-toolchain/bin/../lib/gcc/avr32/4.4.7/../../../../avr32/lib/ucr3fp\libm.a(lib_a-w_atan2.o)
 .debug_loc     0x0000a63e       0xa4 c:/program files/atmel/atmel toolchain/avr32 gcc/native/3.4.2.1002/avr32-gnu-toolchain/bin/../lib/gcc/avr32/4.4.7/../../../../avr32/lib/ucr3fp\libm.a(lib_a-w_pow.o)
 .debug_loc     0x0000a6e2       0x7c c:/program files/atmel/atmel toolchain/avr32 gcc/native/3.4.2.1002/avr32-gnu-toolchain/bin/../lib/gcc/avr32/4.4.7/../../../../avr32/lib/ucr3fp\libm.a(lib_a-w_sqrt.o)
 .debug_loc     0x0000a75e      0x18f c:/program files/atmel/atmel toolchain/avr32 gcc/native/3.4.2.1002/avr32-gnu-toolchain/bin/../lib/gcc/avr32/4.4.7/../../../../avr32/lib/ucr3fp\libm.a(lib_a-e_asin.o)
 .debug_loc     0x0000a8ed      0x4e5 c:/program files/atmel/atmel toolchain/avr32 gcc/native/3.4.2.1002/avr32-gnu-toolchain/bin/../lib/gcc/avr32/4.4.7/../../../../avr32/lib/ucr3fp\libm.a(lib_a-e_atan2.o)
 .debug_loc     0x0000add2      0x702 c:/program files/atmel/atmel toolchain/avr32 gcc/native/3.4.2.1002/avr32-gnu-toolchain/bin/../lib/gcc/avr32/4.4.7/../../../../avr32/lib/ucr3fp\libm.a(lib_a-e_pow.o)
 .debug_loc     0x0000b4d4      0x317 c:/program files/atmel/atmel toolchain/avr32 gcc/native/3.4.2.1002/avr32-gnu-toolchain/bin/../lib/gcc/avr32/4.4.7/../../../../avr32/lib/ucr3fp\libm.a(lib_a-e_rem_pio2.o)
 .debug_loc     0x0000b7eb      0x2fd c:/program files/atmel/atmel toolchain/avr32 gcc/native/3.4.2.1002/avr32-gnu-toolchain/bin/../lib/gcc/avr32/4.4.7/../../../../avr32/lib/ucr3fp\libm.a(lib_a-e_sqrt.o)
 .debug_loc     0x0000bae8       0xdf c:/program files/atmel/atmel toolchain/avr32 gcc/native/3.4.2.1002/avr32-gnu-toolchain/bin/../lib/gcc/avr32/4.4.7/../../../../avr32/lib/ucr3fp\libm.a(lib_a-k_cos.o)
 .debug_loc     0x0000bbc7      0x627 c:/program files/atmel/atmel toolchain/avr32 gcc/native/3.4.2.1002/avr32-gnu-toolchain/bin/../lib/gcc/avr32/4.4.7/../../../../avr32/lib/ucr3fp\libm.a(lib_a-k_rem_pio2.o)
 .debug_loc     0x0000c1ee       0x89 c:/program files/atmel/atmel toolchain/avr32 gcc/native/3.4.2.1002/avr32-gnu-toolchain/bin/../lib/gcc/avr32/4.4.7/../../../../avr32/lib/ucr3fp\libm.a(lib_a-k_sin.o)
 .debug_loc     0x0000c277      0x243 c:/program files/atmel/atmel toolchain/avr32 gcc/native/3.4.2.1002/avr32-gnu-toolchain/bin/../lib/gcc/avr32/4.4.7/../../../../avr32/lib/ucr3fp\libm.a(lib_a-s_atan.o)
 .debug_loc     0x0000c4ba       0x18 c:/program files/atmel/atmel toolchain/avr32 gcc/native/3.4.2.1002/avr32-gnu-toolchain/bin/../lib/gcc/avr32/4.4.7/../../../../avr32/lib/ucr3fp\libm.a(lib_a-s_fabs.o)
 .debug_loc     0x0000c4d2       0x18 c:/program files/atmel/atmel toolchain/avr32 gcc/native/3.4.2.1002/avr32-gnu-toolchain/bin/../lib/gcc/avr32/4.4.7/../../../../avr32/lib/ucr3fp\libm.a(lib_a-s_finite.o)
 .debug_loc     0x0000c4ea      0x214 c:/program files/atmel/atmel toolchain/avr32 gcc/native/3.4.2.1002/avr32-gnu-toolchain/bin/../lib/gcc/avr32/4.4.7/../../../../avr32/lib/ucr3fp\libm.a(lib_a-s_floor.o)
 .debug_loc     0x0000c6fe       0x18 c:/program files/atmel/atmel toolchain/avr32 gcc/native/3.4.2.1002/avr32-gnu-toolchain/bin/../lib/gcc/avr32/4.4.7/../../../../avr32/lib/ucr3fp\libm.a(lib_a-s_isnand.o)
 .debug_loc     0x0000c716       0x13 c:/program files/atmel/atmel toolchain/avr32 gcc/native/3.4.2.1002/avr32-gnu-toolchain/bin/../lib/gcc/avr32/4.4.7/../../../../avr32/lib/ucr3fp\libm.a(lib_a-s_matherr.o)
 .debug_loc     0x0000c729      0x26b c:/program files/atmel/atmel toolchain/avr32 gcc/native/3.4.2.1002/avr32-gnu-toolchain/bin/../lib/gcc/avr32/4.4.7/../../../../avr32/lib/ucr3fp\libm.a(lib_a-s_rint.o)
 .debug_loc     0x0000c994      0x2f0 c:/program files/atmel/atmel toolchain/avr32 gcc/native/3.4.2.1002/avr32-gnu-toolchain/bin/../lib/gcc/avr32/4.4.7/../../../../avr32/lib/ucr3fp\libm.a(lib_a-s_scalbn.o)
 .debug_loc     0x0000cc84       0x4f c:/program files/atmel/atmel toolchain/avr32 gcc/native/3.4.2.1002/avr32-gnu-toolchain/bin/../lib/gcc/avr32/4.4.7/../../../../avr32/lib/ucr3fp\libm.a(lib_a-s_copysign.o)
 .debug_loc     0x0000ccd3      0x75d c:/program files/atmel/atmel toolchain/avr32 gcc/native/3.4.2.1002/avr32-gnu-toolchain/bin/../lib/gcc/avr32/4.4.7/ucr3fp\libgcc.a(_udivdi3.o)
 .debug_loc     0x0000d430       0x1e c:/program files/atmel/atmel toolchain/avr32 gcc/native/3.4.2.1002/avr32-gnu-toolchain/bin/../lib/gcc/avr32/4.4.7/../../../../avr32/lib/ucr3fp\libc.a(lib_a-strlen.o)
 .debug_loc     0x0000d44e      0x202 c:/program files/atmel/atmel toolchain/avr32 gcc/native/3.4.2.1002/avr32-gnu-toolchain/bin/../lib/gcc/avr32/4.4.7/../../../../avr32/lib/ucr3fp\libc.a(lib_a-findfp.o)

.debug_macinfo
 *(.debug_macinfo)

.debug_weaknames
 *(.debug_weaknames)

.debug_funcnames
 *(.debug_funcnames)

.debug_typenames
 *(.debug_typenames)

.debug_varnames
 *(.debug_varnames)

.stack          0x0000f000     0x1000
                0x0000f000                _stack = .
 *(.stack)
                0x00001000                . = _stack_size
 *fill*         0x0000f000     0x1000 
                0x00010000                _estack = .

.userpage
 *(.userpage .userpage.*)

.factorypage
 *(.factorypage .factorypage.*)

.flashvault_flash_size
 *(.flashvault_flash_size .flashvault_flash_size.*)

.flashvault_ram_size
 *(.flashvault_ram_size .flashvault_ram_size.*)

/DISCARD/
 *(.note.GNU-stack)
OUTPUT(MegaFly2.elf elf32-avr32)

.debug_ranges   0x00000000      0x5d8
 .debug_ranges  0x00000000       0x18 Library/communication/onboard_parameters.o
 .debug_ranges  0x00000018       0x20 src/asf/avr32/utils/startup/startup_uc3.o
 .debug_ranges  0x00000038       0x18 c:/program files/atmel/atmel toolchain/avr32 gcc/native/3.4.2.1002/avr32-gnu-toolchain/bin/../lib/gcc/avr32/4.4.7/../../../../avr32/lib/ucr3fp\libm.a(lib_a-s_cos.o)
 .debug_ranges  0x00000050       0x18 c:/program files/atmel/atmel toolchain/avr32 gcc/native/3.4.2.1002/avr32-gnu-toolchain/bin/../lib/gcc/avr32/4.4.7/../../../../avr32/lib/ucr3fp\libm.a(lib_a-s_sin.o)
 .debug_ranges  0x00000068       0x18 c:/program files/atmel/atmel toolchain/avr32 gcc/native/3.4.2.1002/avr32-gnu-toolchain/bin/../lib/gcc/avr32/4.4.7/../../../../avr32/lib/ucr3fp\libm.a(lib_a-w_asin.o)
 .debug_ranges  0x00000080       0x18 c:/program files/atmel/atmel toolchain/avr32 gcc/native/3.4.2.1002/avr32-gnu-toolchain/bin/../lib/gcc/avr32/4.4.7/../../../../avr32/lib/ucr3fp\libm.a(lib_a-w_atan2.o)
 .debug_ranges  0x00000098       0x18 c:/program files/atmel/atmel toolchain/avr32 gcc/native/3.4.2.1002/avr32-gnu-toolchain/bin/../lib/gcc/avr32/4.4.7/../../../../avr32/lib/ucr3fp\libm.a(lib_a-w_pow.o)
 .debug_ranges  0x000000b0       0x18 c:/program files/atmel/atmel toolchain/avr32 gcc/native/3.4.2.1002/avr32-gnu-toolchain/bin/../lib/gcc/avr32/4.4.7/../../../../avr32/lib/ucr3fp\libm.a(lib_a-w_sqrt.o)
 .debug_ranges  0x000000c8       0x30 c:/program files/atmel/atmel toolchain/avr32 gcc/native/3.4.2.1002/avr32-gnu-toolchain/bin/../lib/gcc/avr32/4.4.7/../../../../avr32/lib/ucr3fp\libm.a(lib_a-e_asin.o)
 .debug_ranges  0x000000f8       0x48 c:/program files/atmel/atmel toolchain/avr32 gcc/native/3.4.2.1002/avr32-gnu-toolchain/bin/../lib/gcc/avr32/4.4.7/../../../../avr32/lib/ucr3fp\libm.a(lib_a-e_atan2.o)
 .debug_ranges  0x00000140      0x158 c:/program files/atmel/atmel toolchain/avr32 gcc/native/3.4.2.1002/avr32-gnu-toolchain/bin/../lib/gcc/avr32/4.4.7/../../../../avr32/lib/ucr3fp\libm.a(lib_a-e_pow.o)
 .debug_ranges  0x00000298       0x30 c:/program files/atmel/atmel toolchain/avr32 gcc/native/3.4.2.1002/avr32-gnu-toolchain/bin/../lib/gcc/avr32/4.4.7/../../../../avr32/lib/ucr3fp\libm.a(lib_a-e_rem_pio2.o)
 .debug_ranges  0x000002c8       0x38 c:/program files/atmel/atmel toolchain/avr32 gcc/native/3.4.2.1002/avr32-gnu-toolchain/bin/../lib/gcc/avr32/4.4.7/../../../../avr32/lib/ucr3fp\libm.a(lib_a-e_sqrt.o)
 .debug_ranges  0x00000300       0x18 c:/program files/atmel/atmel toolchain/avr32 gcc/native/3.4.2.1002/avr32-gnu-toolchain/bin/../lib/gcc/avr32/4.4.7/../../../../avr32/lib/ucr3fp\libm.a(lib_a-k_cos.o)
 .debug_ranges  0x00000318       0x18 c:/program files/atmel/atmel toolchain/avr32 gcc/native/3.4.2.1002/avr32-gnu-toolchain/bin/../lib/gcc/avr32/4.4.7/../../../../avr32/lib/ucr3fp\libm.a(lib_a-k_rem_pio2.o)
 .debug_ranges  0x00000330       0x18 c:/program files/atmel/atmel toolchain/avr32 gcc/native/3.4.2.1002/avr32-gnu-toolchain/bin/../lib/gcc/avr32/4.4.7/../../../../avr32/lib/ucr3fp\libm.a(lib_a-k_sin.o)
 .debug_ranges  0x00000348       0x18 c:/program files/atmel/atmel toolchain/avr32 gcc/native/3.4.2.1002/avr32-gnu-toolchain/bin/../lib/gcc/avr32/4.4.7/../../../../avr32/lib/ucr3fp\libm.a(lib_a-s_atan.o)
 .debug_ranges  0x00000360       0x18 c:/program files/atmel/atmel toolchain/avr32 gcc/native/3.4.2.1002/avr32-gnu-toolchain/bin/../lib/gcc/avr32/4.4.7/../../../../avr32/lib/ucr3fp\libm.a(lib_a-s_fabs.o)
 .debug_ranges  0x00000378       0x18 c:/program files/atmel/atmel toolchain/avr32 gcc/native/3.4.2.1002/avr32-gnu-toolchain/bin/../lib/gcc/avr32/4.4.7/../../../../avr32/lib/ucr3fp\libm.a(lib_a-s_finite.o)
 .debug_ranges  0x00000390       0x18 c:/program files/atmel/atmel toolchain/avr32 gcc/native/3.4.2.1002/avr32-gnu-toolchain/bin/../lib/gcc/avr32/4.4.7/../../../../avr32/lib/ucr3fp\libm.a(lib_a-s_floor.o)
 .debug_ranges  0x000003a8       0x18 c:/program files/atmel/atmel toolchain/avr32 gcc/native/3.4.2.1002/avr32-gnu-toolchain/bin/../lib/gcc/avr32/4.4.7/../../../../avr32/lib/ucr3fp\libm.a(lib_a-s_isnand.o)
 .debug_ranges  0x000003c0       0x18 c:/program files/atmel/atmel toolchain/avr32 gcc/native/3.4.2.1002/avr32-gnu-toolchain/bin/../lib/gcc/avr32/4.4.7/../../../../avr32/lib/ucr3fp\libm.a(lib_a-s_matherr.o)
 .debug_ranges  0x000003d8       0x18 c:/program files/atmel/atmel toolchain/avr32 gcc/native/3.4.2.1002/avr32-gnu-toolchain/bin/../lib/gcc/avr32/4.4.7/../../../../avr32/lib/ucr3fp\libm.a(lib_a-s_nan.o)
 .debug_ranges  0x000003f0       0x18 c:/program files/atmel/atmel toolchain/avr32 gcc/native/3.4.2.1002/avr32-gnu-toolchain/bin/../lib/gcc/avr32/4.4.7/../../../../avr32/lib/ucr3fp\libm.a(lib_a-s_rint.o)
 .debug_ranges  0x00000408       0x30 c:/program files/atmel/atmel toolchain/avr32 gcc/native/3.4.2.1002/avr32-gnu-toolchain/bin/../lib/gcc/avr32/4.4.7/../../../../avr32/lib/ucr3fp\libm.a(lib_a-s_scalbn.o)
 .debug_ranges  0x00000438       0x18 c:/program files/atmel/atmel toolchain/avr32 gcc/native/3.4.2.1002/avr32-gnu-toolchain/bin/../lib/gcc/avr32/4.4.7/../../../../avr32/lib/ucr3fp\libm.a(lib_a-s_copysign.o)
 .debug_ranges  0x00000450       0x78 c:/program files/atmel/atmel toolchain/avr32 gcc/native/3.4.2.1002/avr32-gnu-toolchain/bin/../lib/gcc/avr32/4.4.7/ucr3fp\libgcc.a(_udivdi3.o)
 .debug_ranges  0x000004c8       0x18 c:/program files/atmel/atmel toolchain/avr32 gcc/native/3.4.2.1002/avr32-gnu-toolchain/bin/../lib/gcc/avr32/4.4.7/../../../../avr32/lib/ucr3fp\libc.a(lib_a-errno.o)
 .debug_ranges  0x000004e0       0x18 c:/program files/atmel/atmel toolchain/avr32 gcc/native/3.4.2.1002/avr32-gnu-toolchain/bin/../lib/gcc/avr32/4.4.7/../../../../avr32/lib/ucr3fp\libc.a(lib_a-memset.o)
 .debug_ranges  0x000004f8       0x18 c:/program files/atmel/atmel toolchain/avr32 gcc/native/3.4.2.1002/avr32-gnu-toolchain/bin/../lib/gcc/avr32/4.4.7/../../../../avr32/lib/ucr3fp\libc.a(lib_a-strcpy.o)
 .debug_ranges  0x00000510       0x18 c:/program files/atmel/atmel toolchain/avr32 gcc/native/3.4.2.1002/avr32-gnu-toolchain/bin/../lib/gcc/avr32/4.4.7/../../../../avr32/lib/ucr3fp\libc.a(lib_a-strlen.o)
 .debug_ranges  0x00000528       0xb0 c:/program files/atmel/atmel toolchain/avr32 gcc/native/3.4.2.1002/avr32-gnu-toolchain/bin/../lib/gcc/avr32/4.4.7/../../../../avr32/lib/ucr3fp\libc.a(lib_a-findfp.o)
