Archive member included because of file (symbol)

c:/program files (x86)/atmel/atmel toolchain/avr32 gcc/native/3.4.2.1002/avr32-gnu-toolchain/bin/../lib/gcc/avr32/4.4.7/../../../../avr32/lib/ucr3fp\libm.a(lib_a-s_cos.o)
                              Library/sensing/qfilter.o (cos)
c:/program files (x86)/atmel/atmel toolchain/avr32 gcc/native/3.4.2.1002/avr32-gnu-toolchain/bin/../lib/gcc/avr32/4.4.7/../../../../avr32/lib/ucr3fp\libm.a(lib_a-s_sin.o)
                              Library/sensing/qfilter.o (sin)
c:/program files (x86)/atmel/atmel toolchain/avr32 gcc/native/3.4.2.1002/avr32-gnu-toolchain/bin/../lib/gcc/avr32/4.4.7/../../../../avr32/lib/ucr3fp\libm.a(lib_a-w_asin.o)
                              Library/util/coord_conventions.o (asin)
c:/program files (x86)/atmel/atmel toolchain/avr32 gcc/native/3.4.2.1002/avr32-gnu-toolchain/bin/../lib/gcc/avr32/4.4.7/../../../../avr32/lib/ucr3fp\libm.a(lib_a-w_atan2.o)
                              Library/control/stabilisation_copter.o (atan2)
c:/program files (x86)/atmel/atmel toolchain/avr32 gcc/native/3.4.2.1002/avr32-gnu-toolchain/bin/../lib/gcc/avr32/4.4.7/../../../../avr32/lib/ucr3fp\libm.a(lib_a-w_fmod.o)
                              Library/util/quick_trig.o (fmod)
c:/program files (x86)/atmel/atmel toolchain/avr32 gcc/native/3.4.2.1002/avr32-gnu-toolchain/bin/../lib/gcc/avr32/4.4.7/../../../../avr32/lib/ucr3fp\libm.a(lib_a-w_pow.o)
                              Library/hal/bmp085.o (pow)
c:/program files (x86)/atmel/atmel toolchain/avr32 gcc/native/3.4.2.1002/avr32-gnu-toolchain/bin/../lib/gcc/avr32/4.4.7/../../../../avr32/lib/ucr3fp\libm.a(lib_a-w_sqrt.o)
                              Library/communication/mavlink_waypoint_handler.o (sqrt)
c:/program files (x86)/atmel/atmel toolchain/avr32 gcc/native/3.4.2.1002/avr32-gnu-toolchain/bin/../lib/gcc/avr32/4.4.7/../../../../avr32/lib/ucr3fp\libm.a(lib_a-wf_acos.o)
                              Library/control/stabilisation_hybrid.o (acosf)
c:/program files (x86)/atmel/atmel toolchain/avr32 gcc/native/3.4.2.1002/avr32-gnu-toolchain/bin/../lib/gcc/avr32/4.4.7/../../../../avr32/lib/ucr3fp\libm.a(lib_a-e_asin.o)
                              c:/program files (x86)/atmel/atmel toolchain/avr32 gcc/native/3.4.2.1002/avr32-gnu-toolchain/bin/../lib/gcc/avr32/4.4.7/../../../../avr32/lib/ucr3fp\libm.a(lib_a-w_asin.o) (__ieee754_asin)
c:/program files (x86)/atmel/atmel toolchain/avr32 gcc/native/3.4.2.1002/avr32-gnu-toolchain/bin/../lib/gcc/avr32/4.4.7/../../../../avr32/lib/ucr3fp\libm.a(lib_a-e_atan2.o)
                              c:/program files (x86)/atmel/atmel toolchain/avr32 gcc/native/3.4.2.1002/avr32-gnu-toolchain/bin/../lib/gcc/avr32/4.4.7/../../../../avr32/lib/ucr3fp\libm.a(lib_a-w_atan2.o) (__ieee754_atan2)
c:/program files (x86)/atmel/atmel toolchain/avr32 gcc/native/3.4.2.1002/avr32-gnu-toolchain/bin/../lib/gcc/avr32/4.4.7/../../../../avr32/lib/ucr3fp\libm.a(lib_a-e_fmod.o)
                              c:/program files (x86)/atmel/atmel toolchain/avr32 gcc/native/3.4.2.1002/avr32-gnu-toolchain/bin/../lib/gcc/avr32/4.4.7/../../../../avr32/lib/ucr3fp\libm.a(lib_a-w_fmod.o) (__ieee754_fmod)
c:/program files (x86)/atmel/atmel toolchain/avr32 gcc/native/3.4.2.1002/avr32-gnu-toolchain/bin/../lib/gcc/avr32/4.4.7/../../../../avr32/lib/ucr3fp\libm.a(lib_a-e_pow.o)
                              c:/program files (x86)/atmel/atmel toolchain/avr32 gcc/native/3.4.2.1002/avr32-gnu-toolchain/bin/../lib/gcc/avr32/4.4.7/../../../../avr32/lib/ucr3fp\libm.a(lib_a-w_pow.o) (__ieee754_pow)
c:/program files (x86)/atmel/atmel toolchain/avr32 gcc/native/3.4.2.1002/avr32-gnu-toolchain/bin/../lib/gcc/avr32/4.4.7/../../../../avr32/lib/ucr3fp\libm.a(lib_a-e_rem_pio2.o)
                              c:/program files (x86)/atmel/atmel toolchain/avr32 gcc/native/3.4.2.1002/avr32-gnu-toolchain/bin/../lib/gcc/avr32/4.4.7/../../../../avr32/lib/ucr3fp\libm.a(lib_a-s_cos.o) (__ieee754_rem_pio2)
c:/program files (x86)/atmel/atmel toolchain/avr32 gcc/native/3.4.2.1002/avr32-gnu-toolchain/bin/../lib/gcc/avr32/4.4.7/../../../../avr32/lib/ucr3fp\libm.a(lib_a-e_sqrt.o)
                              c:/program files (x86)/atmel/atmel toolchain/avr32 gcc/native/3.4.2.1002/avr32-gnu-toolchain/bin/../lib/gcc/avr32/4.4.7/../../../../avr32/lib/ucr3fp\libm.a(lib_a-w_sqrt.o) (__ieee754_sqrt)
c:/program files (x86)/atmel/atmel toolchain/avr32 gcc/native/3.4.2.1002/avr32-gnu-toolchain/bin/../lib/gcc/avr32/4.4.7/../../../../avr32/lib/ucr3fp\libm.a(lib_a-ef_acos.o)
                              c:/program files (x86)/atmel/atmel toolchain/avr32 gcc/native/3.4.2.1002/avr32-gnu-toolchain/bin/../lib/gcc/avr32/4.4.7/../../../../avr32/lib/ucr3fp\libm.a(lib_a-wf_acos.o) (__ieee754_acosf)
c:/program files (x86)/atmel/atmel toolchain/avr32 gcc/native/3.4.2.1002/avr32-gnu-toolchain/bin/../lib/gcc/avr32/4.4.7/../../../../avr32/lib/ucr3fp\libm.a(lib_a-ef_sqrt.o)
                              c:/program files (x86)/atmel/atmel toolchain/avr32 gcc/native/3.4.2.1002/avr32-gnu-toolchain/bin/../lib/gcc/avr32/4.4.7/../../../../avr32/lib/ucr3fp\libm.a(lib_a-ef_acos.o) (__ieee754_sqrtf)
c:/program files (x86)/atmel/atmel toolchain/avr32 gcc/native/3.4.2.1002/avr32-gnu-toolchain/bin/../lib/gcc/avr32/4.4.7/../../../../avr32/lib/ucr3fp\libm.a(lib_a-k_cos.o)
                              c:/program files (x86)/atmel/atmel toolchain/avr32 gcc/native/3.4.2.1002/avr32-gnu-toolchain/bin/../lib/gcc/avr32/4.4.7/../../../../avr32/lib/ucr3fp\libm.a(lib_a-s_cos.o) (__kernel_cos)
c:/program files (x86)/atmel/atmel toolchain/avr32 gcc/native/3.4.2.1002/avr32-gnu-toolchain/bin/../lib/gcc/avr32/4.4.7/../../../../avr32/lib/ucr3fp\libm.a(lib_a-k_rem_pio2.o)
                              c:/program files (x86)/atmel/atmel toolchain/avr32 gcc/native/3.4.2.1002/avr32-gnu-toolchain/bin/../lib/gcc/avr32/4.4.7/../../../../avr32/lib/ucr3fp\libm.a(lib_a-e_rem_pio2.o) (__kernel_rem_pio2)
c:/program files (x86)/atmel/atmel toolchain/avr32 gcc/native/3.4.2.1002/avr32-gnu-toolchain/bin/../lib/gcc/avr32/4.4.7/../../../../avr32/lib/ucr3fp\libm.a(lib_a-k_sin.o)
                              c:/program files (x86)/atmel/atmel toolchain/avr32 gcc/native/3.4.2.1002/avr32-gnu-toolchain/bin/../lib/gcc/avr32/4.4.7/../../../../avr32/lib/ucr3fp\libm.a(lib_a-s_cos.o) (__kernel_sin)
c:/program files (x86)/atmel/atmel toolchain/avr32 gcc/native/3.4.2.1002/avr32-gnu-toolchain/bin/../lib/gcc/avr32/4.4.7/../../../../avr32/lib/ucr3fp\libm.a(lib_a-s_atan.o)
                              c:/program files (x86)/atmel/atmel toolchain/avr32 gcc/native/3.4.2.1002/avr32-gnu-toolchain/bin/../lib/gcc/avr32/4.4.7/../../../../avr32/lib/ucr3fp\libm.a(lib_a-e_atan2.o) (atan)
c:/program files (x86)/atmel/atmel toolchain/avr32 gcc/native/3.4.2.1002/avr32-gnu-toolchain/bin/../lib/gcc/avr32/4.4.7/../../../../avr32/lib/ucr3fp\libm.a(lib_a-s_fabs.o)
                              c:/program files (x86)/atmel/atmel toolchain/avr32 gcc/native/3.4.2.1002/avr32-gnu-toolchain/bin/../lib/gcc/avr32/4.4.7/../../../../avr32/lib/ucr3fp\libm.a(lib_a-w_asin.o) (fabs)
c:/program files (x86)/atmel/atmel toolchain/avr32 gcc/native/3.4.2.1002/avr32-gnu-toolchain/bin/../lib/gcc/avr32/4.4.7/../../../../avr32/lib/ucr3fp\libm.a(lib_a-s_finite.o)
                              c:/program files (x86)/atmel/atmel toolchain/avr32 gcc/native/3.4.2.1002/avr32-gnu-toolchain/bin/../lib/gcc/avr32/4.4.7/../../../../avr32/lib/ucr3fp\libm.a(lib_a-w_pow.o) (finite)
c:/program files (x86)/atmel/atmel toolchain/avr32 gcc/native/3.4.2.1002/avr32-gnu-toolchain/bin/../lib/gcc/avr32/4.4.7/../../../../avr32/lib/ucr3fp\libm.a(lib_a-s_floor.o)
                              c:/program files (x86)/atmel/atmel toolchain/avr32 gcc/native/3.4.2.1002/avr32-gnu-toolchain/bin/../lib/gcc/avr32/4.4.7/../../../../avr32/lib/ucr3fp\libm.a(lib_a-k_rem_pio2.o) (floor)
c:/program files (x86)/atmel/atmel toolchain/avr32 gcc/native/3.4.2.1002/avr32-gnu-toolchain/bin/../lib/gcc/avr32/4.4.7/../../../../avr32/lib/ucr3fp\libm.a(lib_a-s_isnand.o)
                              c:/program files (x86)/atmel/atmel toolchain/avr32 gcc/native/3.4.2.1002/avr32-gnu-toolchain/bin/../lib/gcc/avr32/4.4.7/../../../../avr32/lib/ucr3fp\libm.a(lib_a-w_asin.o) (__isnand)
c:/program files (x86)/atmel/atmel toolchain/avr32 gcc/native/3.4.2.1002/avr32-gnu-toolchain/bin/../lib/gcc/avr32/4.4.7/../../../../avr32/lib/ucr3fp\libm.a(lib_a-s_lib_ver.o)
                              c:/program files (x86)/atmel/atmel toolchain/avr32 gcc/native/3.4.2.1002/avr32-gnu-toolchain/bin/../lib/gcc/avr32/4.4.7/../../../../avr32/lib/ucr3fp\libm.a(lib_a-w_asin.o) (__fdlib_version)
c:/program files (x86)/atmel/atmel toolchain/avr32 gcc/native/3.4.2.1002/avr32-gnu-toolchain/bin/../lib/gcc/avr32/4.4.7/../../../../avr32/lib/ucr3fp\libm.a(lib_a-s_matherr.o)
                              c:/program files (x86)/atmel/atmel toolchain/avr32 gcc/native/3.4.2.1002/avr32-gnu-toolchain/bin/../lib/gcc/avr32/4.4.7/../../../../avr32/lib/ucr3fp\libm.a(lib_a-w_asin.o) (matherr)
c:/program files (x86)/atmel/atmel toolchain/avr32 gcc/native/3.4.2.1002/avr32-gnu-toolchain/bin/../lib/gcc/avr32/4.4.7/../../../../avr32/lib/ucr3fp\libm.a(lib_a-s_nan.o)
                              c:/program files (x86)/atmel/atmel toolchain/avr32 gcc/native/3.4.2.1002/avr32-gnu-toolchain/bin/../lib/gcc/avr32/4.4.7/../../../../avr32/lib/ucr3fp\libm.a(lib_a-w_asin.o) (nan)
c:/program files (x86)/atmel/atmel toolchain/avr32 gcc/native/3.4.2.1002/avr32-gnu-toolchain/bin/../lib/gcc/avr32/4.4.7/../../../../avr32/lib/ucr3fp\libm.a(lib_a-s_rint.o)
                              c:/program files (x86)/atmel/atmel toolchain/avr32 gcc/native/3.4.2.1002/avr32-gnu-toolchain/bin/../lib/gcc/avr32/4.4.7/../../../../avr32/lib/ucr3fp\libm.a(lib_a-w_pow.o) (rint)
c:/program files (x86)/atmel/atmel toolchain/avr32 gcc/native/3.4.2.1002/avr32-gnu-toolchain/bin/../lib/gcc/avr32/4.4.7/../../../../avr32/lib/ucr3fp\libm.a(lib_a-s_scalbn.o)
                              c:/program files (x86)/atmel/atmel toolchain/avr32 gcc/native/3.4.2.1002/avr32-gnu-toolchain/bin/../lib/gcc/avr32/4.4.7/../../../../avr32/lib/ucr3fp\libm.a(lib_a-e_pow.o) (scalbn)
c:/program files (x86)/atmel/atmel toolchain/avr32 gcc/native/3.4.2.1002/avr32-gnu-toolchain/bin/../lib/gcc/avr32/4.4.7/../../../../avr32/lib/ucr3fp\libm.a(lib_a-sf_fabs.o)
                              c:/program files (x86)/atmel/atmel toolchain/avr32 gcc/native/3.4.2.1002/avr32-gnu-toolchain/bin/../lib/gcc/avr32/4.4.7/../../../../avr32/lib/ucr3fp\libm.a(lib_a-wf_acos.o) (fabsf)
c:/program files (x86)/atmel/atmel toolchain/avr32 gcc/native/3.4.2.1002/avr32-gnu-toolchain/bin/../lib/gcc/avr32/4.4.7/../../../../avr32/lib/ucr3fp\libm.a(lib_a-sf_isnan.o)
                              c:/program files (x86)/atmel/atmel toolchain/avr32 gcc/native/3.4.2.1002/avr32-gnu-toolchain/bin/../lib/gcc/avr32/4.4.7/../../../../avr32/lib/ucr3fp\libm.a(lib_a-wf_acos.o) (isnanf)
c:/program files (x86)/atmel/atmel toolchain/avr32 gcc/native/3.4.2.1002/avr32-gnu-toolchain/bin/../lib/gcc/avr32/4.4.7/../../../../avr32/lib/ucr3fp\libm.a(lib_a-s_copysign.o)
                              c:/program files (x86)/atmel/atmel toolchain/avr32 gcc/native/3.4.2.1002/avr32-gnu-toolchain/bin/../lib/gcc/avr32/4.4.7/../../../../avr32/lib/ucr3fp\libm.a(lib_a-s_scalbn.o) (copysign)
c:/program files (x86)/atmel/atmel toolchain/avr32 gcc/native/3.4.2.1002/avr32-gnu-toolchain/bin/../lib/gcc/avr32/4.4.7/ucr3fp\libgcc.a(_avr32_f64_mul.o)
                              Library/communication/mavlink_waypoint_handler.o (__avr32_f64_mul)
c:/program files (x86)/atmel/atmel toolchain/avr32 gcc/native/3.4.2.1002/avr32-gnu-toolchain/bin/../lib/gcc/avr32/4.4.7/ucr3fp\libgcc.a(_avr32_f64_addsub.o)
                              Library/control/stabilisation_copter.o (__avr32_f64_sub)
c:/program files (x86)/atmel/atmel toolchain/avr32 gcc/native/3.4.2.1002/avr32-gnu-toolchain/bin/../lib/gcc/avr32/4.4.7/ucr3fp\libgcc.a(_avr32_f64_to_s32.o)
                              Library/sensing/position_estimation.o (__avr32_f64_to_u32)
c:/program files (x86)/atmel/atmel toolchain/avr32 gcc/native/3.4.2.1002/avr32-gnu-toolchain/bin/../lib/gcc/avr32/4.4.7/ucr3fp\libgcc.a(_avr32_s32_to_f64.o)
                              Library/hal/time_keeper.o (__avr32_u32_to_f64)
c:/program files (x86)/atmel/atmel toolchain/avr32 gcc/native/3.4.2.1002/avr32-gnu-toolchain/bin/../lib/gcc/avr32/4.4.7/ucr3fp\libgcc.a(_avr32_f64_cmp_eq.o)
                              c:/program files (x86)/atmel/atmel toolchain/avr32 gcc/native/3.4.2.1002/avr32-gnu-toolchain/bin/../lib/gcc/avr32/4.4.7/../../../../avr32/lib/ucr3fp\libm.a(lib_a-w_fmod.o) (__avr32_f64_cmp_eq)
c:/program files (x86)/atmel/atmel toolchain/avr32 gcc/native/3.4.2.1002/avr32-gnu-toolchain/bin/../lib/gcc/avr32/4.4.7/ucr3fp\libgcc.a(_avr32_f64_cmp_ge.o)
                              Library/control/orca.o (__avr32_f64_cmp_ge)
c:/program files (x86)/atmel/atmel toolchain/avr32 gcc/native/3.4.2.1002/avr32-gnu-toolchain/bin/../lib/gcc/avr32/4.4.7/ucr3fp\libgcc.a(_avr32_f64_cmp_lt.o)
                              Library/communication/mavlink_waypoint_handler.o (__avr32_f64_cmp_lt)
c:/program files (x86)/atmel/atmel toolchain/avr32 gcc/native/3.4.2.1002/avr32-gnu-toolchain/bin/../lib/gcc/avr32/4.4.7/ucr3fp\libgcc.a(_avr32_f32_cmp_lt.o)
                              c:/program files (x86)/atmel/atmel toolchain/avr32 gcc/native/3.4.2.1002/avr32-gnu-toolchain/bin/../lib/gcc/avr32/4.4.7/../../../../avr32/lib/ucr3fp\libm.a(lib_a-wf_acos.o) (__avr32_f32_cmp_lt)
c:/program files (x86)/atmel/atmel toolchain/avr32 gcc/native/3.4.2.1002/avr32-gnu-toolchain/bin/../lib/gcc/avr32/4.4.7/ucr3fp\libgcc.a(_avr32_f64_div.o)
                              Library/communication/mavlink_waypoint_handler.o (__avr32_f64_div)
c:/program files (x86)/atmel/atmel toolchain/avr32 gcc/native/3.4.2.1002/avr32-gnu-toolchain/bin/../lib/gcc/avr32/4.4.7/ucr3fp\libgcc.a(_avr32_f32_div.o)
                              Library/communication/mavlink_waypoint_handler.o (__avr32_f32_div)
c:/program files (x86)/atmel/atmel toolchain/avr32 gcc/native/3.4.2.1002/avr32-gnu-toolchain/bin/../lib/gcc/avr32/4.4.7/ucr3fp\libgcc.a(_avr32_f32_addsub.o)
                              c:/program files (x86)/atmel/atmel toolchain/avr32 gcc/native/3.4.2.1002/avr32-gnu-toolchain/bin/../lib/gcc/avr32/4.4.7/../../../../avr32/lib/ucr3fp\libm.a(lib_a-ef_acos.o) (__avr32_f32_sub)
c:/program files (x86)/atmel/atmel toolchain/avr32 gcc/native/3.4.2.1002/avr32-gnu-toolchain/bin/../lib/gcc/avr32/4.4.7/ucr3fp\libgcc.a(_avr32_f32_mul.o)
                              c:/program files (x86)/atmel/atmel toolchain/avr32 gcc/native/3.4.2.1002/avr32-gnu-toolchain/bin/../lib/gcc/avr32/4.4.7/../../../../avr32/lib/ucr3fp\libm.a(lib_a-ef_acos.o) (__avr32_f32_mul)
c:/program files (x86)/atmel/atmel toolchain/avr32 gcc/native/3.4.2.1002/avr32-gnu-toolchain/bin/../lib/gcc/avr32/4.4.7/ucr3fp\libgcc.a(_avr32_f32_to_f64.o)
                              Library/communication/mavlink_waypoint_handler.o (__avr32_f32_to_f64)
c:/program files (x86)/atmel/atmel toolchain/avr32 gcc/native/3.4.2.1002/avr32-gnu-toolchain/bin/../lib/gcc/avr32/4.4.7/ucr3fp\libgcc.a(_avr32_f64_to_f32.o)
                              Library/communication/mavlink_waypoint_handler.o (__avr32_f64_to_f32)
c:/program files (x86)/atmel/atmel toolchain/avr32 gcc/native/3.4.2.1002/avr32-gnu-toolchain/bin/../lib/gcc/avr32/4.4.7/ucr3fp\libgcc.a(_udivdi3.o)
                              src/asf/avr32/drivers/dacifb/dacifb.o (__avr32_udiv64)
c:/program files (x86)/atmel/atmel toolchain/avr32 gcc/native/3.4.2.1002/avr32-gnu-toolchain/bin/../lib/gcc/avr32/4.4.7/../../../../avr32/lib/ucr3fp\libc.a(lib_a-errno.o)
                              c:/program files (x86)/atmel/atmel toolchain/avr32 gcc/native/3.4.2.1002/avr32-gnu-toolchain/bin/../lib/gcc/avr32/4.4.7/../../../../avr32/lib/ucr3fp\libm.a(lib_a-w_asin.o) (__errno)
c:/program files (x86)/atmel/atmel toolchain/avr32 gcc/native/3.4.2.1002/avr32-gnu-toolchain/bin/../lib/gcc/avr32/4.4.7/../../../../avr32/lib/ucr3fp\libc.a(lib_a-impure.o)
                              c:/program files (x86)/atmel/atmel toolchain/avr32 gcc/native/3.4.2.1002/avr32-gnu-toolchain/bin/../lib/gcc/avr32/4.4.7/../../../../avr32/lib/ucr3fp\libc.a(lib_a-errno.o) (_impure_ptr)
c:/program files (x86)/atmel/atmel toolchain/avr32 gcc/native/3.4.2.1002/avr32-gnu-toolchain/bin/../lib/gcc/avr32/4.4.7/../../../../avr32/lib/ucr3fp\libc.a(lib_a-memcpy.o)
                              Library/communication/mavlink_waypoint_handler.o (memcpy)
c:/program files (x86)/atmel/atmel toolchain/avr32 gcc/native/3.4.2.1002/avr32-gnu-toolchain/bin/../lib/gcc/avr32/4.4.7/../../../../avr32/lib/ucr3fp\libc.a(lib_a-memset.o)
                              Library/communication/mavlink_waypoint_handler.o (memset)
c:/program files (x86)/atmel/atmel toolchain/avr32 gcc/native/3.4.2.1002/avr32-gnu-toolchain/bin/../lib/gcc/avr32/4.4.7/../../../../avr32/lib/ucr3fp\libc.a(lib_a-strcpy.o)
                              Library/communication/onboard_parameters.o (strcpy)
c:/program files (x86)/atmel/atmel toolchain/avr32 gcc/native/3.4.2.1002/avr32-gnu-toolchain/bin/../lib/gcc/avr32/4.4.7/../../../../avr32/lib/ucr3fp\libc.a(lib_a-strlen.o)
                              Library/communication/onboard_parameters.o (strlen)
c:/program files (x86)/atmel/atmel toolchain/avr32 gcc/native/3.4.2.1002/avr32-gnu-toolchain/bin/../lib/gcc/avr32/4.4.7/../../../../avr32/lib/ucr3fp\libc.a(lib_a-findfp.o)
                              c:/program files (x86)/atmel/atmel toolchain/avr32 gcc/native/3.4.2.1002/avr32-gnu-toolchain/bin/../lib/gcc/avr32/4.4.7/../../../../avr32/lib/ucr3fp\libc.a(lib_a-impure.o) (__sf_fake_stdin)
c:/program files (x86)/atmel/atmel toolchain/avr32 gcc/native/3.4.2.1002/avr32-gnu-toolchain/bin/../lib/gcc/avr32/4.4.7/../../../../avr32/lib/ucr3fp\libc.a(lib_a-fwalk.o)
                              c:/program files (x86)/atmel/atmel toolchain/avr32 gcc/native/3.4.2.1002/avr32-gnu-toolchain/bin/../lib/gcc/avr32/4.4.7/../../../../avr32/lib/ucr3fp\libc.a(lib_a-findfp.o) (_fwalk)
c:/program files (x86)/atmel/atmel toolchain/avr32 gcc/native/3.4.2.1002/avr32-gnu-toolchain/bin/../lib/gcc/avr32/4.4.7/../../../../avr32/lib/ucr3fp\libc.a(lib_a-mallocr.o)
                              c:/program files (x86)/atmel/atmel toolchain/avr32 gcc/native/3.4.2.1002/avr32-gnu-toolchain/bin/../lib/gcc/avr32/4.4.7/../../../../avr32/lib/ucr3fp\libc.a(lib_a-findfp.o) (_malloc_r)
c:/program files (x86)/atmel/atmel toolchain/avr32 gcc/native/3.4.2.1002/avr32-gnu-toolchain/bin/../lib/gcc/avr32/4.4.7/../../../../avr32/lib/ucr3fp\libc.a(lib_a-mlock.o)
                              c:/program files (x86)/atmel/atmel toolchain/avr32 gcc/native/3.4.2.1002/avr32-gnu-toolchain/bin/../lib/gcc/avr32/4.4.7/../../../../avr32/lib/ucr3fp\libc.a(lib_a-mallocr.o) (__malloc_lock)
c:/program files (x86)/atmel/atmel toolchain/avr32 gcc/native/3.4.2.1002/avr32-gnu-toolchain/bin/../lib/gcc/avr32/4.4.7/../../../../avr32/lib/ucr3fp\libc.a(lib_a-sbrkr.o)
                              c:/program files (x86)/atmel/atmel toolchain/avr32 gcc/native/3.4.2.1002/avr32-gnu-toolchain/bin/../lib/gcc/avr32/4.4.7/../../../../avr32/lib/ucr3fp\libc.a(lib_a-mallocr.o) (_sbrk_r)
c:/program files (x86)/atmel/atmel toolchain/avr32 gcc/native/3.4.2.1002/avr32-gnu-toolchain/bin/../lib/gcc/avr32/4.4.7/../../../../avr32/lib/ucr3fp\libc.a(lib_a-stdio.o)
                              c:/program files (x86)/atmel/atmel toolchain/avr32 gcc/native/3.4.2.1002/avr32-gnu-toolchain/bin/../lib/gcc/avr32/4.4.7/../../../../avr32/lib/ucr3fp\libc.a(lib_a-findfp.o) (__sclose)
c:/program files (x86)/atmel/atmel toolchain/avr32 gcc/native/3.4.2.1002/avr32-gnu-toolchain/bin/../lib/gcc/avr32/4.4.7/../../../../avr32/lib/ucr3fp\libc.a(lib_a-syscalls.o)
                              c:/program files (x86)/atmel/atmel toolchain/avr32 gcc/native/3.4.2.1002/avr32-gnu-toolchain/bin/../lib/gcc/avr32/4.4.7/../../../../avr32/lib/ucr3fp\libc.a(lib_a-sbrkr.o) (_sbrk)
c:/program files (x86)/atmel/atmel toolchain/avr32 gcc/native/3.4.2.1002/avr32-gnu-toolchain/bin/../lib/gcc/avr32/4.4.7/../../../../avr32/lib/ucr3fp\libc.a(lib_a-writer.o)
                              c:/program files (x86)/atmel/atmel toolchain/avr32 gcc/native/3.4.2.1002/avr32-gnu-toolchain/bin/../lib/gcc/avr32/4.4.7/../../../../avr32/lib/ucr3fp\libc.a(lib_a-stdio.o) (_write_r)
c:/program files (x86)/atmel/atmel toolchain/avr32 gcc/native/3.4.2.1002/avr32-gnu-toolchain/bin/../lib/gcc/avr32/4.4.7/../../../../avr32/lib/ucr3fp\libc.a(lib_a-closer.o)
                              c:/program files (x86)/atmel/atmel toolchain/avr32 gcc/native/3.4.2.1002/avr32-gnu-toolchain/bin/../lib/gcc/avr32/4.4.7/../../../../avr32/lib/ucr3fp\libc.a(lib_a-stdio.o) (_close_r)
c:/program files (x86)/atmel/atmel toolchain/avr32 gcc/native/3.4.2.1002/avr32-gnu-toolchain/bin/../lib/gcc/avr32/4.4.7/../../../../avr32/lib/ucr3fp\libc.a(lib_a-fclose.o)
                              c:/program files (x86)/atmel/atmel toolchain/avr32 gcc/native/3.4.2.1002/avr32-gnu-toolchain/bin/../lib/gcc/avr32/4.4.7/../../../../avr32/lib/ucr3fp\libc.a(lib_a-findfp.o) (fclose)
c:/program files (x86)/atmel/atmel toolchain/avr32 gcc/native/3.4.2.1002/avr32-gnu-toolchain/bin/../lib/gcc/avr32/4.4.7/../../../../avr32/lib/ucr3fp\libc.a(lib_a-fflush.o)
                              c:/program files (x86)/atmel/atmel toolchain/avr32 gcc/native/3.4.2.1002/avr32-gnu-toolchain/bin/../lib/gcc/avr32/4.4.7/../../../../avr32/lib/ucr3fp\libc.a(lib_a-fclose.o) (_fflush_r)
c:/program files (x86)/atmel/atmel toolchain/avr32 gcc/native/3.4.2.1002/avr32-gnu-toolchain/bin/../lib/gcc/avr32/4.4.7/../../../../avr32/lib/ucr3fp\libc.a(lib_a-freer.o)
                              c:/program files (x86)/atmel/atmel toolchain/avr32 gcc/native/3.4.2.1002/avr32-gnu-toolchain/bin/../lib/gcc/avr32/4.4.7/../../../../avr32/lib/ucr3fp\libc.a(lib_a-mallocr.o) (_free_r)
c:/program files (x86)/atmel/atmel toolchain/avr32 gcc/native/3.4.2.1002/avr32-gnu-toolchain/bin/../lib/gcc/avr32/4.4.7/../../../../avr32/lib/ucr3fp\libc.a(lib_a-lseekr.o)
                              c:/program files (x86)/atmel/atmel toolchain/avr32 gcc/native/3.4.2.1002/avr32-gnu-toolchain/bin/../lib/gcc/avr32/4.4.7/../../../../avr32/lib/ucr3fp\libc.a(lib_a-stdio.o) (_lseek_r)
c:/program files (x86)/atmel/atmel toolchain/avr32 gcc/native/3.4.2.1002/avr32-gnu-toolchain/bin/../lib/gcc/avr32/4.4.7/../../../../avr32/lib/ucr3fp\libc.a(lib_a-readr.o)
                              c:/program files (x86)/atmel/atmel toolchain/avr32 gcc/native/3.4.2.1002/avr32-gnu-toolchain/bin/../lib/gcc/avr32/4.4.7/../../../../avr32/lib/ucr3fp\libc.a(lib_a-stdio.o) (_read_r)
c:/program files (x86)/atmel/atmel toolchain/avr32 gcc/native/3.4.2.1002/avr32-gnu-toolchain/bin/../lib/gcc/avr32/4.4.7/../../../../avr32/lib/ucr3fp\libc.a(lib_a-reent.o)
                              c:/program files (x86)/atmel/atmel toolchain/avr32 gcc/native/3.4.2.1002/avr32-gnu-toolchain/bin/../lib/gcc/avr32/4.4.7/../../../../avr32/lib/ucr3fp\libc.a(lib_a-sbrkr.o) (errno)

Allocating common symbols
Common symbol       size              file

adci_buffer         0x4               Library/hal/adc_int.o
deb_stream          0x4               Library/communication/ishtar_stream.o
udd_ep_out_cache_buffer
                    0xc0              src/asf/avr32/drivers/usbc/usbc_device.o
main_target         0xc               Library/hal/radar_module_driver.o
payload_length      0x2               Library/communication/mavlink_waypoint_handler.o
ishtar_ckA          0x1               Library/communication/ishtar.o
Q2                  0x48              Library/sensing/estimator.o
ishtar_externalSendFunc
                    0x4               Library/communication/ishtar.o
ishtar_bufEnd       0x4               Library/communication/ishtar.o
ubx_TimTPMessage    0x20              Library/sensing/gps_ublox.o
b2                  0x2               Library/hal/bmp085.o
ishtar_externalFlushFunc
                    0x4               Library/communication/ishtar.o
errno               0x4               c:/program files (x86)/atmel/atmel toolchain/avr32 gcc/native/3.4.2.1002/avr32-gnu-toolchain/bin/../lib/gcc/avr32/4.4.7/../../../../avr32/lib/ucr3fp\libc.a(lib_a-reent.o)
ishtar_currentSendFunc
                    0x4               Library/communication/ishtar.o
mb                  0x2               Library/hal/bmp085.o
continuous_mode     0x1               Library/hal/adc_int.o
ac1                 0x2               Library/hal/bmp085.o
current_transfer    0x4               Library/hal/i2c_driver_int.o
param_set           0xd2c             Library/communication/onboard_parameters.o
ubxclass            0x1               Library/communication/mavlink_waypoint_handler.o
waypoint_request_number
                    0x4               Library/communication/mavlink_waypoint_handler.o
adapt_param_set     0x20c             Library/control/adaptive_parameter.o
ubx_statusMessage   0x20              Library/sensing/gps_ublox.o
Q                   0x48              Library/sensing/estimator.o
b1                  0x2               Library/hal/bmp085.o
ac6                 0x2               Library/hal/bmp085.o
start_timeout       0x4               Library/communication/mavlink_waypoint_handler.o
eic_options         0x6               Library/hal/ads1274.o
P2                  0xd8              Library/sensing/estimator.o
ptr_get             0x4               src/asf/common/utils/stdio/read.o
new_position        0x1               Library/communication/mavlink_waypoint_handler.o
idleTimer           0x4               Library/communication/mavlink_waypoint_handler.o
alt_integrator      0x4               Library/control/navigation.o
last_ground_speed_cm
                    0x4               Library/communication/mavlink_waypoint_handler.o
ac5                 0x2               Library/hal/bmp085.o
ishtar_externalSendBlockingFunc
                    0x4               Library/communication/ishtar.o
ac2                 0x2               Library/hal/bmp085.o
ubx_NavSettingsMessage
                    0x48              Library/sensing/gps_ublox.o
outbound_stream     0x4               Library/communication/ishtar_stream.o
ptr_put             0x4               src/asf/common/utils/stdio/write.o
even_odd            0x1               Library/hal/adc_int.o
md                  0x2               Library/hal/bmp085.o
adcifa_sequencer0_conversion_opt
                    0x18              Library/hal/adc_int.o
spRec2              0x134             Library/hal/remote_dsm2.o
ubx_posllhMessage   0x38              Library/sensing/gps_ublox.o
ac4                 0x2               Library/hal/bmp085.o
msg_id              0x1               Library/communication/mavlink_waypoint_handler.o
ptr_nvram           0x4               src/mavlink_actions.o
ubx_CFGSetGetRateMessage
                    0x6               Library/sensing/gps_ublox.o
next_fix            0x1               Library/communication/mavlink_waypoint_handler.o
imu_last_update_init
                    0x1               Library/communication/mavlink_waypoint_handler.o
engine_nav_setting  0x4               Library/communication/mavlink_waypoint_handler.o
velocity_east       0x4               Library/communication/mavlink_waypoint_handler.o
fix_count           0x1               Library/communication/mavlink_waypoint_handler.o
timeHorizon         0x4               Library/control/orca.o
filter_init_delta_t
                    0x1               Library/communication/mavlink_waypoint_handler.o
prev_time           0x4               Library/communication/mavlink_waypoint_handler.o
mc                  0x2               Library/hal/bmp085.o
cksum_a             0x1               Library/communication/mavlink_waypoint_handler.o
idleTimeout         0x4               Library/communication/mavlink_waypoint_handler.o
last_fix_time       0x4               Library/communication/mavlink_waypoint_handler.o
baro                0x4               Library/sensing/estimator.o
mavlink_system      0x6               Library/communication/mavlink_waypoint_handler.o
udd_g_ctrlreq       0x18              src/asf/avr32/drivers/usbc/usbc_device.o
sending_wp_num      0x4               Library/communication/mavlink_waypoint_handler.o
internal_buffer     0x40              Library/hal/adc_int.o
timeout_max_wp      0x4               Library/communication/mavlink_waypoint_handler.o
ishtar_bufBegin     0x4               Library/communication/ishtar.o
mavlink_mission_planner
                    0x6               Library/communication/mavlink_waypoint_handler.o
velocity_down       0x4               Library/communication/mavlink_waypoint_handler.o
stdio_base          0x4               src/asf/common/utils/stdio/write.o
disable_counter     0x1               Library/communication/mavlink_waypoint_handler.o
channelCenter       0x20              Library/hal/remote_dsm2.o
centralData         0x4               Library/communication/mavlink_waypoint_handler.o
fix                 0x1               Library/communication/mavlink_waypoint_handler.o
sleepmgr_locks      0x7               src/asf/common/services/sleepmgr/uc3/sleepmgr.o
ubx_solutionMessage
                    0x68              Library/sensing/gps_ublox.o
cksum_b             0x1               Library/communication/mavlink_waypoint_handler.o
ubx_CFGRateMessage  0xc               Library/sensing/gps_ublox.o
ubx_velnedMessage   0x48              Library/sensing/gps_ublox.o
R                   0x18              Library/sensing/estimator.o
payload_counter     0x2               Library/communication/mavlink_waypoint_handler.o
pressure_outputs    0x38              Library/hal/bmp085.o
R2                  0x18              Library/sensing/estimator.o
ishtar_dataStartMarker
                    0x4               Library/communication/ishtar.o
step                0x1               Library/communication/mavlink_waypoint_handler.o
gcfg                0x4               Library/hal/ads1274.o
last_baro_update    0x4               src/tasks.o
invTimeHorizon      0x4               Library/control/orca.o
spRec1              0x134             Library/hal/remote_dsm2.o
ishtar_bufPos       0x4               Library/communication/ishtar.o
ishtar_ckB          0x1               Library/communication/ishtar.o
monitor_buffer      0x50              Library/hal/analog_monitor.o
have_raw_velocity   0x1               Library/communication/mavlink_waypoint_handler.o
new_speed           0x1               Library/communication/mavlink_waypoint_handler.o
ubx_TimVRFYMessage  0x28              Library/sensing/gps_ublox.o
front_mag_vect_z    0x4               Library/sensing/qfilter.o
nav_settings        0x24              Library/communication/mavlink_waypoint_handler.o
nvram_array         0x4               Library/communication/mavlink_waypoint_handler.o
udd_ctrl_buffer     0x40              src/asf/avr32/drivers/usbc/usbc_device.o
ishtar_buffer       0x12c             Library/communication/ishtar.o
ishtar_services     0x1770            Library/communication/ishtar.o
ishtar_consumePos   0x4               Library/communication/ishtar.o
ac3                 0x2               Library/hal/bmp085.o
velocity_north      0x4               Library/communication/mavlink_waypoint_handler.o
num_waypoint_onboard
                    0x2               Library/communication/mavlink_waypoint_handler.o
ubx_svInfoMessage   0x190             Library/sensing/gps_ublox.o
P                   0xd8              Library/sensing/estimator.o
blocking            0x1               Library/util/print_util.o
inbound_stream      0x18              Library/communication/ishtar_stream.o
ic                  0x4               Library/sensing/imu.o
timeLastGpsMsgEstimator
                    0x4               Library/sensing/estimator.o
ubx_MONRXRMessage   0x2               Library/sensing/gps_ublox.o

Discarded input sections

 .data          0x00000000      0x144 Library/communication/mavlink_waypoint_handler.o
 .bss           0x00000000        0x0 Library/communication/mavlink_waypoint_handler.o
 .data.vehicle_model_parameters
                0x00000000      0x194 Library/communication/mavlink_waypoint_handler.o
 .rodata.servo_failsafe
                0x00000000       0x80 Library/communication/mavlink_waypoint_handler.o
 .text          0x00000000      0x378 Library/control/adaptive_parameter.o
 .data          0x00000000       0x18 Library/control/adaptive_parameter.o
 .bss           0x00000000        0x0 Library/control/adaptive_parameter.o
 .debug_abbrev  0x00000000      0x14d Library/control/adaptive_parameter.o
 .debug_info    0x00000000      0x2eb Library/control/adaptive_parameter.o
 .debug_line    0x00000000       0xd2 Library/control/adaptive_parameter.o
 .debug_frame   0x00000000       0xd8 Library/control/adaptive_parameter.o
 .debug_loc     0x00000000      0x102 Library/control/adaptive_parameter.o
 .debug_pubnames
                0x00000000       0xb1 Library/control/adaptive_parameter.o
 .debug_aranges
                0x00000000       0x20 Library/control/adaptive_parameter.o
 .debug_str     0x00000000      0x231 Library/control/adaptive_parameter.o
 .comment       0x00000000       0x31 Library/control/adaptive_parameter.o
 COMMON         0x00000000      0x20c Library/control/adaptive_parameter.o
 .data          0x00000000       0x44 Library/control/orca.o
 .bss           0x00000000        0x0 Library/control/orca.o
 .data.vehicle_model_parameters
                0x00000000      0x194 Library/control/orca.o
 .rodata.servo_failsafe
                0x00000000       0x80 Library/control/orca.o
 .data          0x00000000       0x2c Library/control/pid_control.o
 .bss           0x00000000        0x0 Library/control/pid_control.o
 .data          0x00000000       0x24 Library/control/stabilisation_copter.o
 .bss           0x00000000        0x0 Library/control/stabilisation_copter.o
 .data.vehicle_model_parameters
                0x00000000      0x194 Library/control/stabilisation_copter.o
 .rodata.servo_failsafe
                0x00000000       0x80 Library/control/stabilisation_copter.o
 .text          0x00000000      0xb30 Library/control/stabilisation_hybrid.o
 .data          0x00000000       0x3c Library/control/stabilisation_hybrid.o
 .bss           0x00000000        0x0 Library/control/stabilisation_hybrid.o
 .debug_abbrev  0x00000000      0x1e2 Library/control/stabilisation_hybrid.o
 .debug_info    0x00000000     0x1aa3 Library/control/stabilisation_hybrid.o
 .debug_line    0x00000000      0x4df Library/control/stabilisation_hybrid.o
 .data.vehicle_model_parameters
                0x00000000      0x194 Library/control/stabilisation_hybrid.o
 .rodata.servo_failsafe
                0x00000000       0x80 Library/control/stabilisation_hybrid.o
 .data.stabiliser_defaults_hybrid
                0x00000000      0x278 Library/control/stabilisation_hybrid.o
 .debug_frame   0x00000000      0x204 Library/control/stabilisation_hybrid.o
 .debug_loc     0x00000000      0x285 Library/control/stabilisation_hybrid.o
 .debug_pubnames
                0x00000000      0x2d4 Library/control/stabilisation_hybrid.o
 .debug_aranges
                0x00000000       0x20 Library/control/stabilisation_hybrid.o
 .debug_str     0x00000000     0x11e1 Library/control/stabilisation_hybrid.o
 .comment       0x00000000       0x31 Library/control/stabilisation_hybrid.o
 .data          0x00000000       0x1c Library/hal/analog_monitor.o
 .bss           0x00000000        0x0 Library/hal/analog_monitor.o
 .data          0x00000000       0x24 Library/hal/i2c_driver_int.o
 .bss           0x00000000        0x0 Library/hal/i2c_driver_int.o
 .text          0x00000000      0x678 Library/hal/lsm330dlc_driver.o
 .data          0x00000000       0x28 Library/hal/lsm330dlc_driver.o
 .bss           0x00000000        0x0 Library/hal/lsm330dlc_driver.o
 .debug_abbrev  0x00000000      0x1d8 Library/hal/lsm330dlc_driver.o
 .debug_info    0x00000000     0x1128 Library/hal/lsm330dlc_driver.o
 .debug_line    0x00000000      0x290 Library/hal/lsm330dlc_driver.o
 .rodata.lsm_acc_default_config
                0x00000000        0x6 Library/hal/lsm330dlc_driver.o
 .rodata.lsm_gyro_default_config
                0x00000000        0x6 Library/hal/lsm330dlc_driver.o
 .rodata.fifo_config
                0x00000000        0x4 Library/hal/lsm330dlc_driver.o
 .bss.lsm_gyro_outputs
                0x00000000        0x8 Library/hal/lsm330dlc_driver.o
 .bss.lsm_acc_outputs
                0x00000000        0x8 Library/hal/lsm330dlc_driver.o
 .data.twi_opt.15207
                0x00000000       0x10 Library/hal/lsm330dlc_driver.o
 .debug_frame   0x00000000      0x150 Library/hal/lsm330dlc_driver.o
 .debug_loc     0x00000000      0x1ae Library/hal/lsm330dlc_driver.o
 .debug_pubnames
                0x00000000       0xd8 Library/hal/lsm330dlc_driver.o
 .debug_aranges
                0x00000000       0x20 Library/hal/lsm330dlc_driver.o
 .debug_str     0x00000000      0x5af Library/hal/lsm330dlc_driver.o
 .comment       0x00000000       0x31 Library/hal/lsm330dlc_driver.o
 .data          0x00000000       0x18 Library/hal/time_keeper.o
 .bss           0x00000000        0x0 Library/hal/time_keeper.o
 .data          0x00000000       0x38 Library/sensing/estimator.o
 .bss           0x00000000        0x0 Library/sensing/estimator.o
 .data.vehicle_model_parameters
                0x00000000      0x194 Library/sensing/estimator.o
 .rodata.servo_failsafe
                0x00000000       0x80 Library/sensing/estimator.o
 .data          0x00000000       0x50 Library/sensing/neighbor_selection.o
 .bss           0x00000000        0x0 Library/sensing/neighbor_selection.o
 .data.vehicle_model_parameters
                0x00000000      0x194 Library/sensing/neighbor_selection.o
 .rodata.servo_failsafe
                0x00000000       0x80 Library/sensing/neighbor_selection.o
 .data          0x00000000       0x30 Library/sensing/position_estimation.o
 .bss           0x00000000        0x0 Library/sensing/position_estimation.o
 .data          0x00000000       0x28 Library/sensing/qfilter.o
 .bss           0x00000000        0x0 Library/sensing/qfilter.o
 .text          0x00000000      0x564 Library/util/quick_trig.o
 .data          0x00000000       0x20 Library/util/quick_trig.o
 .bss           0x00000000        0x0 Library/util/quick_trig.o
 .debug_abbrev  0x00000000       0xdb Library/util/quick_trig.o
 .debug_info    0x00000000      0x422 Library/util/quick_trig.o
 .debug_line    0x00000000       0xc1 Library/util/quick_trig.o
 .rodata.acos_x_min
                0x00000000        0x4 Library/util/quick_trig.o
 .rodata.acos_x_max
                0x00000000        0x4 Library/util/quick_trig.o
 .rodata.acos_x_step
                0x00000000        0x4 Library/util/quick_trig.o
 .rodata.acos_y
                0x00000000       0xc8 Library/util/quick_trig.o
 .rodata.sin_x_min
                0x00000000        0x4 Library/util/quick_trig.o
 .rodata.sin_x_max
                0x00000000        0x4 Library/util/quick_trig.o
 .rodata.sin_x_step
                0x00000000        0x4 Library/util/quick_trig.o
 .rodata.sin_y  0x00000000       0xc8 Library/util/quick_trig.o
 .rodata.tan_x_min
                0x00000000        0x4 Library/util/quick_trig.o
 .rodata.tan_x_max
                0x00000000        0x4 Library/util/quick_trig.o
 .rodata.tan_x_step
                0x00000000        0x4 Library/util/quick_trig.o
 .rodata.tan_y  0x00000000       0xc8 Library/util/quick_trig.o
 .rodata.atan_x_min
                0x00000000        0x4 Library/util/quick_trig.o
 .rodata.atan_x_max
                0x00000000        0x4 Library/util/quick_trig.o
 .rodata.atan_x_step
                0x00000000        0x4 Library/util/quick_trig.o
 .rodata.atan_y
                0x00000000       0xc8 Library/util/quick_trig.o
 .debug_frame   0x00000000      0x114 Library/util/quick_trig.o
 .debug_loc     0x00000000      0x158 Library/util/quick_trig.o
 .debug_pubnames
                0x00000000      0x154 Library/util/quick_trig.o
 .debug_aranges
                0x00000000       0x20 Library/util/quick_trig.o
 .debug_str     0x00000000      0x222 Library/util/quick_trig.o
 .comment       0x00000000       0x31 Library/util/quick_trig.o
 .data          0x00000000       0x24 src/central_data.o
 .bss           0x00000000        0x0 src/central_data.o
 .data.vehicle_model_parameters
                0x00000000      0x194 src/central_data.o
 .rodata.servo_failsafe
                0x00000000       0x80 src/central_data.o
 .data          0x00000000      0x120 src/mavlink_actions.o
 .bss           0x00000000        0x0 src/mavlink_actions.o
 .data.vehicle_model_parameters
                0x00000000      0x194 src/mavlink_actions.o
 .rodata.servo_failsafe
                0x00000000       0x80 src/mavlink_actions.o
 .rodata.write_data
                0x00000000        0x8 src/mavlink_actions.o
 COMMON         0x00000000        0x4 src/mavlink_actions.o
 .data          0x00000000       0x48 src/tasks.o
 .bss           0x00000000        0x0 src/tasks.o
 .rodata.write_data
                0x00000000        0x8 src/tasks.o
 .data.vehicle_model_parameters
                0x00000000      0x194 src/tasks.o
 COMMON         0x00000000        0x4 src/tasks.o
 .text          0x00000000     0x2920 Library/communication/ishtar.o
 .data          0x00000000       0x88 Library/communication/ishtar.o
 .bss           0x00000000        0x0 Library/communication/ishtar.o
 .debug_abbrev  0x00000000      0x1cf Library/communication/ishtar.o
 .debug_info    0x00000000     0x1216 Library/communication/ishtar.o
 .debug_line    0x00000000      0x45a Library/communication/ishtar.o
 .bss.ishtar_numberOfOverflows
                0x00000000        0x4 Library/communication/ishtar.o
 .bss.ishtar_numberOfDropHeader1
                0x00000000        0x4 Library/communication/ishtar.o
 .bss.ishtar_numberOfDropHeader2
                0x00000000        0x4 Library/communication/ishtar.o
 .bss.ishtar_numberOfDropHeader3
                0x00000000        0x4 Library/communication/ishtar.o
 .bss.ishtar_numberOfDropHeader4
                0x00000000        0x4 Library/communication/ishtar.o
 .bss.ishtar_numberOfDropSize
                0x00000000        0x4 Library/communication/ishtar.o
 .bss.ishtar_numberOfDropContent
                0x00000000        0x4 Library/communication/ishtar.o
 .bss.ishtar_numberOfBytesReceived
                0x00000000        0x4 Library/communication/ishtar.o
 .bss.ishtar_numberOfBytesSent
                0x00000000        0x4 Library/communication/ishtar.o
 .bss.ishtar_numberOfBytesReadFromMemory
                0x00000000        0x4 Library/communication/ishtar.o
 .bss.ishtar_numberOfBytesWrittenToMemory
                0x00000000        0x4 Library/communication/ishtar.o
 .bss.ishtar_numberOfValidMessages
                0x00000000        0x4 Library/communication/ishtar.o
 .bss.ishtar_corruptedValidated
                0x00000000        0x4 Library/communication/ishtar.o
 .bss.ishtar_snapshotSize
                0x00000000        0x4 Library/communication/ishtar.o
 .bss.ishtar_memoryError
                0x00000000        0x1 Library/communication/ishtar.o
 .bss.ishtar_numberOfVariables
                0x00000000        0x2 Library/communication/ishtar.o
 .bss.ishtar_snapshotId
                0x00000000        0x2 Library/communication/ishtar.o
 .bss.ishtar_snapshotActive
                0x00000000        0x1 Library/communication/ishtar.o
 .bss.ishtar_packetBegin
                0x00000000        0x4 Library/communication/ishtar.o
 .data.ishtar_state
                0x00000000        0x1 Library/communication/ishtar.o
 .bss.ishtar_overFlow
                0x00000000        0x1 Library/communication/ishtar.o
 .bss.ishtar_sizeByteNum
                0x00000000        0x1 Library/communication/ishtar.o
 .bss.ishtar_checksumByteNum
                0x00000000        0x1 Library/communication/ishtar.o
 .bss.ishtar_sizeChecksumRead
                0x00000000        0x2 Library/communication/ishtar.o
 .bss.ishtar_contentChecksumRead
                0x00000000        0x2 Library/communication/ishtar.o
 .bss.ishtar_curPacketSize
                0x00000000        0x4 Library/communication/ishtar.o
 .bss.ishtar_curSize
                0x00000000        0x4 Library/communication/ishtar.o
 .bss.ishtar_connected
                0x00000000        0x1 Library/communication/ishtar.o
 .bss.ishtar_memoryMinAddress
                0x00000000        0x2 Library/communication/ishtar.o
 .bss.ishtar_memoryMaxAddress
                0x00000000        0x2 Library/communication/ishtar.o
 .bss.ishtar_memoryReadFunc
                0x00000000        0x4 Library/communication/ishtar.o
 .bss.ishtar_memoryWriteFunc
                0x00000000        0x4 Library/communication/ishtar.o
 .bss.ishtar_memoryChecksumA
                0x00000000        0x1 Library/communication/ishtar.o
 .bss.ishtar_memoryChecksumB
                0x00000000        0x1 Library/communication/ishtar.o
 .debug_frame   0x00000000      0x454 Library/communication/ishtar.o
 .debug_loc     0x00000000      0x5b6 Library/communication/ishtar.o
 .debug_pubnames
                0x00000000      0x7ef Library/communication/ishtar.o
 .debug_aranges
                0x00000000       0x20 Library/communication/ishtar.o
 .debug_str     0x00000000      0xc65 Library/communication/ishtar.o
 .comment       0x00000000       0x31 Library/communication/ishtar.o
 COMMON         0x00000000     0x18c8 Library/communication/ishtar.o
 .text          0x00000000      0x270 Library/communication/ishtar_stream.o
 .data          0x00000000       0x1c Library/communication/ishtar_stream.o
 .bss           0x00000000        0x0 Library/communication/ishtar_stream.o
 .data.usart_opt
                0x00000000      0xac8 Library/communication/ishtar_stream.o
 .data.vehicle_model_parameters
                0x00000000      0x194 Library/communication/ishtar_stream.o
 .rodata.servo_failsafe
                0x00000000       0x80 Library/communication/ishtar_stream.o
 .data          0x00000000       0x90 Library/communication/mavlink_stream.o
 .bss           0x00000000        0x0 Library/communication/mavlink_stream.o
 .data.vehicle_model_parameters
                0x00000000      0x194 Library/communication/mavlink_stream.o
 .rodata.servo_failsafe
                0x00000000       0x80 Library/communication/mavlink_stream.o
 .bss.mavlink_in_buffer
                0x00000000      0x103 Library/communication/mavlink_stream.o
 .data          0x00000000       0x84 Library/communication/onboard_parameters.o
 .bss           0x00000000        0x0 Library/communication/onboard_parameters.o
 .data          0x00000000       0x44 Library/control/navigation.o
 .bss           0x00000000        0x0 Library/control/navigation.o
 .data.vehicle_model_parameters
                0x00000000      0x194 Library/control/navigation.o
 .rodata.servo_failsafe
                0x00000000       0x80 Library/control/navigation.o
 .data          0x00000000        0x8 Library/control/stabilisation.o
 .bss           0x00000000        0x0 Library/control/stabilisation.o
 .data          0x00000000       0x28 Library/hal/adc_int.o
 .bss           0x00000000        0x0 Library/hal/adc_int.o
 .data          0x00000000       0x48 Library/hal/ads1274.o
 .bss           0x00000000        0x0 Library/hal/ads1274.o
 .data.waveform_opt
                0x00000000        0x8 Library/hal/ads1274.o
 .data.tc       0x00000000        0x4 Library/hal/ads1274.o
 .data          0x00000000        0xc Library/hal/adxl345_driver.o
 .bss           0x00000000        0x0 Library/hal/adxl345_driver.o
 .text          0x00000000      0x108 Library/hal/amplifiers.o
 .data          0x00000000        0xc Library/hal/amplifiers.o
 .bss           0x00000000        0x0 Library/hal/amplifiers.o
 .debug_abbrev  0x00000000       0x6a Library/hal/amplifiers.o
 .debug_info    0x00000000       0xd7 Library/hal/amplifiers.o
 .debug_line    0x00000000       0x78 Library/hal/amplifiers.o
 .debug_frame   0x00000000       0x70 Library/hal/amplifiers.o
 .debug_loc     0x00000000       0x81 Library/hal/amplifiers.o
 .debug_pubnames
                0x00000000       0x4c Library/hal/amplifiers.o
 .debug_aranges
                0x00000000       0x20 Library/hal/amplifiers.o
 .debug_str     0x00000000      0x12e Library/hal/amplifiers.o
 .comment       0x00000000       0x31 Library/hal/amplifiers.o
 .data          0x00000000       0x20 Library/hal/bmp085.o
 .bss           0x00000000        0x0 Library/hal/bmp085.o
 .data          0x00000000        0x8 Library/hal/compass_hmc5883l.o
 .bss           0x00000000        0x0 Library/hal/compass_hmc5883l.o
 .data          0x00000000       0x2c Library/hal/dac_dma.o
 .bss           0x00000000        0x0 Library/hal/dac_dma.o
 .data.dac_value_audio
                0x00000000        0x2 Library/hal/dac_dma.o
 .data          0x00000000        0xc Library/hal/itg3200_driver.o
 .bss           0x00000000        0x0 Library/hal/itg3200_driver.o
 .data.read_preamble
                0x00000000        0x1 Library/hal/itg3200_driver.o
 .data          0x00000000       0x30 Library/hal/led.o
 .bss           0x00000000        0x0 Library/hal/led.o
 .data          0x00000000       0x10 Library/hal/radar_module_driver.o
 .bss           0x00000000        0x0 Library/hal/radar_module_driver.o
 .data          0x00000000        0xc Library/hal/servo_pwm.o
 .bss           0x00000000        0x0 Library/hal/servo_pwm.o
 .data          0x00000000       0x30 Library/hal/remote_dsm2.o
 .bss           0x00000000        0x0 Library/hal/remote_dsm2.o
 .bss.packet_byte_counter
                0x00000000        0x1 Library/hal/remote_dsm2.o
 .data          0x00000000       0x90 Library/hal/spi_buffered.o
 .bss           0x00000000        0x0 Library/hal/spi_buffered.o
 .data          0x00000000       0x48 Library/hal/uart_int.o
 .bss           0x00000000        0x0 Library/hal/uart_int.o
 .data          0x00000000       0x2c Library/runtime/scheduler.o
 .bss           0x00000000        0x0 Library/runtime/scheduler.o
 .data          0x00000000       0x70 Library/sensing/gps_ublox.o
 .bss           0x00000000        0x0 Library/sensing/gps_ublox.o
 .data.vehicle_model_parameters
                0x00000000      0x194 Library/sensing/gps_ublox.o
 .rodata.servo_failsafe
                0x00000000       0x80 Library/sensing/gps_ublox.o
 .rodata.baudrates.33105
                0x00000000       0x10 Library/sensing/gps_ublox.o
 .data          0x00000000       0x14 Library/sensing/imu.o
 .bss           0x00000000        0x0 Library/sensing/imu.o
 .rodata.lsm_acc_default_config
                0x00000000        0x6 Library/sensing/imu.o
 .rodata.lsm_gyro_default_config
                0x00000000        0x6 Library/sensing/imu.o
 .rodata.fifo_config
                0x00000000        0x4 Library/sensing/imu.o
 COMMON         0x00000000        0x4 Library/sensing/imu.o
 .data          0x00000000       0x44 Library/sensing/simulation.o
 .bss           0x00000000        0x0 Library/sensing/simulation.o
 .rodata.servo_failsafe
                0x00000000       0x80 Library/sensing/simulation.o
 .data          0x00000000       0x28 Library/util/buffer.o
 .bss           0x00000000        0x0 Library/util/buffer.o
 .data          0x00000000       0x14 Library/util/coord_conventions.o
 .bss           0x00000000        0x0 Library/util/coord_conventions.o
 .text          0x00000000      0x214 Library/util/generator.o
 .data          0x00000000       0x10 Library/util/generator.o
 .bss           0x00000000        0x0 Library/util/generator.o
 .debug_abbrev  0x00000000      0x1fb Library/util/generator.o
 .debug_info    0x00000000     0x2a71 Library/util/generator.o
 .debug_line    0x00000000      0x283 Library/util/generator.o
 .data.usart_opt
                0x00000000      0xac8 Library/util/generator.o
 .bss.dac_function_buffer
                0x00000000      0x400 Library/util/generator.o
 .debug_frame   0x00000000       0x94 Library/util/generator.o
 .debug_loc     0x00000000       0xac Library/util/generator.o
 .debug_pubnames
                0x00000000       0x73 Library/util/generator.o
 .debug_aranges
                0x00000000       0x20 Library/util/generator.o
 .debug_str     0x00000000      0x935 Library/util/generator.o
 .comment       0x00000000       0x31 Library/util/generator.o
 .data          0x00000000       0x3c Library/util/print_util.o
 .bss           0x00000000        0x0 Library/util/print_util.o
 COMMON         0x00000000        0x1 Library/util/print_util.o
 .text          0x00000000        0x0 Library/util/sinus.o
 .data          0x00000000        0x0 Library/util/sinus.o
 .bss           0x00000000        0x0 Library/util/sinus.o
 .debug_abbrev  0x00000000       0x70 Library/util/sinus.o
 .debug_info    0x00000000       0xc3 Library/util/sinus.o
 .debug_line    0x00000000       0xfb Library/util/sinus.o
 .data.sin_table
                0x00000000       0x78 Library/util/sinus.o
 .debug_pubnames
                0x00000000       0x20 Library/util/sinus.o
 .debug_str     0x00000000      0x104 Library/util/sinus.o
 .comment       0x00000000       0x31 Library/util/sinus.o
 .data          0x00000000       0x34 src/asf/avr32/drivers/adcifa/adcifa.o
 .bss           0x00000000        0x0 src/asf/avr32/drivers/adcifa/adcifa.o
 .data          0x00000000       0x54 src/asf/avr32/drivers/ast/ast.o
 .bss           0x00000000        0x0 src/asf/avr32/drivers/ast/ast.o
 .data          0x00000000       0x20 src/asf/avr32/drivers/dacifb/dacifb.o
 .bss           0x00000000        0x0 src/asf/avr32/drivers/dacifb/dacifb.o
 .data          0x00000000       0x40 src/asf/avr32/drivers/eic/eic.o
 .bss           0x00000000        0x0 src/asf/avr32/drivers/eic/eic.o
 .data          0x00000000      0x108 src/asf/avr32/drivers/flashc/flashc.o
 .bss           0x00000000        0x0 src/asf/avr32/drivers/flashc/flashc.o
 .data          0x00000000       0x88 src/asf/avr32/drivers/gpio/gpio.o
 .bss           0x00000000        0x0 src/asf/avr32/drivers/gpio/gpio.o
 .text          0x00000000        0x0 src/asf/avr32/drivers/intc/exception.o
 .data          0x00000000        0x0 src/asf/avr32/drivers/intc/exception.o
 .bss           0x00000000        0x0 src/asf/avr32/drivers/intc/exception.o
 .data          0x00000000       0x14 src/asf/avr32/drivers/intc/intc.o
 .bss           0x00000000        0x0 src/asf/avr32/drivers/intc/intc.o
 .data          0x00000000       0x54 src/asf/avr32/drivers/pdca/pdca.o
 .bss           0x00000000        0x0 src/asf/avr32/drivers/pdca/pdca.o
 .data          0x00000000       0x4c src/asf/avr32/drivers/pevc/pevc.o
 .bss           0x00000000        0x0 src/asf/avr32/drivers/pevc/pevc.o
 .text          0x00000000      0x3c0 src/asf/avr32/drivers/pm/pm_uc3c.o
 .data          0x00000000       0x20 src/asf/avr32/drivers/pm/pm_uc3c.o
 .bss           0x00000000        0x0 src/asf/avr32/drivers/pm/pm_uc3c.o
 .debug_abbrev  0x00000000      0x181 src/asf/avr32/drivers/pm/pm_uc3c.o
 .debug_info    0x00000000     0x1048 src/asf/avr32/drivers/pm/pm_uc3c.o
 .debug_line    0x00000000      0x23b src/asf/avr32/drivers/pm/pm_uc3c.o
 .debug_frame   0x00000000      0x108 src/asf/avr32/drivers/pm/pm_uc3c.o
 .debug_loc     0x00000000      0x158 src/asf/avr32/drivers/pm/pm_uc3c.o
 .debug_pubnames
                0x00000000       0xc3 src/asf/avr32/drivers/pm/pm_uc3c.o
 .debug_aranges
                0x00000000       0x20 src/asf/avr32/drivers/pm/pm_uc3c.o
 .debug_str     0x00000000      0x78b src/asf/avr32/drivers/pm/pm_uc3c.o
 .comment       0x00000000       0x31 src/asf/avr32/drivers/pm/pm_uc3c.o
 .text          0x00000000      0x484 src/asf/avr32/drivers/pm/power_clocks_lib.o
 .data          0x00000000       0x18 src/asf/avr32/drivers/pm/power_clocks_lib.o
 .bss           0x00000000        0x0 src/asf/avr32/drivers/pm/power_clocks_lib.o
 .debug_abbrev  0x00000000      0x15a src/asf/avr32/drivers/pm/power_clocks_lib.o
 .debug_info    0x00000000      0x529 src/asf/avr32/drivers/pm/power_clocks_lib.o
 .debug_line    0x00000000      0x132 src/asf/avr32/drivers/pm/power_clocks_lib.o
 .rodata.opt.14604
                0x00000000       0x14 src/asf/avr32/drivers/pm/power_clocks_lib.o
 .debug_frame   0x00000000       0xe0 src/asf/avr32/drivers/pm/power_clocks_lib.o
 .debug_loc     0x00000000      0x102 src/asf/avr32/drivers/pm/power_clocks_lib.o
 .debug_pubnames
                0x00000000       0x82 src/asf/avr32/drivers/pm/power_clocks_lib.o
 .debug_aranges
                0x00000000       0x20 src/asf/avr32/drivers/pm/power_clocks_lib.o
 .debug_str     0x00000000      0x612 src/asf/avr32/drivers/pm/power_clocks_lib.o
 .comment       0x00000000       0x31 src/asf/avr32/drivers/pm/power_clocks_lib.o
 .text          0x00000000      0xe34 src/asf/avr32/drivers/pwm/pwm4.o
 .data          0x00000000       0x70 src/asf/avr32/drivers/pwm/pwm4.o
 .bss           0x00000000        0x0 src/asf/avr32/drivers/pwm/pwm4.o
 .debug_abbrev  0x00000000      0x235 src/asf/avr32/drivers/pwm/pwm4.o
 .debug_info    0x00000000     0x2a0d src/asf/avr32/drivers/pwm/pwm4.o
 .debug_line    0x00000000      0x37c src/asf/avr32/drivers/pwm/pwm4.o
 .debug_frame   0x00000000      0x324 src/asf/avr32/drivers/pwm/pwm4.o
 .debug_loc     0x00000000      0x4b4 src/asf/avr32/drivers/pwm/pwm4.o
 .debug_pubnames
                0x00000000      0x34b src/asf/avr32/drivers/pwm/pwm4.o
 .debug_aranges
                0x00000000       0x20 src/asf/avr32/drivers/pwm/pwm4.o
 .debug_str     0x00000000      0xeb9 src/asf/avr32/drivers/pwm/pwm4.o
 .comment       0x00000000       0x31 src/asf/avr32/drivers/pwm/pwm4.o
 .data          0x00000000       0xac src/asf/avr32/drivers/scif/scif_uc3c.o
 .bss           0x00000000        0x0 src/asf/avr32/drivers/scif/scif_uc3c.o
 .data          0x00000000       0x48 src/asf/avr32/drivers/spi/spi.o
 .bss           0x00000000        0x0 src/asf/avr32/drivers/spi/spi.o
 .text          0x00000000      0x884 src/asf/avr32/drivers/tc/tc.o
 .data          0x00000000       0x4c src/asf/avr32/drivers/tc/tc.o
 .bss           0x00000000        0x0 src/asf/avr32/drivers/tc/tc.o
 .debug_abbrev  0x00000000      0x21b src/asf/avr32/drivers/tc/tc.o
 .debug_info    0x00000000     0x116f src/asf/avr32/drivers/tc/tc.o
 .debug_line    0x00000000      0x2ae src/asf/avr32/drivers/tc/tc.o
 .debug_frame   0x00000000      0x228 src/asf/avr32/drivers/tc/tc.o
 .debug_loc     0x00000000      0x331 src/asf/avr32/drivers/tc/tc.o
 .debug_pubnames
                0x00000000      0x164 src/asf/avr32/drivers/tc/tc.o
 .debug_aranges
                0x00000000       0x20 src/asf/avr32/drivers/tc/tc.o
 .debug_str     0x00000000      0x4c0 src/asf/avr32/drivers/tc/tc.o
 .comment       0x00000000       0x31 src/asf/avr32/drivers/tc/tc.o
 .data          0x00000000       0x3c src/asf/avr32/drivers/twim/twim.o
 .bss           0x00000000        0x0 src/asf/avr32/drivers/twim/twim.o
 .data          0x00000000       0x78 src/asf/avr32/drivers/usart/usart.o
 .bss           0x00000000        0x0 src/asf/avr32/drivers/usart/usart.o
 .text          0x00000000     0x1978 src/asf/avr32/drivers/usbc/usbc_device.o
 .data          0x00000000       0xa0 src/asf/avr32/drivers/usbc/usbc_device.o
 .bss           0x00000000        0x0 src/asf/avr32/drivers/usbc/usbc_device.o
 .debug_abbrev  0x00000000      0x30d src/asf/avr32/drivers/usbc/usbc_device.o
 .debug_info    0x00000000     0xadf0 src/asf/avr32/drivers/usbc/usbc_device.o
 .debug_line    0x00000000      0x595 src/asf/avr32/drivers/usbc/usbc_device.o
 .bss.udd_b_idle
                0x00000000        0x1 src/asf/avr32/drivers/usbc/usbc_device.o
 .bss.udd_g_ep_table
                0x00000000       0x80 src/asf/avr32/drivers/usbc/usbc_device.o
 .bss.udd_ep_control_state
                0x00000000        0x4 src/asf/avr32/drivers/usbc/usbc_device.o
 .bss.udd_ctrl_prev_payload_nb_trans
                0x00000000        0x2 src/asf/avr32/drivers/usbc/usbc_device.o
 .bss.udd_ctrl_payload_nb_trans
                0x00000000        0x2 src/asf/avr32/drivers/usbc/usbc_device.o
 .bss.udd_ctrl_payload_need_in_zlp
                0x00000000        0x1 src/asf/avr32/drivers/usbc/usbc_device.o
 .bss.udd_ep_job
                0x00000000       0x3c src/asf/avr32/drivers/usbc/usbc_device.o
 .debug_frame   0x00000000      0x4e8 src/asf/avr32/drivers/usbc/usbc_device.o
 .debug_loc     0x00000000      0x6b8 src/asf/avr32/drivers/usbc/usbc_device.o
 .debug_pubnames
                0x00000000      0x1f1 src/asf/avr32/drivers/usbc/usbc_device.o
 .debug_aranges
                0x00000000       0x20 src/asf/avr32/drivers/usbc/usbc_device.o
 .debug_str     0x00000000     0x2f99 src/asf/avr32/drivers/usbc/usbc_device.o
 .comment       0x00000000       0x31 src/asf/avr32/drivers/usbc/usbc_device.o
 COMMON         0x00000000      0x118 src/asf/avr32/drivers/usbc/usbc_device.o
 .data          0x00000000        0x8 src/asf/avr32/services/delay/delay.o
 .bss           0x00000000        0x0 src/asf/avr32/services/delay/delay.o
 .text          0x00000000        0x0 src/asf/avr32/utils/startup/startup_uc3.o
 .data          0x00000000        0x0 src/asf/avr32/utils/startup/startup_uc3.o
 .bss           0x00000000        0x0 src/asf/avr32/utils/startup/startup_uc3.o
 .reset         0x00000000        0x8 src/asf/avr32/utils/startup/startup_uc3.o
 .text          0x00000000        0x0 src/asf/avr32/utils/startup/trampoline_uc3.o
 .data          0x00000000        0x0 src/asf/avr32/utils/startup/trampoline_uc3.o
 .bss           0x00000000        0x0 src/asf/avr32/utils/startup/trampoline_uc3.o
 .data          0x00000000        0x4 src/asf/common/boards/user_board/init.o
 .bss           0x00000000        0x0 src/asf/common/boards/user_board/init.o
 .data          0x00000000       0x28 src/asf/common/services/clock/uc3c/osc.o
 .bss           0x00000000        0x0 src/asf/common/services/clock/uc3c/osc.o
 .data          0x00000000       0x14 src/asf/common/services/clock/uc3c/pll.o
 .bss           0x00000000        0x0 src/asf/common/services/clock/uc3c/pll.o
 .data          0x00000000       0x60 src/asf/common/services/clock/uc3c/sysclk.o
 .bss           0x00000000        0x0 src/asf/common/services/clock/uc3c/sysclk.o
 .text          0x00000000        0x0 src/asf/common/services/sleepmgr/uc3/sleepmgr.o
 .data          0x00000000        0x0 src/asf/common/services/sleepmgr/uc3/sleepmgr.o
 .bss           0x00000000        0x0 src/asf/common/services/sleepmgr/uc3/sleepmgr.o
 .data          0x00000000       0x48 src/asf/common/services/spi/uc3_spi/spi_master.o
 .bss           0x00000000        0x0 src/asf/common/services/spi/uc3_spi/spi_master.o
 .text          0x00000000      0xb94 src/asf/common/services/usb/class/cdc/device/udi_cdc.o
 .data          0x00000000       0x74 src/asf/common/services/usb/class/cdc/device/udi_cdc.o
 .bss           0x00000000        0x0 src/asf/common/services/usb/class/cdc/device/udi_cdc.o
 .debug_abbrev  0x00000000      0x24a src/asf/common/services/usb/class/cdc/device/udi_cdc.o
 .debug_info    0x00000000      0xa29 src/asf/common/services/usb/class/cdc/device/udi_cdc.o
 .debug_line    0x00000000      0x322 src/asf/common/services/usb/class/cdc/device/udi_cdc.o
 .data.rel.udi_api_cdc_comm
                0x00000000       0x14 src/asf/common/services/usb/class/cdc/device/udi_cdc.o
 .data.rel.udi_api_cdc_data
                0x00000000       0x14 src/asf/common/services/usb/class/cdc/device/udi_cdc.o
 .bss.udi_cdc_line_coding
                0x00000000        0x7 src/asf/common/services/usb/class/cdc/device/udi_cdc.o
 .bss.udi_cdc_serial_state_msg_ongoing
                0x00000000        0x1 src/asf/common/services/usb/class/cdc/device/udi_cdc.o
 .bss.udi_cdc_state
                0x00000000        0x2 src/asf/common/services/usb/class/cdc/device/udi_cdc.o
 .data.uid_cdc_state_msg
                0x00000000        0xc src/asf/common/services/usb/class/cdc/device/udi_cdc.o
 .bss.udi_cdc_running
                0x00000000        0x1 src/asf/common/services/usb/class/cdc/device/udi_cdc.o
 .bss.udi_cdc_rx_buf
                0x00000000       0x80 src/asf/common/services/usb/class/cdc/device/udi_cdc.o
 .bss.udi_cdc_rx_buf_nb
                0x00000000        0x4 src/asf/common/services/usb/class/cdc/device/udi_cdc.o
 .bss.udi_cdc_rx_buf_sel
                0x00000000        0x1 src/asf/common/services/usb/class/cdc/device/udi_cdc.o
 .bss.udi_cdc_rx_pos
                0x00000000        0x2 src/asf/common/services/usb/class/cdc/device/udi_cdc.o
 .bss.udi_cdc_rx_trans_ongoing
                0x00000000        0x1 src/asf/common/services/usb/class/cdc/device/udi_cdc.o
 .bss.udi_cdc_tx_buf
                0x00000000       0x80 src/asf/common/services/usb/class/cdc/device/udi_cdc.o
 .bss.udi_cdc_tx_buf_nb
                0x00000000        0x4 src/asf/common/services/usb/class/cdc/device/udi_cdc.o
 .bss.udi_cdc_tx_buf_sel
                0x00000000        0x1 src/asf/common/services/usb/class/cdc/device/udi_cdc.o
 .bss.udi_cdc_tx_sof_num
                0x00000000        0x2 src/asf/common/services/usb/class/cdc/device/udi_cdc.o
 .bss.udi_cdc_tx_trans_ongoing
                0x00000000        0x1 src/asf/common/services/usb/class/cdc/device/udi_cdc.o
 .bss.udi_cdc_tx_both_buf_to_send
                0x00000000        0x1 src/asf/common/services/usb/class/cdc/device/udi_cdc.o
 .debug_frame   0x00000000      0x398 src/asf/common/services/usb/class/cdc/device/udi_cdc.o
 .debug_loc     0x00000000      0x4df src/asf/common/services/usb/class/cdc/device/udi_cdc.o
 .debug_pubnames
                0x00000000      0x283 src/asf/common/services/usb/class/cdc/device/udi_cdc.o
 .debug_aranges
                0x00000000       0x20 src/asf/common/services/usb/class/cdc/device/udi_cdc.o
 .debug_str     0x00000000      0x809 src/asf/common/services/usb/class/cdc/device/udi_cdc.o
 .comment       0x00000000       0x31 src/asf/common/services/usb/class/cdc/device/udi_cdc.o
 .text          0x00000000        0x0 src/asf/common/services/usb/class/cdc/device/udi_cdc_desc.o
 .data          0x00000000        0x0 src/asf/common/services/usb/class/cdc/device/udi_cdc_desc.o
 .bss           0x00000000        0x0 src/asf/common/services/usb/class/cdc/device/udi_cdc_desc.o
 .debug_abbrev  0x00000000       0xf9 src/asf/common/services/usb/class/cdc/device/udi_cdc_desc.o
 .debug_info    0x00000000      0x75f src/asf/common/services/usb/class/cdc/device/udi_cdc_desc.o
 .debug_line    0x00000000      0x1d9 src/asf/common/services/usb/class/cdc/device/udi_cdc_desc.o
 .data.udc_device_desc
                0x00000000       0x14 src/asf/common/services/usb/class/cdc/device/udi_cdc_desc.o
 .data.udc_desc
                0x00000000       0x44 src/asf/common/services/usb/class/cdc/device/udi_cdc_desc.o
 .data.rel.udi_apis
                0x00000000        0x8 src/asf/common/services/usb/class/cdc/device/udi_cdc_desc.o
 .data.rel.udc_config_fshs
                0x00000000        0x8 src/asf/common/services/usb/class/cdc/device/udi_cdc_desc.o
 .data.rel.udc_config
                0x00000000        0x8 src/asf/common/services/usb/class/cdc/device/udi_cdc_desc.o
 .debug_pubnames
                0x00000000       0x63 src/asf/common/services/usb/class/cdc/device/udi_cdc_desc.o
 .debug_str     0x00000000      0x666 src/asf/common/services/usb/class/cdc/device/udi_cdc_desc.o
 .comment       0x00000000       0x31 src/asf/common/services/usb/class/cdc/device/udi_cdc_desc.o
 .text          0x00000000      0xc18 src/asf/common/services/usb/udc/udc.o
 .data          0x00000000       0x64 src/asf/common/services/usb/udc/udc.o
 .bss           0x00000000        0x0 src/asf/common/services/usb/udc/udc.o
 .debug_abbrev  0x00000000      0x1f9 src/asf/common/services/usb/udc/udc.o
 .debug_info    0x00000000      0xbb8 src/asf/common/services/usb/udc/udc.o
 .debug_line    0x00000000      0x309 src/asf/common/services/usb/udc/udc.o
 .bss.udc_device_status
                0x00000000        0x2 src/asf/common/services/usb/udc/udc.o
 .bss.udc_num_configuration
                0x00000000        0x1 src/asf/common/services/usb/udc/udc.o
 .bss.udc_ptr_conf
                0x00000000        0x4 src/asf/common/services/usb/udc/udc.o
 .bss.udc_ptr_iface
                0x00000000        0x4 src/asf/common/services/usb/udc/udc.o
 .data.udc_string_desc_languageid
                0x00000000        0x4 src/asf/common/services/usb/udc/udc.o
 .data.udc_string_manufacturer_name
                0x00000000        0xc src/asf/common/services/usb/udc/udc.o
 .data.udc_string_product_name
                0x00000000        0x4 src/asf/common/services/usb/udc/udc.o
 .data.udc_string_desc
                0x00000000       0x14 src/asf/common/services/usb/udc/udc.o
 .bss.udc_iface_setting.15505
                0x00000000        0x1 src/asf/common/services/usb/udc/udc.o
 .bss.udc_ep_status.15290
                0x00000000        0x2 src/asf/common/services/usb/udc/udc.o
 .debug_frame   0x00000000      0x330 src/asf/common/services/usb/udc/udc.o
 .debug_loc     0x00000000      0x433 src/asf/common/services/usb/udc/udc.o
 .debug_pubnames
                0x00000000       0x64 src/asf/common/services/usb/udc/udc.o
 .debug_aranges
                0x00000000       0x20 src/asf/common/services/usb/udc/udc.o
 .debug_ranges  0x00000000       0x18 src/asf/common/services/usb/udc/udc.o
 .debug_str     0x00000000      0xb06 src/asf/common/services/usb/udc/udc.o
 .comment       0x00000000       0x31 src/asf/common/services/usb/udc/udc.o
 .text          0x00000000       0x90 src/asf/common/utils/stdio/read.o
 .data          0x00000000        0x4 src/asf/common/utils/stdio/read.o
 .bss           0x00000000        0x0 src/asf/common/utils/stdio/read.o
 .debug_abbrev  0x00000000       0xd6 src/asf/common/utils/stdio/read.o
 .debug_info    0x00000000      0x141 src/asf/common/utils/stdio/read.o
 .debug_line    0x00000000       0x66 src/asf/common/utils/stdio/read.o
 .debug_frame   0x00000000       0x30 src/asf/common/utils/stdio/read.o
 .debug_loc     0x00000000       0x2b src/asf/common/utils/stdio/read.o
 .debug_pubnames
                0x00000000       0x28 src/asf/common/utils/stdio/read.o
 .debug_aranges
                0x00000000       0x20 src/asf/common/utils/stdio/read.o
 .debug_ranges  0x00000000       0x18 src/asf/common/utils/stdio/read.o
 .debug_str     0x00000000      0x123 src/asf/common/utils/stdio/read.o
 .comment       0x00000000       0x31 src/asf/common/utils/stdio/read.o
 COMMON         0x00000000        0x4 src/asf/common/utils/stdio/read.o
 .text          0x00000000      0x1a8 src/asf/common/utils/stdio/stdio_usb/stdio_usb.o
 .data          0x00000000       0x28 src/asf/common/utils/stdio/stdio_usb/stdio_usb.o
 .bss           0x00000000        0x0 src/asf/common/utils/stdio/stdio_usb/stdio_usb.o
 .debug_abbrev  0x00000000      0x116 src/asf/common/utils/stdio/stdio_usb/stdio_usb.o
 .debug_info    0x00000000      0x249 src/asf/common/utils/stdio/stdio_usb/stdio_usb.o
 .debug_line    0x00000000       0xd6 src/asf/common/utils/stdio/stdio_usb/stdio_usb.o
 .bss.stdio_usb_interface_enable
                0x00000000        0x1 src/asf/common/utils/stdio/stdio_usb/stdio_usb.o
 .debug_frame   0x00000000      0x150 src/asf/common/utils/stdio/stdio_usb/stdio_usb.o
 .debug_loc     0x00000000      0x1ae src/asf/common/utils/stdio/stdio_usb/stdio_usb.o
 .debug_pubnames
                0x00000000       0x95 src/asf/common/utils/stdio/stdio_usb/stdio_usb.o
 .debug_aranges
                0x00000000       0x20 src/asf/common/utils/stdio/stdio_usb/stdio_usb.o
 .debug_str     0x00000000      0x1fc src/asf/common/utils/stdio/stdio_usb/stdio_usb.o
 .comment       0x00000000       0x31 src/asf/common/utils/stdio/stdio_usb/stdio_usb.o
 .text          0x00000000       0x94 src/asf/common/utils/stdio/write.o
 .data          0x00000000        0x4 src/asf/common/utils/stdio/write.o
 .bss           0x00000000        0x0 src/asf/common/utils/stdio/write.o
 .debug_abbrev  0x00000000       0xb1 src/asf/common/utils/stdio/write.o
 .debug_info    0x00000000      0x132 src/asf/common/utils/stdio/write.o
 .debug_line    0x00000000       0x64 src/asf/common/utils/stdio/write.o
 .debug_frame   0x00000000       0x30 src/asf/common/utils/stdio/write.o
 .debug_loc     0x00000000       0x2b src/asf/common/utils/stdio/write.o
 .debug_pubnames
                0x00000000       0x38 src/asf/common/utils/stdio/write.o
 .debug_aranges
                0x00000000       0x20 src/asf/common/utils/stdio/write.o
 .debug_str     0x00000000      0x125 src/asf/common/utils/stdio/write.o
 .comment       0x00000000       0x31 src/asf/common/utils/stdio/write.o
 COMMON         0x00000000        0x8 src/asf/common/utils/stdio/write.o
 .data          0x00000000       0x1c src/boardsupport.o
 .bss           0x00000000        0x0 src/boardsupport.o
 .data.vehicle_model_parameters
                0x00000000      0x194 src/boardsupport.o
 .data.usart_opt
                0x00000000      0xac8 src/boardsupport.o
 .data          0x00000000       0x10 src/main.o
 .bss           0x00000000        0x0 src/main.o
 .data.usart_opt
                0x00000000      0xac8 src/main.o
 .data.vehicle_model_parameters
                0x00000000      0x194 src/main.o
 .rodata.write_data
                0x00000000        0x8 src/main.o
 .text          0x00000000        0x0 c:/program files (x86)/atmel/atmel toolchain/avr32 gcc/native/3.4.2.1002/avr32-gnu-toolchain/bin/../lib/gcc/avr32/4.4.7/../../../../avr32/lib/ucr3fp\libm.a(lib_a-s_cos.o)
 .data          0x00000000        0x0 c:/program files (x86)/atmel/atmel toolchain/avr32 gcc/native/3.4.2.1002/avr32-gnu-toolchain/bin/../lib/gcc/avr32/4.4.7/../../../../avr32/lib/ucr3fp\libm.a(lib_a-s_cos.o)
 .bss           0x00000000        0x0 c:/program files (x86)/atmel/atmel toolchain/avr32 gcc/native/3.4.2.1002/avr32-gnu-toolchain/bin/../lib/gcc/avr32/4.4.7/../../../../avr32/lib/ucr3fp\libm.a(lib_a-s_cos.o)
 .text          0x00000000        0x0 c:/program files (x86)/atmel/atmel toolchain/avr32 gcc/native/3.4.2.1002/avr32-gnu-toolchain/bin/../lib/gcc/avr32/4.4.7/../../../../avr32/lib/ucr3fp\libm.a(lib_a-s_sin.o)
 .data          0x00000000        0x0 c:/program files (x86)/atmel/atmel toolchain/avr32 gcc/native/3.4.2.1002/avr32-gnu-toolchain/bin/../lib/gcc/avr32/4.4.7/../../../../avr32/lib/ucr3fp\libm.a(lib_a-s_sin.o)
 .bss           0x00000000        0x0 c:/program files (x86)/atmel/atmel toolchain/avr32 gcc/native/3.4.2.1002/avr32-gnu-toolchain/bin/../lib/gcc/avr32/4.4.7/../../../../avr32/lib/ucr3fp\libm.a(lib_a-s_sin.o)
 .text          0x00000000        0x0 c:/program files (x86)/atmel/atmel toolchain/avr32 gcc/native/3.4.2.1002/avr32-gnu-toolchain/bin/../lib/gcc/avr32/4.4.7/../../../../avr32/lib/ucr3fp\libm.a(lib_a-w_asin.o)
 .data          0x00000000        0x0 c:/program files (x86)/atmel/atmel toolchain/avr32 gcc/native/3.4.2.1002/avr32-gnu-toolchain/bin/../lib/gcc/avr32/4.4.7/../../../../avr32/lib/ucr3fp\libm.a(lib_a-w_asin.o)
 .bss           0x00000000        0x0 c:/program files (x86)/atmel/atmel toolchain/avr32 gcc/native/3.4.2.1002/avr32-gnu-toolchain/bin/../lib/gcc/avr32/4.4.7/../../../../avr32/lib/ucr3fp\libm.a(lib_a-w_asin.o)
 .text          0x00000000        0x0 c:/program files (x86)/atmel/atmel toolchain/avr32 gcc/native/3.4.2.1002/avr32-gnu-toolchain/bin/../lib/gcc/avr32/4.4.7/../../../../avr32/lib/ucr3fp\libm.a(lib_a-w_atan2.o)
 .data          0x00000000        0x0 c:/program files (x86)/atmel/atmel toolchain/avr32 gcc/native/3.4.2.1002/avr32-gnu-toolchain/bin/../lib/gcc/avr32/4.4.7/../../../../avr32/lib/ucr3fp\libm.a(lib_a-w_atan2.o)
 .bss           0x00000000        0x0 c:/program files (x86)/atmel/atmel toolchain/avr32 gcc/native/3.4.2.1002/avr32-gnu-toolchain/bin/../lib/gcc/avr32/4.4.7/../../../../avr32/lib/ucr3fp\libm.a(lib_a-w_atan2.o)
 .text          0x00000000        0x0 c:/program files (x86)/atmel/atmel toolchain/avr32 gcc/native/3.4.2.1002/avr32-gnu-toolchain/bin/../lib/gcc/avr32/4.4.7/../../../../avr32/lib/ucr3fp\libm.a(lib_a-w_fmod.o)
 .data          0x00000000        0x0 c:/program files (x86)/atmel/atmel toolchain/avr32 gcc/native/3.4.2.1002/avr32-gnu-toolchain/bin/../lib/gcc/avr32/4.4.7/../../../../avr32/lib/ucr3fp\libm.a(lib_a-w_fmod.o)
 .bss           0x00000000        0x0 c:/program files (x86)/atmel/atmel toolchain/avr32 gcc/native/3.4.2.1002/avr32-gnu-toolchain/bin/../lib/gcc/avr32/4.4.7/../../../../avr32/lib/ucr3fp\libm.a(lib_a-w_fmod.o)
 .debug_abbrev  0x00000000       0xf9 c:/program files (x86)/atmel/atmel toolchain/avr32 gcc/native/3.4.2.1002/avr32-gnu-toolchain/bin/../lib/gcc/avr32/4.4.7/../../../../avr32/lib/ucr3fp\libm.a(lib_a-w_fmod.o)
 .debug_info    0x00000000      0x1af c:/program files (x86)/atmel/atmel toolchain/avr32 gcc/native/3.4.2.1002/avr32-gnu-toolchain/bin/../lib/gcc/avr32/4.4.7/../../../../avr32/lib/ucr3fp\libm.a(lib_a-w_fmod.o)
 .debug_line    0x00000000      0x195 c:/program files (x86)/atmel/atmel toolchain/avr32 gcc/native/3.4.2.1002/avr32-gnu-toolchain/bin/../lib/gcc/avr32/4.4.7/../../../../avr32/lib/ucr3fp\libm.a(lib_a-w_fmod.o)
 .text.fmod     0x00000000       0xbc c:/program files (x86)/atmel/atmel toolchain/avr32 gcc/native/3.4.2.1002/avr32-gnu-toolchain/bin/../lib/gcc/avr32/4.4.7/../../../../avr32/lib/ucr3fp\libm.a(lib_a-w_fmod.o)
 .rodata.str1.4
                0x00000000        0x8 c:/program files (x86)/atmel/atmel toolchain/avr32 gcc/native/3.4.2.1002/avr32-gnu-toolchain/bin/../lib/gcc/avr32/4.4.7/../../../../avr32/lib/ucr3fp\libm.a(lib_a-w_fmod.o)
 .debug_frame   0x00000000       0x44 c:/program files (x86)/atmel/atmel toolchain/avr32 gcc/native/3.4.2.1002/avr32-gnu-toolchain/bin/../lib/gcc/avr32/4.4.7/../../../../avr32/lib/ucr3fp\libm.a(lib_a-w_fmod.o)
 .debug_loc     0x00000000       0xa4 c:/program files (x86)/atmel/atmel toolchain/avr32 gcc/native/3.4.2.1002/avr32-gnu-toolchain/bin/../lib/gcc/avr32/4.4.7/../../../../avr32/lib/ucr3fp\libm.a(lib_a-w_fmod.o)
 .debug_pubnames
                0x00000000       0x1b c:/program files (x86)/atmel/atmel toolchain/avr32 gcc/native/3.4.2.1002/avr32-gnu-toolchain/bin/../lib/gcc/avr32/4.4.7/../../../../avr32/lib/ucr3fp\libm.a(lib_a-w_fmod.o)
 .debug_aranges
                0x00000000       0x20 c:/program files (x86)/atmel/atmel toolchain/avr32 gcc/native/3.4.2.1002/avr32-gnu-toolchain/bin/../lib/gcc/avr32/4.4.7/../../../../avr32/lib/ucr3fp\libm.a(lib_a-w_fmod.o)
 .debug_ranges  0x00000000       0x18 c:/program files (x86)/atmel/atmel toolchain/avr32 gcc/native/3.4.2.1002/avr32-gnu-toolchain/bin/../lib/gcc/avr32/4.4.7/../../../../avr32/lib/ucr3fp\libm.a(lib_a-w_fmod.o)
 .debug_str     0x00000000      0x19b c:/program files (x86)/atmel/atmel toolchain/avr32 gcc/native/3.4.2.1002/avr32-gnu-toolchain/bin/../lib/gcc/avr32/4.4.7/../../../../avr32/lib/ucr3fp\libm.a(lib_a-w_fmod.o)
 .comment       0x00000000       0x31 c:/program files (x86)/atmel/atmel toolchain/avr32 gcc/native/3.4.2.1002/avr32-gnu-toolchain/bin/../lib/gcc/avr32/4.4.7/../../../../avr32/lib/ucr3fp\libm.a(lib_a-w_fmod.o)
 .text          0x00000000        0x0 c:/program files (x86)/atmel/atmel toolchain/avr32 gcc/native/3.4.2.1002/avr32-gnu-toolchain/bin/../lib/gcc/avr32/4.4.7/../../../../avr32/lib/ucr3fp\libm.a(lib_a-w_pow.o)
 .data          0x00000000        0x0 c:/program files (x86)/atmel/atmel toolchain/avr32 gcc/native/3.4.2.1002/avr32-gnu-toolchain/bin/../lib/gcc/avr32/4.4.7/../../../../avr32/lib/ucr3fp\libm.a(lib_a-w_pow.o)
 .bss           0x00000000        0x0 c:/program files (x86)/atmel/atmel toolchain/avr32 gcc/native/3.4.2.1002/avr32-gnu-toolchain/bin/../lib/gcc/avr32/4.4.7/../../../../avr32/lib/ucr3fp\libm.a(lib_a-w_pow.o)
 .text          0x00000000        0x0 c:/program files (x86)/atmel/atmel toolchain/avr32 gcc/native/3.4.2.1002/avr32-gnu-toolchain/bin/../lib/gcc/avr32/4.4.7/../../../../avr32/lib/ucr3fp\libm.a(lib_a-w_sqrt.o)
 .data          0x00000000        0x0 c:/program files (x86)/atmel/atmel toolchain/avr32 gcc/native/3.4.2.1002/avr32-gnu-toolchain/bin/../lib/gcc/avr32/4.4.7/../../../../avr32/lib/ucr3fp\libm.a(lib_a-w_sqrt.o)
 .bss           0x00000000        0x0 c:/program files (x86)/atmel/atmel toolchain/avr32 gcc/native/3.4.2.1002/avr32-gnu-toolchain/bin/../lib/gcc/avr32/4.4.7/../../../../avr32/lib/ucr3fp\libm.a(lib_a-w_sqrt.o)
 .text          0x00000000        0x0 c:/program files (x86)/atmel/atmel toolchain/avr32 gcc/native/3.4.2.1002/avr32-gnu-toolchain/bin/../lib/gcc/avr32/4.4.7/../../../../avr32/lib/ucr3fp\libm.a(lib_a-wf_acos.o)
 .data          0x00000000        0x0 c:/program files (x86)/atmel/atmel toolchain/avr32 gcc/native/3.4.2.1002/avr32-gnu-toolchain/bin/../lib/gcc/avr32/4.4.7/../../../../avr32/lib/ucr3fp\libm.a(lib_a-wf_acos.o)
 .bss           0x00000000        0x0 c:/program files (x86)/atmel/atmel toolchain/avr32 gcc/native/3.4.2.1002/avr32-gnu-toolchain/bin/../lib/gcc/avr32/4.4.7/../../../../avr32/lib/ucr3fp\libm.a(lib_a-wf_acos.o)
 .debug_abbrev  0x00000000       0xc9 c:/program files (x86)/atmel/atmel toolchain/avr32 gcc/native/3.4.2.1002/avr32-gnu-toolchain/bin/../lib/gcc/avr32/4.4.7/../../../../avr32/lib/ucr3fp\libm.a(lib_a-wf_acos.o)
 .debug_info    0x00000000      0x172 c:/program files (x86)/atmel/atmel toolchain/avr32 gcc/native/3.4.2.1002/avr32-gnu-toolchain/bin/../lib/gcc/avr32/4.4.7/../../../../avr32/lib/ucr3fp\libm.a(lib_a-wf_acos.o)
 .debug_line    0x00000000      0x18f c:/program files (x86)/atmel/atmel toolchain/avr32 gcc/native/3.4.2.1002/avr32-gnu-toolchain/bin/../lib/gcc/avr32/4.4.7/../../../../avr32/lib/ucr3fp\libm.a(lib_a-wf_acos.o)
 .text.acosf    0x00000000       0xb8 c:/program files (x86)/atmel/atmel toolchain/avr32 gcc/native/3.4.2.1002/avr32-gnu-toolchain/bin/../lib/gcc/avr32/4.4.7/../../../../avr32/lib/ucr3fp\libm.a(lib_a-wf_acos.o)
 .rodata.str1.4
                0x00000000        0xc c:/program files (x86)/atmel/atmel toolchain/avr32 gcc/native/3.4.2.1002/avr32-gnu-toolchain/bin/../lib/gcc/avr32/4.4.7/../../../../avr32/lib/ucr3fp\libm.a(lib_a-wf_acos.o)
 .debug_frame   0x00000000       0x38 c:/program files (x86)/atmel/atmel toolchain/avr32 gcc/native/3.4.2.1002/avr32-gnu-toolchain/bin/../lib/gcc/avr32/4.4.7/../../../../avr32/lib/ucr3fp\libm.a(lib_a-wf_acos.o)
 .debug_loc     0x00000000       0x49 c:/program files (x86)/atmel/atmel toolchain/avr32 gcc/native/3.4.2.1002/avr32-gnu-toolchain/bin/../lib/gcc/avr32/4.4.7/../../../../avr32/lib/ucr3fp\libm.a(lib_a-wf_acos.o)
 .debug_pubnames
                0x00000000       0x1c c:/program files (x86)/atmel/atmel toolchain/avr32 gcc/native/3.4.2.1002/avr32-gnu-toolchain/bin/../lib/gcc/avr32/4.4.7/../../../../avr32/lib/ucr3fp\libm.a(lib_a-wf_acos.o)
 .debug_aranges
                0x00000000       0x20 c:/program files (x86)/atmel/atmel toolchain/avr32 gcc/native/3.4.2.1002/avr32-gnu-toolchain/bin/../lib/gcc/avr32/4.4.7/../../../../avr32/lib/ucr3fp\libm.a(lib_a-wf_acos.o)
 .debug_ranges  0x00000000       0x18 c:/program files (x86)/atmel/atmel toolchain/avr32 gcc/native/3.4.2.1002/avr32-gnu-toolchain/bin/../lib/gcc/avr32/4.4.7/../../../../avr32/lib/ucr3fp\libm.a(lib_a-wf_acos.o)
 .debug_str     0x00000000      0x19d c:/program files (x86)/atmel/atmel toolchain/avr32 gcc/native/3.4.2.1002/avr32-gnu-toolchain/bin/../lib/gcc/avr32/4.4.7/../../../../avr32/lib/ucr3fp\libm.a(lib_a-wf_acos.o)
 .comment       0x00000000       0x31 c:/program files (x86)/atmel/atmel toolchain/avr32 gcc/native/3.4.2.1002/avr32-gnu-toolchain/bin/../lib/gcc/avr32/4.4.7/../../../../avr32/lib/ucr3fp\libm.a(lib_a-wf_acos.o)
 .text          0x00000000        0x0 c:/program files (x86)/atmel/atmel toolchain/avr32 gcc/native/3.4.2.1002/avr32-gnu-toolchain/bin/../lib/gcc/avr32/4.4.7/../../../../avr32/lib/ucr3fp\libm.a(lib_a-e_asin.o)
 .data          0x00000000        0x0 c:/program files (x86)/atmel/atmel toolchain/avr32 gcc/native/3.4.2.1002/avr32-gnu-toolchain/bin/../lib/gcc/avr32/4.4.7/../../../../avr32/lib/ucr3fp\libm.a(lib_a-e_asin.o)
 .bss           0x00000000        0x0 c:/program files (x86)/atmel/atmel toolchain/avr32 gcc/native/3.4.2.1002/avr32-gnu-toolchain/bin/../lib/gcc/avr32/4.4.7/../../../../avr32/lib/ucr3fp\libm.a(lib_a-e_asin.o)
 .text          0x00000000        0x0 c:/program files (x86)/atmel/atmel toolchain/avr32 gcc/native/3.4.2.1002/avr32-gnu-toolchain/bin/../lib/gcc/avr32/4.4.7/../../../../avr32/lib/ucr3fp\libm.a(lib_a-e_atan2.o)
 .data          0x00000000        0x0 c:/program files (x86)/atmel/atmel toolchain/avr32 gcc/native/3.4.2.1002/avr32-gnu-toolchain/bin/../lib/gcc/avr32/4.4.7/../../../../avr32/lib/ucr3fp\libm.a(lib_a-e_atan2.o)
 .bss           0x00000000        0x0 c:/program files (x86)/atmel/atmel toolchain/avr32 gcc/native/3.4.2.1002/avr32-gnu-toolchain/bin/../lib/gcc/avr32/4.4.7/../../../../avr32/lib/ucr3fp\libm.a(lib_a-e_atan2.o)
 .text          0x00000000        0x0 c:/program files (x86)/atmel/atmel toolchain/avr32 gcc/native/3.4.2.1002/avr32-gnu-toolchain/bin/../lib/gcc/avr32/4.4.7/../../../../avr32/lib/ucr3fp\libm.a(lib_a-e_fmod.o)
 .data          0x00000000        0x0 c:/program files (x86)/atmel/atmel toolchain/avr32 gcc/native/3.4.2.1002/avr32-gnu-toolchain/bin/../lib/gcc/avr32/4.4.7/../../../../avr32/lib/ucr3fp\libm.a(lib_a-e_fmod.o)
 .bss           0x00000000        0x0 c:/program files (x86)/atmel/atmel toolchain/avr32 gcc/native/3.4.2.1002/avr32-gnu-toolchain/bin/../lib/gcc/avr32/4.4.7/../../../../avr32/lib/ucr3fp\libm.a(lib_a-e_fmod.o)
 .debug_abbrev  0x00000000      0x121 c:/program files (x86)/atmel/atmel toolchain/avr32 gcc/native/3.4.2.1002/avr32-gnu-toolchain/bin/../lib/gcc/avr32/4.4.7/../../../../avr32/lib/ucr3fp\libm.a(lib_a-e_fmod.o)
 .debug_info    0x00000000      0x268 c:/program files (x86)/atmel/atmel toolchain/avr32 gcc/native/3.4.2.1002/avr32-gnu-toolchain/bin/../lib/gcc/avr32/4.4.7/../../../../avr32/lib/ucr3fp\libm.a(lib_a-e_fmod.o)
 .debug_line    0x00000000      0x347 c:/program files (x86)/atmel/atmel toolchain/avr32 gcc/native/3.4.2.1002/avr32-gnu-toolchain/bin/../lib/gcc/avr32/4.4.7/../../../../avr32/lib/ucr3fp\libm.a(lib_a-e_fmod.o)
 .text.__ieee754_fmod
                0x00000000      0x240 c:/program files (x86)/atmel/atmel toolchain/avr32 gcc/native/3.4.2.1002/avr32-gnu-toolchain/bin/../lib/gcc/avr32/4.4.7/../../../../avr32/lib/ucr3fp\libm.a(lib_a-e_fmod.o)
 .rodata.Zero   0x00000000       0x10 c:/program files (x86)/atmel/atmel toolchain/avr32 gcc/native/3.4.2.1002/avr32-gnu-toolchain/bin/../lib/gcc/avr32/4.4.7/../../../../avr32/lib/ucr3fp\libm.a(lib_a-e_fmod.o)
 .debug_frame   0x00000000       0x40 c:/program files (x86)/atmel/atmel toolchain/avr32 gcc/native/3.4.2.1002/avr32-gnu-toolchain/bin/../lib/gcc/avr32/4.4.7/../../../../avr32/lib/ucr3fp\libm.a(lib_a-e_fmod.o)
 .debug_loc     0x00000000      0x4ac c:/program files (x86)/atmel/atmel toolchain/avr32 gcc/native/3.4.2.1002/avr32-gnu-toolchain/bin/../lib/gcc/avr32/4.4.7/../../../../avr32/lib/ucr3fp\libm.a(lib_a-e_fmod.o)
 .debug_pubnames
                0x00000000       0x25 c:/program files (x86)/atmel/atmel toolchain/avr32 gcc/native/3.4.2.1002/avr32-gnu-toolchain/bin/../lib/gcc/avr32/4.4.7/../../../../avr32/lib/ucr3fp\libm.a(lib_a-e_fmod.o)
 .debug_aranges
                0x00000000       0x20 c:/program files (x86)/atmel/atmel toolchain/avr32 gcc/native/3.4.2.1002/avr32-gnu-toolchain/bin/../lib/gcc/avr32/4.4.7/../../../../avr32/lib/ucr3fp\libm.a(lib_a-e_fmod.o)
 .debug_ranges  0x00000000       0x68 c:/program files (x86)/atmel/atmel toolchain/avr32 gcc/native/3.4.2.1002/avr32-gnu-toolchain/bin/../lib/gcc/avr32/4.4.7/../../../../avr32/lib/ucr3fp\libm.a(lib_a-e_fmod.o)
 .debug_str     0x00000000      0x16c c:/program files (x86)/atmel/atmel toolchain/avr32 gcc/native/3.4.2.1002/avr32-gnu-toolchain/bin/../lib/gcc/avr32/4.4.7/../../../../avr32/lib/ucr3fp\libm.a(lib_a-e_fmod.o)
 .comment       0x00000000       0x31 c:/program files (x86)/atmel/atmel toolchain/avr32 gcc/native/3.4.2.1002/avr32-gnu-toolchain/bin/../lib/gcc/avr32/4.4.7/../../../../avr32/lib/ucr3fp\libm.a(lib_a-e_fmod.o)
 .text          0x00000000        0x0 c:/program files (x86)/atmel/atmel toolchain/avr32 gcc/native/3.4.2.1002/avr32-gnu-toolchain/bin/../lib/gcc/avr32/4.4.7/../../../../avr32/lib/ucr3fp\libm.a(lib_a-e_pow.o)
 .data          0x00000000        0x0 c:/program files (x86)/atmel/atmel toolchain/avr32 gcc/native/3.4.2.1002/avr32-gnu-toolchain/bin/../lib/gcc/avr32/4.4.7/../../../../avr32/lib/ucr3fp\libm.a(lib_a-e_pow.o)
 .bss           0x00000000        0x0 c:/program files (x86)/atmel/atmel toolchain/avr32 gcc/native/3.4.2.1002/avr32-gnu-toolchain/bin/../lib/gcc/avr32/4.4.7/../../../../avr32/lib/ucr3fp\libm.a(lib_a-e_pow.o)
 .text          0x00000000        0x0 c:/program files (x86)/atmel/atmel toolchain/avr32 gcc/native/3.4.2.1002/avr32-gnu-toolchain/bin/../lib/gcc/avr32/4.4.7/../../../../avr32/lib/ucr3fp\libm.a(lib_a-e_rem_pio2.o)
 .data          0x00000000        0x0 c:/program files (x86)/atmel/atmel toolchain/avr32 gcc/native/3.4.2.1002/avr32-gnu-toolchain/bin/../lib/gcc/avr32/4.4.7/../../../../avr32/lib/ucr3fp\libm.a(lib_a-e_rem_pio2.o)
 .bss           0x00000000        0x0 c:/program files (x86)/atmel/atmel toolchain/avr32 gcc/native/3.4.2.1002/avr32-gnu-toolchain/bin/../lib/gcc/avr32/4.4.7/../../../../avr32/lib/ucr3fp\libm.a(lib_a-e_rem_pio2.o)
 .text          0x00000000        0x0 c:/program files (x86)/atmel/atmel toolchain/avr32 gcc/native/3.4.2.1002/avr32-gnu-toolchain/bin/../lib/gcc/avr32/4.4.7/../../../../avr32/lib/ucr3fp\libm.a(lib_a-e_sqrt.o)
 .data          0x00000000        0x0 c:/program files (x86)/atmel/atmel toolchain/avr32 gcc/native/3.4.2.1002/avr32-gnu-toolchain/bin/../lib/gcc/avr32/4.4.7/../../../../avr32/lib/ucr3fp\libm.a(lib_a-e_sqrt.o)
 .bss           0x00000000        0x0 c:/program files (x86)/atmel/atmel toolchain/avr32 gcc/native/3.4.2.1002/avr32-gnu-toolchain/bin/../lib/gcc/avr32/4.4.7/../../../../avr32/lib/ucr3fp\libm.a(lib_a-e_sqrt.o)
 .text          0x00000000        0x0 c:/program files (x86)/atmel/atmel toolchain/avr32 gcc/native/3.4.2.1002/avr32-gnu-toolchain/bin/../lib/gcc/avr32/4.4.7/../../../../avr32/lib/ucr3fp\libm.a(lib_a-ef_acos.o)
 .data          0x00000000        0x0 c:/program files (x86)/atmel/atmel toolchain/avr32 gcc/native/3.4.2.1002/avr32-gnu-toolchain/bin/../lib/gcc/avr32/4.4.7/../../../../avr32/lib/ucr3fp\libm.a(lib_a-ef_acos.o)
 .bss           0x00000000        0x0 c:/program files (x86)/atmel/atmel toolchain/avr32 gcc/native/3.4.2.1002/avr32-gnu-toolchain/bin/../lib/gcc/avr32/4.4.7/../../../../avr32/lib/ucr3fp\libm.a(lib_a-ef_acos.o)
 .debug_abbrev  0x00000000       0xb2 c:/program files (x86)/atmel/atmel toolchain/avr32 gcc/native/3.4.2.1002/avr32-gnu-toolchain/bin/../lib/gcc/avr32/4.4.7/../../../../avr32/lib/ucr3fp\libm.a(lib_a-ef_acos.o)
 .debug_info    0x00000000      0x223 c:/program files (x86)/atmel/atmel toolchain/avr32 gcc/native/3.4.2.1002/avr32-gnu-toolchain/bin/../lib/gcc/avr32/4.4.7/../../../../avr32/lib/ucr3fp\libm.a(lib_a-ef_acos.o)
 .debug_line    0x00000000      0x1c5 c:/program files (x86)/atmel/atmel toolchain/avr32 gcc/native/3.4.2.1002/avr32-gnu-toolchain/bin/../lib/gcc/avr32/4.4.7/../../../../avr32/lib/ucr3fp\libm.a(lib_a-ef_acos.o)
 .text.__ieee754_acosf
                0x00000000      0x3c0 c:/program files (x86)/atmel/atmel toolchain/avr32 gcc/native/3.4.2.1002/avr32-gnu-toolchain/bin/../lib/gcc/avr32/4.4.7/../../../../avr32/lib/ucr3fp\libm.a(lib_a-ef_acos.o)
 .debug_frame   0x00000000       0x34 c:/program files (x86)/atmel/atmel toolchain/avr32 gcc/native/3.4.2.1002/avr32-gnu-toolchain/bin/../lib/gcc/avr32/4.4.7/../../../../avr32/lib/ucr3fp\libm.a(lib_a-ef_acos.o)
 .debug_loc     0x00000000      0x105 c:/program files (x86)/atmel/atmel toolchain/avr32 gcc/native/3.4.2.1002/avr32-gnu-toolchain/bin/../lib/gcc/avr32/4.4.7/../../../../avr32/lib/ucr3fp\libm.a(lib_a-ef_acos.o)
 .debug_pubnames
                0x00000000       0x26 c:/program files (x86)/atmel/atmel toolchain/avr32 gcc/native/3.4.2.1002/avr32-gnu-toolchain/bin/../lib/gcc/avr32/4.4.7/../../../../avr32/lib/ucr3fp\libm.a(lib_a-ef_acos.o)
 .debug_aranges
                0x00000000       0x20 c:/program files (x86)/atmel/atmel toolchain/avr32 gcc/native/3.4.2.1002/avr32-gnu-toolchain/bin/../lib/gcc/avr32/4.4.7/../../../../avr32/lib/ucr3fp\libm.a(lib_a-ef_acos.o)
 .debug_ranges  0x00000000       0x18 c:/program files (x86)/atmel/atmel toolchain/avr32 gcc/native/3.4.2.1002/avr32-gnu-toolchain/bin/../lib/gcc/avr32/4.4.7/../../../../avr32/lib/ucr3fp\libm.a(lib_a-ef_acos.o)
 .debug_str     0x00000000      0x141 c:/program files (x86)/atmel/atmel toolchain/avr32 gcc/native/3.4.2.1002/avr32-gnu-toolchain/bin/../lib/gcc/avr32/4.4.7/../../../../avr32/lib/ucr3fp\libm.a(lib_a-ef_acos.o)
 .comment       0x00000000       0x31 c:/program files (x86)/atmel/atmel toolchain/avr32 gcc/native/3.4.2.1002/avr32-gnu-toolchain/bin/../lib/gcc/avr32/4.4.7/../../../../avr32/lib/ucr3fp\libm.a(lib_a-ef_acos.o)
 .text          0x00000000        0x0 c:/program files (x86)/atmel/atmel toolchain/avr32 gcc/native/3.4.2.1002/avr32-gnu-toolchain/bin/../lib/gcc/avr32/4.4.7/../../../../avr32/lib/ucr3fp\libm.a(lib_a-ef_sqrt.o)
 .data          0x00000000        0x0 c:/program files (x86)/atmel/atmel toolchain/avr32 gcc/native/3.4.2.1002/avr32-gnu-toolchain/bin/../lib/gcc/avr32/4.4.7/../../../../avr32/lib/ucr3fp\libm.a(lib_a-ef_sqrt.o)
 .bss           0x00000000        0x0 c:/program files (x86)/atmel/atmel toolchain/avr32 gcc/native/3.4.2.1002/avr32-gnu-toolchain/bin/../lib/gcc/avr32/4.4.7/../../../../avr32/lib/ucr3fp\libm.a(lib_a-ef_sqrt.o)
 .debug_abbrev  0x00000000       0xc5 c:/program files (x86)/atmel/atmel toolchain/avr32 gcc/native/3.4.2.1002/avr32-gnu-toolchain/bin/../lib/gcc/avr32/4.4.7/../../../../avr32/lib/ucr3fp\libm.a(lib_a-ef_sqrt.o)
 .debug_info    0x00000000      0x169 c:/program files (x86)/atmel/atmel toolchain/avr32 gcc/native/3.4.2.1002/avr32-gnu-toolchain/bin/../lib/gcc/avr32/4.4.7/../../../../avr32/lib/ucr3fp\libm.a(lib_a-ef_sqrt.o)
 .debug_line    0x00000000      0x1d1 c:/program files (x86)/atmel/atmel toolchain/avr32 gcc/native/3.4.2.1002/avr32-gnu-toolchain/bin/../lib/gcc/avr32/4.4.7/../../../../avr32/lib/ucr3fp\libm.a(lib_a-ef_sqrt.o)
 .text.__ieee754_sqrtf
                0x00000000       0xd4 c:/program files (x86)/atmel/atmel toolchain/avr32 gcc/native/3.4.2.1002/avr32-gnu-toolchain/bin/../lib/gcc/avr32/4.4.7/../../../../avr32/lib/ucr3fp\libm.a(lib_a-ef_sqrt.o)
 .debug_frame   0x00000000       0x34 c:/program files (x86)/atmel/atmel toolchain/avr32 gcc/native/3.4.2.1002/avr32-gnu-toolchain/bin/../lib/gcc/avr32/4.4.7/../../../../avr32/lib/ucr3fp\libm.a(lib_a-ef_sqrt.o)
 .debug_loc     0x00000000      0x133 c:/program files (x86)/atmel/atmel toolchain/avr32 gcc/native/3.4.2.1002/avr32-gnu-toolchain/bin/../lib/gcc/avr32/4.4.7/../../../../avr32/lib/ucr3fp\libm.a(lib_a-ef_sqrt.o)
 .debug_pubnames
                0x00000000       0x26 c:/program files (x86)/atmel/atmel toolchain/avr32 gcc/native/3.4.2.1002/avr32-gnu-toolchain/bin/../lib/gcc/avr32/4.4.7/../../../../avr32/lib/ucr3fp\libm.a(lib_a-ef_sqrt.o)
 .debug_aranges
                0x00000000       0x20 c:/program files (x86)/atmel/atmel toolchain/avr32 gcc/native/3.4.2.1002/avr32-gnu-toolchain/bin/../lib/gcc/avr32/4.4.7/../../../../avr32/lib/ucr3fp\libm.a(lib_a-ef_sqrt.o)
 .debug_ranges  0x00000000       0x18 c:/program files (x86)/atmel/atmel toolchain/avr32 gcc/native/3.4.2.1002/avr32-gnu-toolchain/bin/../lib/gcc/avr32/4.4.7/../../../../avr32/lib/ucr3fp\libm.a(lib_a-ef_sqrt.o)
 .debug_str     0x00000000      0x146 c:/program files (x86)/atmel/atmel toolchain/avr32 gcc/native/3.4.2.1002/avr32-gnu-toolchain/bin/../lib/gcc/avr32/4.4.7/../../../../avr32/lib/ucr3fp\libm.a(lib_a-ef_sqrt.o)
 .comment       0x00000000       0x31 c:/program files (x86)/atmel/atmel toolchain/avr32 gcc/native/3.4.2.1002/avr32-gnu-toolchain/bin/../lib/gcc/avr32/4.4.7/../../../../avr32/lib/ucr3fp\libm.a(lib_a-ef_sqrt.o)
 .text          0x00000000        0x0 c:/program files (x86)/atmel/atmel toolchain/avr32 gcc/native/3.4.2.1002/avr32-gnu-toolchain/bin/../lib/gcc/avr32/4.4.7/../../../../avr32/lib/ucr3fp\libm.a(lib_a-k_cos.o)
 .data          0x00000000        0x0 c:/program files (x86)/atmel/atmel toolchain/avr32 gcc/native/3.4.2.1002/avr32-gnu-toolchain/bin/../lib/gcc/avr32/4.4.7/../../../../avr32/lib/ucr3fp\libm.a(lib_a-k_cos.o)
 .bss           0x00000000        0x0 c:/program files (x86)/atmel/atmel toolchain/avr32 gcc/native/3.4.2.1002/avr32-gnu-toolchain/bin/../lib/gcc/avr32/4.4.7/../../../../avr32/lib/ucr3fp\libm.a(lib_a-k_cos.o)
 .text          0x00000000        0x0 c:/program files (x86)/atmel/atmel toolchain/avr32 gcc/native/3.4.2.1002/avr32-gnu-toolchain/bin/../lib/gcc/avr32/4.4.7/../../../../avr32/lib/ucr3fp\libm.a(lib_a-k_rem_pio2.o)
 .data          0x00000000        0x0 c:/program files (x86)/atmel/atmel toolchain/avr32 gcc/native/3.4.2.1002/avr32-gnu-toolchain/bin/../lib/gcc/avr32/4.4.7/../../../../avr32/lib/ucr3fp\libm.a(lib_a-k_rem_pio2.o)
 .bss           0x00000000        0x0 c:/program files (x86)/atmel/atmel toolchain/avr32 gcc/native/3.4.2.1002/avr32-gnu-toolchain/bin/../lib/gcc/avr32/4.4.7/../../../../avr32/lib/ucr3fp\libm.a(lib_a-k_rem_pio2.o)
 .text          0x00000000        0x0 c:/program files (x86)/atmel/atmel toolchain/avr32 gcc/native/3.4.2.1002/avr32-gnu-toolchain/bin/../lib/gcc/avr32/4.4.7/../../../../avr32/lib/ucr3fp\libm.a(lib_a-k_sin.o)
 .data          0x00000000        0x0 c:/program files (x86)/atmel/atmel toolchain/avr32 gcc/native/3.4.2.1002/avr32-gnu-toolchain/bin/../lib/gcc/avr32/4.4.7/../../../../avr32/lib/ucr3fp\libm.a(lib_a-k_sin.o)
 .bss           0x00000000        0x0 c:/program files (x86)/atmel/atmel toolchain/avr32 gcc/native/3.4.2.1002/avr32-gnu-toolchain/bin/../lib/gcc/avr32/4.4.7/../../../../avr32/lib/ucr3fp\libm.a(lib_a-k_sin.o)
 .text          0x00000000        0x0 c:/program files (x86)/atmel/atmel toolchain/avr32 gcc/native/3.4.2.1002/avr32-gnu-toolchain/bin/../lib/gcc/avr32/4.4.7/../../../../avr32/lib/ucr3fp\libm.a(lib_a-s_atan.o)
 .data          0x00000000        0x0 c:/program files (x86)/atmel/atmel toolchain/avr32 gcc/native/3.4.2.1002/avr32-gnu-toolchain/bin/../lib/gcc/avr32/4.4.7/../../../../avr32/lib/ucr3fp\libm.a(lib_a-s_atan.o)
 .bss           0x00000000        0x0 c:/program files (x86)/atmel/atmel toolchain/avr32 gcc/native/3.4.2.1002/avr32-gnu-toolchain/bin/../lib/gcc/avr32/4.4.7/../../../../avr32/lib/ucr3fp\libm.a(lib_a-s_atan.o)
 .text          0x00000000        0x0 c:/program files (x86)/atmel/atmel toolchain/avr32 gcc/native/3.4.2.1002/avr32-gnu-toolchain/bin/../lib/gcc/avr32/4.4.7/../../../../avr32/lib/ucr3fp\libm.a(lib_a-s_fabs.o)
 .data          0x00000000        0x0 c:/program files (x86)/atmel/atmel toolchain/avr32 gcc/native/3.4.2.1002/avr32-gnu-toolchain/bin/../lib/gcc/avr32/4.4.7/../../../../avr32/lib/ucr3fp\libm.a(lib_a-s_fabs.o)
 .bss           0x00000000        0x0 c:/program files (x86)/atmel/atmel toolchain/avr32 gcc/native/3.4.2.1002/avr32-gnu-toolchain/bin/../lib/gcc/avr32/4.4.7/../../../../avr32/lib/ucr3fp\libm.a(lib_a-s_fabs.o)
 .text          0x00000000        0x0 c:/program files (x86)/atmel/atmel toolchain/avr32 gcc/native/3.4.2.1002/avr32-gnu-toolchain/bin/../lib/gcc/avr32/4.4.7/../../../../avr32/lib/ucr3fp\libm.a(lib_a-s_finite.o)
 .data          0x00000000        0x0 c:/program files (x86)/atmel/atmel toolchain/avr32 gcc/native/3.4.2.1002/avr32-gnu-toolchain/bin/../lib/gcc/avr32/4.4.7/../../../../avr32/lib/ucr3fp\libm.a(lib_a-s_finite.o)
 .bss           0x00000000        0x0 c:/program files (x86)/atmel/atmel toolchain/avr32 gcc/native/3.4.2.1002/avr32-gnu-toolchain/bin/../lib/gcc/avr32/4.4.7/../../../../avr32/lib/ucr3fp\libm.a(lib_a-s_finite.o)
 .text          0x00000000        0x0 c:/program files (x86)/atmel/atmel toolchain/avr32 gcc/native/3.4.2.1002/avr32-gnu-toolchain/bin/../lib/gcc/avr32/4.4.7/../../../../avr32/lib/ucr3fp\libm.a(lib_a-s_floor.o)
 .data          0x00000000        0x0 c:/program files (x86)/atmel/atmel toolchain/avr32 gcc/native/3.4.2.1002/avr32-gnu-toolchain/bin/../lib/gcc/avr32/4.4.7/../../../../avr32/lib/ucr3fp\libm.a(lib_a-s_floor.o)
 .bss           0x00000000        0x0 c:/program files (x86)/atmel/atmel toolchain/avr32 gcc/native/3.4.2.1002/avr32-gnu-toolchain/bin/../lib/gcc/avr32/4.4.7/../../../../avr32/lib/ucr3fp\libm.a(lib_a-s_floor.o)
 .text          0x00000000        0x0 c:/program files (x86)/atmel/atmel toolchain/avr32 gcc/native/3.4.2.1002/avr32-gnu-toolchain/bin/../lib/gcc/avr32/4.4.7/../../../../avr32/lib/ucr3fp\libm.a(lib_a-s_isnand.o)
 .data          0x00000000        0x0 c:/program files (x86)/atmel/atmel toolchain/avr32 gcc/native/3.4.2.1002/avr32-gnu-toolchain/bin/../lib/gcc/avr32/4.4.7/../../../../avr32/lib/ucr3fp\libm.a(lib_a-s_isnand.o)
 .bss           0x00000000        0x0 c:/program files (x86)/atmel/atmel toolchain/avr32 gcc/native/3.4.2.1002/avr32-gnu-toolchain/bin/../lib/gcc/avr32/4.4.7/../../../../avr32/lib/ucr3fp\libm.a(lib_a-s_isnand.o)
 .text          0x00000000        0x0 c:/program files (x86)/atmel/atmel toolchain/avr32 gcc/native/3.4.2.1002/avr32-gnu-toolchain/bin/../lib/gcc/avr32/4.4.7/../../../../avr32/lib/ucr3fp\libm.a(lib_a-s_lib_ver.o)
 .data          0x00000000        0x0 c:/program files (x86)/atmel/atmel toolchain/avr32 gcc/native/3.4.2.1002/avr32-gnu-toolchain/bin/../lib/gcc/avr32/4.4.7/../../../../avr32/lib/ucr3fp\libm.a(lib_a-s_lib_ver.o)
 .bss           0x00000000        0x0 c:/program files (x86)/atmel/atmel toolchain/avr32 gcc/native/3.4.2.1002/avr32-gnu-toolchain/bin/../lib/gcc/avr32/4.4.7/../../../../avr32/lib/ucr3fp\libm.a(lib_a-s_lib_ver.o)
 .text          0x00000000        0x0 c:/program files (x86)/atmel/atmel toolchain/avr32 gcc/native/3.4.2.1002/avr32-gnu-toolchain/bin/../lib/gcc/avr32/4.4.7/../../../../avr32/lib/ucr3fp\libm.a(lib_a-s_matherr.o)
 .data          0x00000000        0x0 c:/program files (x86)/atmel/atmel toolchain/avr32 gcc/native/3.4.2.1002/avr32-gnu-toolchain/bin/../lib/gcc/avr32/4.4.7/../../../../avr32/lib/ucr3fp\libm.a(lib_a-s_matherr.o)
 .bss           0x00000000        0x0 c:/program files (x86)/atmel/atmel toolchain/avr32 gcc/native/3.4.2.1002/avr32-gnu-toolchain/bin/../lib/gcc/avr32/4.4.7/../../../../avr32/lib/ucr3fp\libm.a(lib_a-s_matherr.o)
 .text          0x00000000        0x0 c:/program files (x86)/atmel/atmel toolchain/avr32 gcc/native/3.4.2.1002/avr32-gnu-toolchain/bin/../lib/gcc/avr32/4.4.7/../../../../avr32/lib/ucr3fp\libm.a(lib_a-s_nan.o)
 .data          0x00000000        0x0 c:/program files (x86)/atmel/atmel toolchain/avr32 gcc/native/3.4.2.1002/avr32-gnu-toolchain/bin/../lib/gcc/avr32/4.4.7/../../../../avr32/lib/ucr3fp\libm.a(lib_a-s_nan.o)
 .bss           0x00000000        0x0 c:/program files (x86)/atmel/atmel toolchain/avr32 gcc/native/3.4.2.1002/avr32-gnu-toolchain/bin/../lib/gcc/avr32/4.4.7/../../../../avr32/lib/ucr3fp\libm.a(lib_a-s_nan.o)
 .text          0x00000000        0x0 c:/program files (x86)/atmel/atmel toolchain/avr32 gcc/native/3.4.2.1002/avr32-gnu-toolchain/bin/../lib/gcc/avr32/4.4.7/../../../../avr32/lib/ucr3fp\libm.a(lib_a-s_rint.o)
 .data          0x00000000        0x0 c:/program files (x86)/atmel/atmel toolchain/avr32 gcc/native/3.4.2.1002/avr32-gnu-toolchain/bin/../lib/gcc/avr32/4.4.7/../../../../avr32/lib/ucr3fp\libm.a(lib_a-s_rint.o)
 .bss           0x00000000        0x0 c:/program files (x86)/atmel/atmel toolchain/avr32 gcc/native/3.4.2.1002/avr32-gnu-toolchain/bin/../lib/gcc/avr32/4.4.7/../../../../avr32/lib/ucr3fp\libm.a(lib_a-s_rint.o)
 .text          0x00000000        0x0 c:/program files (x86)/atmel/atmel toolchain/avr32 gcc/native/3.4.2.1002/avr32-gnu-toolchain/bin/../lib/gcc/avr32/4.4.7/../../../../avr32/lib/ucr3fp\libm.a(lib_a-s_scalbn.o)
 .data          0x00000000        0x0 c:/program files (x86)/atmel/atmel toolchain/avr32 gcc/native/3.4.2.1002/avr32-gnu-toolchain/bin/../lib/gcc/avr32/4.4.7/../../../../avr32/lib/ucr3fp\libm.a(lib_a-s_scalbn.o)
 .bss           0x00000000        0x0 c:/program files (x86)/atmel/atmel toolchain/avr32 gcc/native/3.4.2.1002/avr32-gnu-toolchain/bin/../lib/gcc/avr32/4.4.7/../../../../avr32/lib/ucr3fp\libm.a(lib_a-s_scalbn.o)
 .text          0x00000000        0x0 c:/program files (x86)/atmel/atmel toolchain/avr32 gcc/native/3.4.2.1002/avr32-gnu-toolchain/bin/../lib/gcc/avr32/4.4.7/../../../../avr32/lib/ucr3fp\libm.a(lib_a-sf_fabs.o)
 .data          0x00000000        0x0 c:/program files (x86)/atmel/atmel toolchain/avr32 gcc/native/3.4.2.1002/avr32-gnu-toolchain/bin/../lib/gcc/avr32/4.4.7/../../../../avr32/lib/ucr3fp\libm.a(lib_a-sf_fabs.o)
 .bss           0x00000000        0x0 c:/program files (x86)/atmel/atmel toolchain/avr32 gcc/native/3.4.2.1002/avr32-gnu-toolchain/bin/../lib/gcc/avr32/4.4.7/../../../../avr32/lib/ucr3fp\libm.a(lib_a-sf_fabs.o)
 .debug_abbrev  0x00000000       0x73 c:/program files (x86)/atmel/atmel toolchain/avr32 gcc/native/3.4.2.1002/avr32-gnu-toolchain/bin/../lib/gcc/avr32/4.4.7/../../../../avr32/lib/ucr3fp\libm.a(lib_a-sf_fabs.o)
 .debug_info    0x00000000       0xc6 c:/program files (x86)/atmel/atmel toolchain/avr32 gcc/native/3.4.2.1002/avr32-gnu-toolchain/bin/../lib/gcc/avr32/4.4.7/../../../../avr32/lib/ucr3fp\libm.a(lib_a-sf_fabs.o)
 .debug_line    0x00000000      0x18f c:/program files (x86)/atmel/atmel toolchain/avr32 gcc/native/3.4.2.1002/avr32-gnu-toolchain/bin/../lib/gcc/avr32/4.4.7/../../../../avr32/lib/ucr3fp\libm.a(lib_a-sf_fabs.o)
 .text.fabsf    0x00000000        0x6 c:/program files (x86)/atmel/atmel toolchain/avr32 gcc/native/3.4.2.1002/avr32-gnu-toolchain/bin/../lib/gcc/avr32/4.4.7/../../../../avr32/lib/ucr3fp\libm.a(lib_a-sf_fabs.o)
 .debug_frame   0x00000000       0x20 c:/program files (x86)/atmel/atmel toolchain/avr32 gcc/native/3.4.2.1002/avr32-gnu-toolchain/bin/../lib/gcc/avr32/4.4.7/../../../../avr32/lib/ucr3fp\libm.a(lib_a-sf_fabs.o)
 .debug_loc     0x00000000       0x13 c:/program files (x86)/atmel/atmel toolchain/avr32 gcc/native/3.4.2.1002/avr32-gnu-toolchain/bin/../lib/gcc/avr32/4.4.7/../../../../avr32/lib/ucr3fp\libm.a(lib_a-sf_fabs.o)
 .debug_pubnames
                0x00000000       0x1c c:/program files (x86)/atmel/atmel toolchain/avr32 gcc/native/3.4.2.1002/avr32-gnu-toolchain/bin/../lib/gcc/avr32/4.4.7/../../../../avr32/lib/ucr3fp\libm.a(lib_a-sf_fabs.o)
 .debug_aranges
                0x00000000       0x20 c:/program files (x86)/atmel/atmel toolchain/avr32 gcc/native/3.4.2.1002/avr32-gnu-toolchain/bin/../lib/gcc/avr32/4.4.7/../../../../avr32/lib/ucr3fp\libm.a(lib_a-sf_fabs.o)
 .debug_ranges  0x00000000       0x18 c:/program files (x86)/atmel/atmel toolchain/avr32 gcc/native/3.4.2.1002/avr32-gnu-toolchain/bin/../lib/gcc/avr32/4.4.7/../../../../avr32/lib/ucr3fp\libm.a(lib_a-sf_fabs.o)
 .debug_str     0x00000000      0x128 c:/program files (x86)/atmel/atmel toolchain/avr32 gcc/native/3.4.2.1002/avr32-gnu-toolchain/bin/../lib/gcc/avr32/4.4.7/../../../../avr32/lib/ucr3fp\libm.a(lib_a-sf_fabs.o)
 .comment       0x00000000       0x31 c:/program files (x86)/atmel/atmel toolchain/avr32 gcc/native/3.4.2.1002/avr32-gnu-toolchain/bin/../lib/gcc/avr32/4.4.7/../../../../avr32/lib/ucr3fp\libm.a(lib_a-sf_fabs.o)
 .text          0x00000000        0x0 c:/program files (x86)/atmel/atmel toolchain/avr32 gcc/native/3.4.2.1002/avr32-gnu-toolchain/bin/../lib/gcc/avr32/4.4.7/../../../../avr32/lib/ucr3fp\libm.a(lib_a-sf_isnan.o)
 .data          0x00000000        0x0 c:/program files (x86)/atmel/atmel toolchain/avr32 gcc/native/3.4.2.1002/avr32-gnu-toolchain/bin/../lib/gcc/avr32/4.4.7/../../../../avr32/lib/ucr3fp\libm.a(lib_a-sf_isnan.o)
 .bss           0x00000000        0x0 c:/program files (x86)/atmel/atmel toolchain/avr32 gcc/native/3.4.2.1002/avr32-gnu-toolchain/bin/../lib/gcc/avr32/4.4.7/../../../../avr32/lib/ucr3fp\libm.a(lib_a-sf_isnan.o)
 .debug_abbrev  0x00000000       0xb0 c:/program files (x86)/atmel/atmel toolchain/avr32 gcc/native/3.4.2.1002/avr32-gnu-toolchain/bin/../lib/gcc/avr32/4.4.7/../../../../avr32/lib/ucr3fp\libm.a(lib_a-sf_isnan.o)
 .debug_info    0x00000000      0x114 c:/program files (x86)/atmel/atmel toolchain/avr32 gcc/native/3.4.2.1002/avr32-gnu-toolchain/bin/../lib/gcc/avr32/4.4.7/../../../../avr32/lib/ucr3fp\libm.a(lib_a-sf_isnan.o)
 .debug_line    0x00000000      0x19e c:/program files (x86)/atmel/atmel toolchain/avr32 gcc/native/3.4.2.1002/avr32-gnu-toolchain/bin/../lib/gcc/avr32/4.4.7/../../../../avr32/lib/ucr3fp\libm.a(lib_a-sf_isnan.o)
 .text.isnanf   0x00000000        0xe c:/program files (x86)/atmel/atmel toolchain/avr32 gcc/native/3.4.2.1002/avr32-gnu-toolchain/bin/../lib/gcc/avr32/4.4.7/../../../../avr32/lib/ucr3fp\libm.a(lib_a-sf_isnan.o)
 .debug_frame   0x00000000       0x20 c:/program files (x86)/atmel/atmel toolchain/avr32 gcc/native/3.4.2.1002/avr32-gnu-toolchain/bin/../lib/gcc/avr32/4.4.7/../../../../avr32/lib/ucr3fp\libm.a(lib_a-sf_isnan.o)
 .debug_loc     0x00000000       0x13 c:/program files (x86)/atmel/atmel toolchain/avr32 gcc/native/3.4.2.1002/avr32-gnu-toolchain/bin/../lib/gcc/avr32/4.4.7/../../../../avr32/lib/ucr3fp\libm.a(lib_a-sf_isnan.o)
 .debug_pubnames
                0x00000000       0x1d c:/program files (x86)/atmel/atmel toolchain/avr32 gcc/native/3.4.2.1002/avr32-gnu-toolchain/bin/../lib/gcc/avr32/4.4.7/../../../../avr32/lib/ucr3fp\libm.a(lib_a-sf_isnan.o)
 .debug_aranges
                0x00000000       0x20 c:/program files (x86)/atmel/atmel toolchain/avr32 gcc/native/3.4.2.1002/avr32-gnu-toolchain/bin/../lib/gcc/avr32/4.4.7/../../../../avr32/lib/ucr3fp\libm.a(lib_a-sf_isnan.o)
 .debug_ranges  0x00000000       0x18 c:/program files (x86)/atmel/atmel toolchain/avr32 gcc/native/3.4.2.1002/avr32-gnu-toolchain/bin/../lib/gcc/avr32/4.4.7/../../../../avr32/lib/ucr3fp\libm.a(lib_a-sf_isnan.o)
 .debug_str     0x00000000      0x15c c:/program files (x86)/atmel/atmel toolchain/avr32 gcc/native/3.4.2.1002/avr32-gnu-toolchain/bin/../lib/gcc/avr32/4.4.7/../../../../avr32/lib/ucr3fp\libm.a(lib_a-sf_isnan.o)
 .comment       0x00000000       0x31 c:/program files (x86)/atmel/atmel toolchain/avr32 gcc/native/3.4.2.1002/avr32-gnu-toolchain/bin/../lib/gcc/avr32/4.4.7/../../../../avr32/lib/ucr3fp\libm.a(lib_a-sf_isnan.o)
 .text          0x00000000        0x0 c:/program files (x86)/atmel/atmel toolchain/avr32 gcc/native/3.4.2.1002/avr32-gnu-toolchain/bin/../lib/gcc/avr32/4.4.7/../../../../avr32/lib/ucr3fp\libm.a(lib_a-s_copysign.o)
 .data          0x00000000        0x0 c:/program files (x86)/atmel/atmel toolchain/avr32 gcc/native/3.4.2.1002/avr32-gnu-toolchain/bin/../lib/gcc/avr32/4.4.7/../../../../avr32/lib/ucr3fp\libm.a(lib_a-s_copysign.o)
 .bss           0x00000000        0x0 c:/program files (x86)/atmel/atmel toolchain/avr32 gcc/native/3.4.2.1002/avr32-gnu-toolchain/bin/../lib/gcc/avr32/4.4.7/../../../../avr32/lib/ucr3fp\libm.a(lib_a-s_copysign.o)
 .data          0x00000000        0x0 c:/program files (x86)/atmel/atmel toolchain/avr32 gcc/native/3.4.2.1002/avr32-gnu-toolchain/bin/../lib/gcc/avr32/4.4.7/ucr3fp\libgcc.a(_avr32_f64_mul.o)
 .bss           0x00000000        0x0 c:/program files (x86)/atmel/atmel toolchain/avr32 gcc/native/3.4.2.1002/avr32-gnu-toolchain/bin/../lib/gcc/avr32/4.4.7/ucr3fp\libgcc.a(_avr32_f64_mul.o)
 .data          0x00000000        0x0 c:/program files (x86)/atmel/atmel toolchain/avr32 gcc/native/3.4.2.1002/avr32-gnu-toolchain/bin/../lib/gcc/avr32/4.4.7/ucr3fp\libgcc.a(_avr32_f64_addsub.o)
 .bss           0x00000000        0x0 c:/program files (x86)/atmel/atmel toolchain/avr32 gcc/native/3.4.2.1002/avr32-gnu-toolchain/bin/../lib/gcc/avr32/4.4.7/ucr3fp\libgcc.a(_avr32_f64_addsub.o)
 .data          0x00000000        0x0 c:/program files (x86)/atmel/atmel toolchain/avr32 gcc/native/3.4.2.1002/avr32-gnu-toolchain/bin/../lib/gcc/avr32/4.4.7/ucr3fp\libgcc.a(_avr32_f64_to_s32.o)
 .bss           0x00000000        0x0 c:/program files (x86)/atmel/atmel toolchain/avr32 gcc/native/3.4.2.1002/avr32-gnu-toolchain/bin/../lib/gcc/avr32/4.4.7/ucr3fp\libgcc.a(_avr32_f64_to_s32.o)
 .data          0x00000000        0x0 c:/program files (x86)/atmel/atmel toolchain/avr32 gcc/native/3.4.2.1002/avr32-gnu-toolchain/bin/../lib/gcc/avr32/4.4.7/ucr3fp\libgcc.a(_avr32_s32_to_f64.o)
 .bss           0x00000000        0x0 c:/program files (x86)/atmel/atmel toolchain/avr32 gcc/native/3.4.2.1002/avr32-gnu-toolchain/bin/../lib/gcc/avr32/4.4.7/ucr3fp\libgcc.a(_avr32_s32_to_f64.o)
 .data          0x00000000        0x0 c:/program files (x86)/atmel/atmel toolchain/avr32 gcc/native/3.4.2.1002/avr32-gnu-toolchain/bin/../lib/gcc/avr32/4.4.7/ucr3fp\libgcc.a(_avr32_f64_cmp_eq.o)
 .bss           0x00000000        0x0 c:/program files (x86)/atmel/atmel toolchain/avr32 gcc/native/3.4.2.1002/avr32-gnu-toolchain/bin/../lib/gcc/avr32/4.4.7/ucr3fp\libgcc.a(_avr32_f64_cmp_eq.o)
 .data          0x00000000        0x0 c:/program files (x86)/atmel/atmel toolchain/avr32 gcc/native/3.4.2.1002/avr32-gnu-toolchain/bin/../lib/gcc/avr32/4.4.7/ucr3fp\libgcc.a(_avr32_f64_cmp_ge.o)
 .bss           0x00000000        0x0 c:/program files (x86)/atmel/atmel toolchain/avr32 gcc/native/3.4.2.1002/avr32-gnu-toolchain/bin/../lib/gcc/avr32/4.4.7/ucr3fp\libgcc.a(_avr32_f64_cmp_ge.o)
 .data          0x00000000        0x0 c:/program files (x86)/atmel/atmel toolchain/avr32 gcc/native/3.4.2.1002/avr32-gnu-toolchain/bin/../lib/gcc/avr32/4.4.7/ucr3fp\libgcc.a(_avr32_f64_cmp_lt.o)
 .bss           0x00000000        0x0 c:/program files (x86)/atmel/atmel toolchain/avr32 gcc/native/3.4.2.1002/avr32-gnu-toolchain/bin/../lib/gcc/avr32/4.4.7/ucr3fp\libgcc.a(_avr32_f64_cmp_lt.o)
 .text          0x00000000       0x34 c:/program files (x86)/atmel/atmel toolchain/avr32 gcc/native/3.4.2.1002/avr32-gnu-toolchain/bin/../lib/gcc/avr32/4.4.7/ucr3fp\libgcc.a(_avr32_f32_cmp_lt.o)
 .data          0x00000000        0x0 c:/program files (x86)/atmel/atmel toolchain/avr32 gcc/native/3.4.2.1002/avr32-gnu-toolchain/bin/../lib/gcc/avr32/4.4.7/ucr3fp\libgcc.a(_avr32_f32_cmp_lt.o)
 .bss           0x00000000        0x0 c:/program files (x86)/atmel/atmel toolchain/avr32 gcc/native/3.4.2.1002/avr32-gnu-toolchain/bin/../lib/gcc/avr32/4.4.7/ucr3fp\libgcc.a(_avr32_f32_cmp_lt.o)
 .data          0x00000000        0x0 c:/program files (x86)/atmel/atmel toolchain/avr32 gcc/native/3.4.2.1002/avr32-gnu-toolchain/bin/../lib/gcc/avr32/4.4.7/ucr3fp\libgcc.a(_avr32_f64_div.o)
 .bss           0x00000000        0x0 c:/program files (x86)/atmel/atmel toolchain/avr32 gcc/native/3.4.2.1002/avr32-gnu-toolchain/bin/../lib/gcc/avr32/4.4.7/ucr3fp\libgcc.a(_avr32_f64_div.o)
 .data          0x00000000        0x0 c:/program files (x86)/atmel/atmel toolchain/avr32 gcc/native/3.4.2.1002/avr32-gnu-toolchain/bin/../lib/gcc/avr32/4.4.7/ucr3fp\libgcc.a(_avr32_f32_div.o)
 .bss           0x00000000        0x0 c:/program files (x86)/atmel/atmel toolchain/avr32 gcc/native/3.4.2.1002/avr32-gnu-toolchain/bin/../lib/gcc/avr32/4.4.7/ucr3fp\libgcc.a(_avr32_f32_div.o)
 .text          0x00000000      0x180 c:/program files (x86)/atmel/atmel toolchain/avr32 gcc/native/3.4.2.1002/avr32-gnu-toolchain/bin/../lib/gcc/avr32/4.4.7/ucr3fp\libgcc.a(_avr32_f32_addsub.o)
 .data          0x00000000        0x0 c:/program files (x86)/atmel/atmel toolchain/avr32 gcc/native/3.4.2.1002/avr32-gnu-toolchain/bin/../lib/gcc/avr32/4.4.7/ucr3fp\libgcc.a(_avr32_f32_addsub.o)
 .bss           0x00000000        0x0 c:/program files (x86)/atmel/atmel toolchain/avr32 gcc/native/3.4.2.1002/avr32-gnu-toolchain/bin/../lib/gcc/avr32/4.4.7/ucr3fp\libgcc.a(_avr32_f32_addsub.o)
 .text          0x00000000       0xe2 c:/program files (x86)/atmel/atmel toolchain/avr32 gcc/native/3.4.2.1002/avr32-gnu-toolchain/bin/../lib/gcc/avr32/4.4.7/ucr3fp\libgcc.a(_avr32_f32_mul.o)
 .data          0x00000000        0x0 c:/program files (x86)/atmel/atmel toolchain/avr32 gcc/native/3.4.2.1002/avr32-gnu-toolchain/bin/../lib/gcc/avr32/4.4.7/ucr3fp\libgcc.a(_avr32_f32_mul.o)
 .bss           0x00000000        0x0 c:/program files (x86)/atmel/atmel toolchain/avr32 gcc/native/3.4.2.1002/avr32-gnu-toolchain/bin/../lib/gcc/avr32/4.4.7/ucr3fp\libgcc.a(_avr32_f32_mul.o)
 .data          0x00000000        0x0 c:/program files (x86)/atmel/atmel toolchain/avr32 gcc/native/3.4.2.1002/avr32-gnu-toolchain/bin/../lib/gcc/avr32/4.4.7/ucr3fp\libgcc.a(_avr32_f32_to_f64.o)
 .bss           0x00000000        0x0 c:/program files (x86)/atmel/atmel toolchain/avr32 gcc/native/3.4.2.1002/avr32-gnu-toolchain/bin/../lib/gcc/avr32/4.4.7/ucr3fp\libgcc.a(_avr32_f32_to_f64.o)
 .data          0x00000000        0x0 c:/program files (x86)/atmel/atmel toolchain/avr32 gcc/native/3.4.2.1002/avr32-gnu-toolchain/bin/../lib/gcc/avr32/4.4.7/ucr3fp\libgcc.a(_avr32_f64_to_f32.o)
 .bss           0x00000000        0x0 c:/program files (x86)/atmel/atmel toolchain/avr32 gcc/native/3.4.2.1002/avr32-gnu-toolchain/bin/../lib/gcc/avr32/4.4.7/ucr3fp\libgcc.a(_avr32_f64_to_f32.o)
 .data          0x00000000        0x0 c:/program files (x86)/atmel/atmel toolchain/avr32 gcc/native/3.4.2.1002/avr32-gnu-toolchain/bin/../lib/gcc/avr32/4.4.7/ucr3fp\libgcc.a(_udivdi3.o)
 .bss           0x00000000        0x0 c:/program files (x86)/atmel/atmel toolchain/avr32 gcc/native/3.4.2.1002/avr32-gnu-toolchain/bin/../lib/gcc/avr32/4.4.7/ucr3fp\libgcc.a(_udivdi3.o)
 .text          0x00000000        0x0 c:/program files (x86)/atmel/atmel toolchain/avr32 gcc/native/3.4.2.1002/avr32-gnu-toolchain/bin/../lib/gcc/avr32/4.4.7/../../../../avr32/lib/ucr3fp\libc.a(lib_a-errno.o)
 .data          0x00000000        0x0 c:/program files (x86)/atmel/atmel toolchain/avr32 gcc/native/3.4.2.1002/avr32-gnu-toolchain/bin/../lib/gcc/avr32/4.4.7/../../../../avr32/lib/ucr3fp\libc.a(lib_a-errno.o)
 .bss           0x00000000        0x0 c:/program files (x86)/atmel/atmel toolchain/avr32 gcc/native/3.4.2.1002/avr32-gnu-toolchain/bin/../lib/gcc/avr32/4.4.7/../../../../avr32/lib/ucr3fp\libc.a(lib_a-errno.o)
 .text          0x00000000        0x0 c:/program files (x86)/atmel/atmel toolchain/avr32 gcc/native/3.4.2.1002/avr32-gnu-toolchain/bin/../lib/gcc/avr32/4.4.7/../../../../avr32/lib/ucr3fp\libc.a(lib_a-impure.o)
 .data          0x00000000        0x0 c:/program files (x86)/atmel/atmel toolchain/avr32 gcc/native/3.4.2.1002/avr32-gnu-toolchain/bin/../lib/gcc/avr32/4.4.7/../../../../avr32/lib/ucr3fp\libc.a(lib_a-impure.o)
 .bss           0x00000000        0x0 c:/program files (x86)/atmel/atmel toolchain/avr32 gcc/native/3.4.2.1002/avr32-gnu-toolchain/bin/../lib/gcc/avr32/4.4.7/../../../../avr32/lib/ucr3fp\libc.a(lib_a-impure.o)
 .rodata._global_impure_ptr
                0x00000000        0x4 c:/program files (x86)/atmel/atmel toolchain/avr32 gcc/native/3.4.2.1002/avr32-gnu-toolchain/bin/../lib/gcc/avr32/4.4.7/../../../../avr32/lib/ucr3fp\libc.a(lib_a-impure.o)
 .data          0x00000000        0x0 c:/program files (x86)/atmel/atmel toolchain/avr32 gcc/native/3.4.2.1002/avr32-gnu-toolchain/bin/../lib/gcc/avr32/4.4.7/../../../../avr32/lib/ucr3fp\libc.a(lib_a-memcpy.o)
 .bss           0x00000000        0x0 c:/program files (x86)/atmel/atmel toolchain/avr32 gcc/native/3.4.2.1002/avr32-gnu-toolchain/bin/../lib/gcc/avr32/4.4.7/../../../../avr32/lib/ucr3fp\libc.a(lib_a-memcpy.o)
 .text          0x00000000        0x0 c:/program files (x86)/atmel/atmel toolchain/avr32 gcc/native/3.4.2.1002/avr32-gnu-toolchain/bin/../lib/gcc/avr32/4.4.7/../../../../avr32/lib/ucr3fp\libc.a(lib_a-memset.o)
 .data          0x00000000        0x0 c:/program files (x86)/atmel/atmel toolchain/avr32 gcc/native/3.4.2.1002/avr32-gnu-toolchain/bin/../lib/gcc/avr32/4.4.7/../../../../avr32/lib/ucr3fp\libc.a(lib_a-memset.o)
 .bss           0x00000000        0x0 c:/program files (x86)/atmel/atmel toolchain/avr32 gcc/native/3.4.2.1002/avr32-gnu-toolchain/bin/../lib/gcc/avr32/4.4.7/../../../../avr32/lib/ucr3fp\libc.a(lib_a-memset.o)
 .text          0x00000000        0x0 c:/program files (x86)/atmel/atmel toolchain/avr32 gcc/native/3.4.2.1002/avr32-gnu-toolchain/bin/../lib/gcc/avr32/4.4.7/../../../../avr32/lib/ucr3fp\libc.a(lib_a-strcpy.o)
 .data          0x00000000        0x0 c:/program files (x86)/atmel/atmel toolchain/avr32 gcc/native/3.4.2.1002/avr32-gnu-toolchain/bin/../lib/gcc/avr32/4.4.7/../../../../avr32/lib/ucr3fp\libc.a(lib_a-strcpy.o)
 .bss           0x00000000        0x0 c:/program files (x86)/atmel/atmel toolchain/avr32 gcc/native/3.4.2.1002/avr32-gnu-toolchain/bin/../lib/gcc/avr32/4.4.7/../../../../avr32/lib/ucr3fp\libc.a(lib_a-strcpy.o)
 .text          0x00000000        0x0 c:/program files (x86)/atmel/atmel toolchain/avr32 gcc/native/3.4.2.1002/avr32-gnu-toolchain/bin/../lib/gcc/avr32/4.4.7/../../../../avr32/lib/ucr3fp\libc.a(lib_a-strlen.o)
 .data          0x00000000        0x0 c:/program files (x86)/atmel/atmel toolchain/avr32 gcc/native/3.4.2.1002/avr32-gnu-toolchain/bin/../lib/gcc/avr32/4.4.7/../../../../avr32/lib/ucr3fp\libc.a(lib_a-strlen.o)
 .bss           0x00000000        0x0 c:/program files (x86)/atmel/atmel toolchain/avr32 gcc/native/3.4.2.1002/avr32-gnu-toolchain/bin/../lib/gcc/avr32/4.4.7/../../../../avr32/lib/ucr3fp\libc.a(lib_a-strlen.o)
 .text          0x00000000        0x0 c:/program files (x86)/atmel/atmel toolchain/avr32 gcc/native/3.4.2.1002/avr32-gnu-toolchain/bin/../lib/gcc/avr32/4.4.7/../../../../avr32/lib/ucr3fp\libc.a(lib_a-findfp.o)
 .data          0x00000000        0x0 c:/program files (x86)/atmel/atmel toolchain/avr32 gcc/native/3.4.2.1002/avr32-gnu-toolchain/bin/../lib/gcc/avr32/4.4.7/../../../../avr32/lib/ucr3fp\libc.a(lib_a-findfp.o)
 .bss           0x00000000        0x0 c:/program files (x86)/atmel/atmel toolchain/avr32 gcc/native/3.4.2.1002/avr32-gnu-toolchain/bin/../lib/gcc/avr32/4.4.7/../../../../avr32/lib/ucr3fp\libc.a(lib_a-findfp.o)
 .text.__sfp_lock_acquire
                0x00000000        0x2 c:/program files (x86)/atmel/atmel toolchain/avr32 gcc/native/3.4.2.1002/avr32-gnu-toolchain/bin/../lib/gcc/avr32/4.4.7/../../../../avr32/lib/ucr3fp\libc.a(lib_a-findfp.o)
 .text.__sfp_lock_release
                0x00000000        0x2 c:/program files (x86)/atmel/atmel toolchain/avr32 gcc/native/3.4.2.1002/avr32-gnu-toolchain/bin/../lib/gcc/avr32/4.4.7/../../../../avr32/lib/ucr3fp\libc.a(lib_a-findfp.o)
 .text.__sinit_lock_acquire
                0x00000000        0x2 c:/program files (x86)/atmel/atmel toolchain/avr32 gcc/native/3.4.2.1002/avr32-gnu-toolchain/bin/../lib/gcc/avr32/4.4.7/../../../../avr32/lib/ucr3fp\libc.a(lib_a-findfp.o)
 .text.__sinit_lock_release
                0x00000000        0x2 c:/program files (x86)/atmel/atmel toolchain/avr32 gcc/native/3.4.2.1002/avr32-gnu-toolchain/bin/../lib/gcc/avr32/4.4.7/../../../../avr32/lib/ucr3fp\libc.a(lib_a-findfp.o)
 .text.__fp_lock
                0x00000000        0x2 c:/program files (x86)/atmel/atmel toolchain/avr32 gcc/native/3.4.2.1002/avr32-gnu-toolchain/bin/../lib/gcc/avr32/4.4.7/../../../../avr32/lib/ucr3fp\libc.a(lib_a-findfp.o)
 .text.__fp_unlock
                0x00000000        0x2 c:/program files (x86)/atmel/atmel toolchain/avr32 gcc/native/3.4.2.1002/avr32-gnu-toolchain/bin/../lib/gcc/avr32/4.4.7/../../../../avr32/lib/ucr3fp\libc.a(lib_a-findfp.o)
 .text.__fp_unlock_all
                0x00000000       0x1c c:/program files (x86)/atmel/atmel toolchain/avr32 gcc/native/3.4.2.1002/avr32-gnu-toolchain/bin/../lib/gcc/avr32/4.4.7/../../../../avr32/lib/ucr3fp\libc.a(lib_a-findfp.o)
 .text.__fp_lock_all
                0x00000000       0x1c c:/program files (x86)/atmel/atmel toolchain/avr32 gcc/native/3.4.2.1002/avr32-gnu-toolchain/bin/../lib/gcc/avr32/4.4.7/../../../../avr32/lib/ucr3fp\libc.a(lib_a-findfp.o)
 .text._cleanup_r
                0x00000000       0x14 c:/program files (x86)/atmel/atmel toolchain/avr32 gcc/native/3.4.2.1002/avr32-gnu-toolchain/bin/../lib/gcc/avr32/4.4.7/../../../../avr32/lib/ucr3fp\libc.a(lib_a-findfp.o)
 .text._cleanup
                0x00000000       0x14 c:/program files (x86)/atmel/atmel toolchain/avr32 gcc/native/3.4.2.1002/avr32-gnu-toolchain/bin/../lib/gcc/avr32/4.4.7/../../../../avr32/lib/ucr3fp\libc.a(lib_a-findfp.o)
 .text.__sfmoreglue
                0x00000000       0x30 c:/program files (x86)/atmel/atmel toolchain/avr32 gcc/native/3.4.2.1002/avr32-gnu-toolchain/bin/../lib/gcc/avr32/4.4.7/../../../../avr32/lib/ucr3fp\libc.a(lib_a-findfp.o)
 .text.__sfp    0x00000000       0x7c c:/program files (x86)/atmel/atmel toolchain/avr32 gcc/native/3.4.2.1002/avr32-gnu-toolchain/bin/../lib/gcc/avr32/4.4.7/../../../../avr32/lib/ucr3fp\libc.a(lib_a-findfp.o)
 .text.__sinit  0x00000000       0xb0 c:/program files (x86)/atmel/atmel toolchain/avr32 gcc/native/3.4.2.1002/avr32-gnu-toolchain/bin/../lib/gcc/avr32/4.4.7/../../../../avr32/lib/ucr3fp\libc.a(lib_a-findfp.o)
 .text          0x00000000        0x0 c:/program files (x86)/atmel/atmel toolchain/avr32 gcc/native/3.4.2.1002/avr32-gnu-toolchain/bin/../lib/gcc/avr32/4.4.7/../../../../avr32/lib/ucr3fp\libc.a(lib_a-fwalk.o)
 .data          0x00000000        0x0 c:/program files (x86)/atmel/atmel toolchain/avr32 gcc/native/3.4.2.1002/avr32-gnu-toolchain/bin/../lib/gcc/avr32/4.4.7/../../../../avr32/lib/ucr3fp\libc.a(lib_a-fwalk.o)
 .bss           0x00000000        0x0 c:/program files (x86)/atmel/atmel toolchain/avr32 gcc/native/3.4.2.1002/avr32-gnu-toolchain/bin/../lib/gcc/avr32/4.4.7/../../../../avr32/lib/ucr3fp\libc.a(lib_a-fwalk.o)
 .debug_abbrev  0x00000000      0x1df c:/program files (x86)/atmel/atmel toolchain/avr32 gcc/native/3.4.2.1002/avr32-gnu-toolchain/bin/../lib/gcc/avr32/4.4.7/../../../../avr32/lib/ucr3fp\libc.a(lib_a-fwalk.o)
 .debug_info    0x00000000      0xa61 c:/program files (x86)/atmel/atmel toolchain/avr32 gcc/native/3.4.2.1002/avr32-gnu-toolchain/bin/../lib/gcc/avr32/4.4.7/../../../../avr32/lib/ucr3fp\libc.a(lib_a-fwalk.o)
 .debug_line    0x00000000      0x2f1 c:/program files (x86)/atmel/atmel toolchain/avr32 gcc/native/3.4.2.1002/avr32-gnu-toolchain/bin/../lib/gcc/avr32/4.4.7/../../../../avr32/lib/ucr3fp\libc.a(lib_a-fwalk.o)
 .text._fwalk_reent
                0x00000000       0x58 c:/program files (x86)/atmel/atmel toolchain/avr32 gcc/native/3.4.2.1002/avr32-gnu-toolchain/bin/../lib/gcc/avr32/4.4.7/../../../../avr32/lib/ucr3fp\libc.a(lib_a-fwalk.o)
 .text._fwalk   0x00000000       0x54 c:/program files (x86)/atmel/atmel toolchain/avr32 gcc/native/3.4.2.1002/avr32-gnu-toolchain/bin/../lib/gcc/avr32/4.4.7/../../../../avr32/lib/ucr3fp\libc.a(lib_a-fwalk.o)
 .debug_frame   0x00000000       0x70 c:/program files (x86)/atmel/atmel toolchain/avr32 gcc/native/3.4.2.1002/avr32-gnu-toolchain/bin/../lib/gcc/avr32/4.4.7/../../../../avr32/lib/ucr3fp\libc.a(lib_a-fwalk.o)
 .debug_loc     0x00000000       0xe7 c:/program files (x86)/atmel/atmel toolchain/avr32 gcc/native/3.4.2.1002/avr32-gnu-toolchain/bin/../lib/gcc/avr32/4.4.7/../../../../avr32/lib/ucr3fp\libc.a(lib_a-fwalk.o)
 .debug_pubnames
                0x00000000       0x2e c:/program files (x86)/atmel/atmel toolchain/avr32 gcc/native/3.4.2.1002/avr32-gnu-toolchain/bin/../lib/gcc/avr32/4.4.7/../../../../avr32/lib/ucr3fp\libc.a(lib_a-fwalk.o)
 .debug_aranges
                0x00000000       0x28 c:/program files (x86)/atmel/atmel toolchain/avr32 gcc/native/3.4.2.1002/avr32-gnu-toolchain/bin/../lib/gcc/avr32/4.4.7/../../../../avr32/lib/ucr3fp\libc.a(lib_a-fwalk.o)
 .debug_ranges  0x00000000       0xa0 c:/program files (x86)/atmel/atmel toolchain/avr32 gcc/native/3.4.2.1002/avr32-gnu-toolchain/bin/../lib/gcc/avr32/4.4.7/../../../../avr32/lib/ucr3fp\libc.a(lib_a-fwalk.o)
 .debug_str     0x00000000      0x4da c:/program files (x86)/atmel/atmel toolchain/avr32 gcc/native/3.4.2.1002/avr32-gnu-toolchain/bin/../lib/gcc/avr32/4.4.7/../../../../avr32/lib/ucr3fp\libc.a(lib_a-fwalk.o)
 .comment       0x00000000       0x31 c:/program files (x86)/atmel/atmel toolchain/avr32 gcc/native/3.4.2.1002/avr32-gnu-toolchain/bin/../lib/gcc/avr32/4.4.7/../../../../avr32/lib/ucr3fp\libc.a(lib_a-fwalk.o)
 .text          0x00000000        0x0 c:/program files (x86)/atmel/atmel toolchain/avr32 gcc/native/3.4.2.1002/avr32-gnu-toolchain/bin/../lib/gcc/avr32/4.4.7/../../../../avr32/lib/ucr3fp\libc.a(lib_a-mallocr.o)
 .data          0x00000000        0x0 c:/program files (x86)/atmel/atmel toolchain/avr32 gcc/native/3.4.2.1002/avr32-gnu-toolchain/bin/../lib/gcc/avr32/4.4.7/../../../../avr32/lib/ucr3fp\libc.a(lib_a-mallocr.o)
 .bss           0x00000000        0x0 c:/program files (x86)/atmel/atmel toolchain/avr32 gcc/native/3.4.2.1002/avr32-gnu-toolchain/bin/../lib/gcc/avr32/4.4.7/../../../../avr32/lib/ucr3fp\libc.a(lib_a-mallocr.o)
 .debug_abbrev  0x00000000      0x205 c:/program files (x86)/atmel/atmel toolchain/avr32 gcc/native/3.4.2.1002/avr32-gnu-toolchain/bin/../lib/gcc/avr32/4.4.7/../../../../avr32/lib/ucr3fp\libc.a(lib_a-mallocr.o)
 .debug_info    0x00000000      0xc4e c:/program files (x86)/atmel/atmel toolchain/avr32 gcc/native/3.4.2.1002/avr32-gnu-toolchain/bin/../lib/gcc/avr32/4.4.7/../../../../avr32/lib/ucr3fp\libc.a(lib_a-mallocr.o)
 .debug_line    0x00000000      0x56c c:/program files (x86)/atmel/atmel toolchain/avr32 gcc/native/3.4.2.1002/avr32-gnu-toolchain/bin/../lib/gcc/avr32/4.4.7/../../../../avr32/lib/ucr3fp\libc.a(lib_a-mallocr.o)
 .text._malloc_r
                0x00000000      0x450 c:/program files (x86)/atmel/atmel toolchain/avr32 gcc/native/3.4.2.1002/avr32-gnu-toolchain/bin/../lib/gcc/avr32/4.4.7/../../../../avr32/lib/ucr3fp\libc.a(lib_a-mallocr.o)
 .data.__malloc_av_
                0x00000000      0x408 c:/program files (x86)/atmel/atmel toolchain/avr32 gcc/native/3.4.2.1002/avr32-gnu-toolchain/bin/../lib/gcc/avr32/4.4.7/../../../../avr32/lib/ucr3fp\libc.a(lib_a-mallocr.o)
 .data.__malloc_trim_threshold
                0x00000000        0x4 c:/program files (x86)/atmel/atmel toolchain/avr32 gcc/native/3.4.2.1002/avr32-gnu-toolchain/bin/../lib/gcc/avr32/4.4.7/../../../../avr32/lib/ucr3fp\libc.a(lib_a-mallocr.o)
 .bss.__malloc_max_total_mem
                0x00000000        0x4 c:/program files (x86)/atmel/atmel toolchain/avr32 gcc/native/3.4.2.1002/avr32-gnu-toolchain/bin/../lib/gcc/avr32/4.4.7/../../../../avr32/lib/ucr3fp\libc.a(lib_a-mallocr.o)
 .bss.__malloc_max_sbrked_mem
                0x00000000        0x4 c:/program files (x86)/atmel/atmel toolchain/avr32 gcc/native/3.4.2.1002/avr32-gnu-toolchain/bin/../lib/gcc/avr32/4.4.7/../../../../avr32/lib/ucr3fp\libc.a(lib_a-mallocr.o)
 .bss.__malloc_top_pad
                0x00000000        0x4 c:/program files (x86)/atmel/atmel toolchain/avr32 gcc/native/3.4.2.1002/avr32-gnu-toolchain/bin/../lib/gcc/avr32/4.4.7/../../../../avr32/lib/ucr3fp\libc.a(lib_a-mallocr.o)
 .bss.__malloc_current_mallinfo
                0x00000000       0x28 c:/program files (x86)/atmel/atmel toolchain/avr32 gcc/native/3.4.2.1002/avr32-gnu-toolchain/bin/../lib/gcc/avr32/4.4.7/../../../../avr32/lib/ucr3fp\libc.a(lib_a-mallocr.o)
 .data.__malloc_sbrk_base
                0x00000000        0x4 c:/program files (x86)/atmel/atmel toolchain/avr32 gcc/native/3.4.2.1002/avr32-gnu-toolchain/bin/../lib/gcc/avr32/4.4.7/../../../../avr32/lib/ucr3fp\libc.a(lib_a-mallocr.o)
 .debug_frame   0x00000000       0x40 c:/program files (x86)/atmel/atmel toolchain/avr32 gcc/native/3.4.2.1002/avr32-gnu-toolchain/bin/../lib/gcc/avr32/4.4.7/../../../../avr32/lib/ucr3fp\libc.a(lib_a-mallocr.o)
 .debug_loc     0x00000000      0x59a c:/program files (x86)/atmel/atmel toolchain/avr32 gcc/native/3.4.2.1002/avr32-gnu-toolchain/bin/../lib/gcc/avr32/4.4.7/../../../../avr32/lib/ucr3fp\libc.a(lib_a-mallocr.o)
 .debug_pubnames
                0x00000000       0xce c:/program files (x86)/atmel/atmel toolchain/avr32 gcc/native/3.4.2.1002/avr32-gnu-toolchain/bin/../lib/gcc/avr32/4.4.7/../../../../avr32/lib/ucr3fp\libc.a(lib_a-mallocr.o)
 .debug_aranges
                0x00000000       0x20 c:/program files (x86)/atmel/atmel toolchain/avr32 gcc/native/3.4.2.1002/avr32-gnu-toolchain/bin/../lib/gcc/avr32/4.4.7/../../../../avr32/lib/ucr3fp\libc.a(lib_a-mallocr.o)
 .debug_ranges  0x00000000       0x18 c:/program files (x86)/atmel/atmel toolchain/avr32 gcc/native/3.4.2.1002/avr32-gnu-toolchain/bin/../lib/gcc/avr32/4.4.7/../../../../avr32/lib/ucr3fp\libc.a(lib_a-mallocr.o)
 .debug_str     0x00000000      0x695 c:/program files (x86)/atmel/atmel toolchain/avr32 gcc/native/3.4.2.1002/avr32-gnu-toolchain/bin/../lib/gcc/avr32/4.4.7/../../../../avr32/lib/ucr3fp\libc.a(lib_a-mallocr.o)
 .comment       0x00000000       0x31 c:/program files (x86)/atmel/atmel toolchain/avr32 gcc/native/3.4.2.1002/avr32-gnu-toolchain/bin/../lib/gcc/avr32/4.4.7/../../../../avr32/lib/ucr3fp\libc.a(lib_a-mallocr.o)
 .text          0x00000000        0x0 c:/program files (x86)/atmel/atmel toolchain/avr32 gcc/native/3.4.2.1002/avr32-gnu-toolchain/bin/../lib/gcc/avr32/4.4.7/../../../../avr32/lib/ucr3fp\libc.a(lib_a-mlock.o)
 .data          0x00000000        0x0 c:/program files (x86)/atmel/atmel toolchain/avr32 gcc/native/3.4.2.1002/avr32-gnu-toolchain/bin/../lib/gcc/avr32/4.4.7/../../../../avr32/lib/ucr3fp\libc.a(lib_a-mlock.o)
 .bss           0x00000000        0x0 c:/program files (x86)/atmel/atmel toolchain/avr32 gcc/native/3.4.2.1002/avr32-gnu-toolchain/bin/../lib/gcc/avr32/4.4.7/../../../../avr32/lib/ucr3fp\libc.a(lib_a-mlock.o)
 .debug_abbrev  0x00000000      0x15b c:/program files (x86)/atmel/atmel toolchain/avr32 gcc/native/3.4.2.1002/avr32-gnu-toolchain/bin/../lib/gcc/avr32/4.4.7/../../../../avr32/lib/ucr3fp\libc.a(lib_a-mlock.o)
 .debug_info    0x00000000      0x8cf c:/program files (x86)/atmel/atmel toolchain/avr32 gcc/native/3.4.2.1002/avr32-gnu-toolchain/bin/../lib/gcc/avr32/4.4.7/../../../../avr32/lib/ucr3fp\libc.a(lib_a-mlock.o)
 .debug_line    0x00000000      0x1cf c:/program files (x86)/atmel/atmel toolchain/avr32 gcc/native/3.4.2.1002/avr32-gnu-toolchain/bin/../lib/gcc/avr32/4.4.7/../../../../avr32/lib/ucr3fp\libc.a(lib_a-mlock.o)
 .text.__malloc_lock
                0x00000000        0x2 c:/program files (x86)/atmel/atmel toolchain/avr32 gcc/native/3.4.2.1002/avr32-gnu-toolchain/bin/../lib/gcc/avr32/4.4.7/../../../../avr32/lib/ucr3fp\libc.a(lib_a-mlock.o)
 .text.__malloc_unlock
                0x00000000        0x2 c:/program files (x86)/atmel/atmel toolchain/avr32 gcc/native/3.4.2.1002/avr32-gnu-toolchain/bin/../lib/gcc/avr32/4.4.7/../../../../avr32/lib/ucr3fp\libc.a(lib_a-mlock.o)
 .debug_frame   0x00000000       0x30 c:/program files (x86)/atmel/atmel toolchain/avr32 gcc/native/3.4.2.1002/avr32-gnu-toolchain/bin/../lib/gcc/avr32/4.4.7/../../../../avr32/lib/ucr3fp\libc.a(lib_a-mlock.o)
 .debug_pubnames
                0x00000000       0x38 c:/program files (x86)/atmel/atmel toolchain/avr32 gcc/native/3.4.2.1002/avr32-gnu-toolchain/bin/../lib/gcc/avr32/4.4.7/../../../../avr32/lib/ucr3fp\libc.a(lib_a-mlock.o)
 .debug_aranges
                0x00000000       0x28 c:/program files (x86)/atmel/atmel toolchain/avr32 gcc/native/3.4.2.1002/avr32-gnu-toolchain/bin/../lib/gcc/avr32/4.4.7/../../../../avr32/lib/ucr3fp\libc.a(lib_a-mlock.o)
 .debug_ranges  0x00000000       0x20 c:/program files (x86)/atmel/atmel toolchain/avr32 gcc/native/3.4.2.1002/avr32-gnu-toolchain/bin/../lib/gcc/avr32/4.4.7/../../../../avr32/lib/ucr3fp\libc.a(lib_a-mlock.o)
 .debug_str     0x00000000      0x4c7 c:/program files (x86)/atmel/atmel toolchain/avr32 gcc/native/3.4.2.1002/avr32-gnu-toolchain/bin/../lib/gcc/avr32/4.4.7/../../../../avr32/lib/ucr3fp\libc.a(lib_a-mlock.o)
 .comment       0x00000000       0x31 c:/program files (x86)/atmel/atmel toolchain/avr32 gcc/native/3.4.2.1002/avr32-gnu-toolchain/bin/../lib/gcc/avr32/4.4.7/../../../../avr32/lib/ucr3fp\libc.a(lib_a-mlock.o)
 .text          0x00000000        0x0 c:/program files (x86)/atmel/atmel toolchain/avr32 gcc/native/3.4.2.1002/avr32-gnu-toolchain/bin/../lib/gcc/avr32/4.4.7/../../../../avr32/lib/ucr3fp\libc.a(lib_a-sbrkr.o)
 .data          0x00000000        0x0 c:/program files (x86)/atmel/atmel toolchain/avr32 gcc/native/3.4.2.1002/avr32-gnu-toolchain/bin/../lib/gcc/avr32/4.4.7/../../../../avr32/lib/ucr3fp\libc.a(lib_a-sbrkr.o)
 .bss           0x00000000        0x0 c:/program files (x86)/atmel/atmel toolchain/avr32 gcc/native/3.4.2.1002/avr32-gnu-toolchain/bin/../lib/gcc/avr32/4.4.7/../../../../avr32/lib/ucr3fp\libc.a(lib_a-sbrkr.o)
 .debug_abbrev  0x00000000      0x17f c:/program files (x86)/atmel/atmel toolchain/avr32 gcc/native/3.4.2.1002/avr32-gnu-toolchain/bin/../lib/gcc/avr32/4.4.7/../../../../avr32/lib/ucr3fp\libc.a(lib_a-sbrkr.o)
 .debug_info    0x00000000      0x8de c:/program files (x86)/atmel/atmel toolchain/avr32 gcc/native/3.4.2.1002/avr32-gnu-toolchain/bin/../lib/gcc/avr32/4.4.7/../../../../avr32/lib/ucr3fp\libc.a(lib_a-sbrkr.o)
 .debug_line    0x00000000      0x24f c:/program files (x86)/atmel/atmel toolchain/avr32 gcc/native/3.4.2.1002/avr32-gnu-toolchain/bin/../lib/gcc/avr32/4.4.7/../../../../avr32/lib/ucr3fp\libc.a(lib_a-sbrkr.o)
 .text._sbrk_r  0x00000000       0x28 c:/program files (x86)/atmel/atmel toolchain/avr32 gcc/native/3.4.2.1002/avr32-gnu-toolchain/bin/../lib/gcc/avr32/4.4.7/../../../../avr32/lib/ucr3fp\libc.a(lib_a-sbrkr.o)
 .debug_frame   0x00000000       0x34 c:/program files (x86)/atmel/atmel toolchain/avr32 gcc/native/3.4.2.1002/avr32-gnu-toolchain/bin/../lib/gcc/avr32/4.4.7/../../../../avr32/lib/ucr3fp\libc.a(lib_a-sbrkr.o)
 .debug_loc     0x00000000       0x63 c:/program files (x86)/atmel/atmel toolchain/avr32 gcc/native/3.4.2.1002/avr32-gnu-toolchain/bin/../lib/gcc/avr32/4.4.7/../../../../avr32/lib/ucr3fp\libc.a(lib_a-sbrkr.o)
 .debug_pubnames
                0x00000000       0x1e c:/program files (x86)/atmel/atmel toolchain/avr32 gcc/native/3.4.2.1002/avr32-gnu-toolchain/bin/../lib/gcc/avr32/4.4.7/../../../../avr32/lib/ucr3fp\libc.a(lib_a-sbrkr.o)
 .debug_aranges
                0x00000000       0x20 c:/program files (x86)/atmel/atmel toolchain/avr32 gcc/native/3.4.2.1002/avr32-gnu-toolchain/bin/../lib/gcc/avr32/4.4.7/../../../../avr32/lib/ucr3fp\libc.a(lib_a-sbrkr.o)
 .debug_ranges  0x00000000       0x18 c:/program files (x86)/atmel/atmel toolchain/avr32 gcc/native/3.4.2.1002/avr32-gnu-toolchain/bin/../lib/gcc/avr32/4.4.7/../../../../avr32/lib/ucr3fp\libc.a(lib_a-sbrkr.o)
 .debug_str     0x00000000      0x4b0 c:/program files (x86)/atmel/atmel toolchain/avr32 gcc/native/3.4.2.1002/avr32-gnu-toolchain/bin/../lib/gcc/avr32/4.4.7/../../../../avr32/lib/ucr3fp\libc.a(lib_a-sbrkr.o)
 .comment       0x00000000       0x31 c:/program files (x86)/atmel/atmel toolchain/avr32 gcc/native/3.4.2.1002/avr32-gnu-toolchain/bin/../lib/gcc/avr32/4.4.7/../../../../avr32/lib/ucr3fp\libc.a(lib_a-sbrkr.o)
 .text          0x00000000        0x0 c:/program files (x86)/atmel/atmel toolchain/avr32 gcc/native/3.4.2.1002/avr32-gnu-toolchain/bin/../lib/gcc/avr32/4.4.7/../../../../avr32/lib/ucr3fp\libc.a(lib_a-stdio.o)
 .data          0x00000000        0x0 c:/program files (x86)/atmel/atmel toolchain/avr32 gcc/native/3.4.2.1002/avr32-gnu-toolchain/bin/../lib/gcc/avr32/4.4.7/../../../../avr32/lib/ucr3fp\libc.a(lib_a-stdio.o)
 .bss           0x00000000        0x0 c:/program files (x86)/atmel/atmel toolchain/avr32 gcc/native/3.4.2.1002/avr32-gnu-toolchain/bin/../lib/gcc/avr32/4.4.7/../../../../avr32/lib/ucr3fp\libc.a(lib_a-stdio.o)
 .debug_abbrev  0x00000000      0x192 c:/program files (x86)/atmel/atmel toolchain/avr32 gcc/native/3.4.2.1002/avr32-gnu-toolchain/bin/../lib/gcc/avr32/4.4.7/../../../../avr32/lib/ucr3fp\libc.a(lib_a-stdio.o)
 .debug_info    0x00000000      0xa28 c:/program files (x86)/atmel/atmel toolchain/avr32 gcc/native/3.4.2.1002/avr32-gnu-toolchain/bin/../lib/gcc/avr32/4.4.7/../../../../avr32/lib/ucr3fp\libc.a(lib_a-stdio.o)
 .debug_line    0x00000000      0x2fa c:/program files (x86)/atmel/atmel toolchain/avr32 gcc/native/3.4.2.1002/avr32-gnu-toolchain/bin/../lib/gcc/avr32/4.4.7/../../../../avr32/lib/ucr3fp\libc.a(lib_a-stdio.o)
 .text.__sclose
                0x00000000       0x10 c:/program files (x86)/atmel/atmel toolchain/avr32 gcc/native/3.4.2.1002/avr32-gnu-toolchain/bin/../lib/gcc/avr32/4.4.7/../../../../avr32/lib/ucr3fp\libc.a(lib_a-stdio.o)
 .text.__sseek  0x00000000       0x28 c:/program files (x86)/atmel/atmel toolchain/avr32 gcc/native/3.4.2.1002/avr32-gnu-toolchain/bin/../lib/gcc/avr32/4.4.7/../../../../avr32/lib/ucr3fp\libc.a(lib_a-stdio.o)
 .text.__swrite
                0x00000000       0x38 c:/program files (x86)/atmel/atmel toolchain/avr32 gcc/native/3.4.2.1002/avr32-gnu-toolchain/bin/../lib/gcc/avr32/4.4.7/../../../../avr32/lib/ucr3fp\libc.a(lib_a-stdio.o)
 .text.__sread  0x00000000       0x24 c:/program files (x86)/atmel/atmel toolchain/avr32 gcc/native/3.4.2.1002/avr32-gnu-toolchain/bin/../lib/gcc/avr32/4.4.7/../../../../avr32/lib/ucr3fp\libc.a(lib_a-stdio.o)
 .debug_frame   0x00000000       0x94 c:/program files (x86)/atmel/atmel toolchain/avr32 gcc/native/3.4.2.1002/avr32-gnu-toolchain/bin/../lib/gcc/avr32/4.4.7/../../../../avr32/lib/ucr3fp\libc.a(lib_a-stdio.o)
 .debug_loc     0x00000000      0x1ee c:/program files (x86)/atmel/atmel toolchain/avr32 gcc/native/3.4.2.1002/avr32-gnu-toolchain/bin/../lib/gcc/avr32/4.4.7/../../../../avr32/lib/ucr3fp\libc.a(lib_a-stdio.o)
 .debug_pubnames
                0x00000000       0x44 c:/program files (x86)/atmel/atmel toolchain/avr32 gcc/native/3.4.2.1002/avr32-gnu-toolchain/bin/../lib/gcc/avr32/4.4.7/../../../../avr32/lib/ucr3fp\libc.a(lib_a-stdio.o)
 .debug_aranges
                0x00000000       0x38 c:/program files (x86)/atmel/atmel toolchain/avr32 gcc/native/3.4.2.1002/avr32-gnu-toolchain/bin/../lib/gcc/avr32/4.4.7/../../../../avr32/lib/ucr3fp\libc.a(lib_a-stdio.o)
 .debug_ranges  0x00000000       0x30 c:/program files (x86)/atmel/atmel toolchain/avr32 gcc/native/3.4.2.1002/avr32-gnu-toolchain/bin/../lib/gcc/avr32/4.4.7/../../../../avr32/lib/ucr3fp\libc.a(lib_a-stdio.o)
 .debug_str     0x00000000      0x4d6 c:/program files (x86)/atmel/atmel toolchain/avr32 gcc/native/3.4.2.1002/avr32-gnu-toolchain/bin/../lib/gcc/avr32/4.4.7/../../../../avr32/lib/ucr3fp\libc.a(lib_a-stdio.o)
 .comment       0x00000000       0x31 c:/program files (x86)/atmel/atmel toolchain/avr32 gcc/native/3.4.2.1002/avr32-gnu-toolchain/bin/../lib/gcc/avr32/4.4.7/../../../../avr32/lib/ucr3fp\libc.a(lib_a-stdio.o)
 .text          0x00000000        0x0 c:/program files (x86)/atmel/atmel toolchain/avr32 gcc/native/3.4.2.1002/avr32-gnu-toolchain/bin/../lib/gcc/avr32/4.4.7/../../../../avr32/lib/ucr3fp\libc.a(lib_a-syscalls.o)
 .data          0x00000000        0x0 c:/program files (x86)/atmel/atmel toolchain/avr32 gcc/native/3.4.2.1002/avr32-gnu-toolchain/bin/../lib/gcc/avr32/4.4.7/../../../../avr32/lib/ucr3fp\libc.a(lib_a-syscalls.o)
 .bss           0x00000000        0x0 c:/program files (x86)/atmel/atmel toolchain/avr32 gcc/native/3.4.2.1002/avr32-gnu-toolchain/bin/../lib/gcc/avr32/4.4.7/../../../../avr32/lib/ucr3fp\libc.a(lib_a-syscalls.o)
 .debug_abbrev  0x00000000      0x19a c:/program files (x86)/atmel/atmel toolchain/avr32 gcc/native/3.4.2.1002/avr32-gnu-toolchain/bin/../lib/gcc/avr32/4.4.7/../../../../avr32/lib/ucr3fp\libc.a(lib_a-syscalls.o)
 .debug_info    0x00000000      0x93a c:/program files (x86)/atmel/atmel toolchain/avr32 gcc/native/3.4.2.1002/avr32-gnu-toolchain/bin/../lib/gcc/avr32/4.4.7/../../../../avr32/lib/ucr3fp\libc.a(lib_a-syscalls.o)
 .debug_line    0x00000000      0x586 c:/program files (x86)/atmel/atmel toolchain/avr32 gcc/native/3.4.2.1002/avr32-gnu-toolchain/bin/../lib/gcc/avr32/4.4.7/../../../../avr32/lib/ucr3fp\libc.a(lib_a-syscalls.o)
 .text._init_startup
                0x00000000        0x2 c:/program files (x86)/atmel/atmel toolchain/avr32 gcc/native/3.4.2.1002/avr32-gnu-toolchain/bin/../lib/gcc/avr32/4.4.7/../../../../avr32/lib/ucr3fp\libc.a(lib_a-syscalls.o)
 .text._init_argv
                0x00000000        0xa c:/program files (x86)/atmel/atmel toolchain/avr32 gcc/native/3.4.2.1002/avr32-gnu-toolchain/bin/../lib/gcc/avr32/4.4.7/../../../../avr32/lib/ucr3fp\libc.a(lib_a-syscalls.o)
 .text._exit    0x00000000        0xa c:/program files (x86)/atmel/atmel toolchain/avr32 gcc/native/3.4.2.1002/avr32-gnu-toolchain/bin/../lib/gcc/avr32/4.4.7/../../../../avr32/lib/ucr3fp\libc.a(lib_a-syscalls.o)
 .text._open    0x00000000       0x18 c:/program files (x86)/atmel/atmel toolchain/avr32 gcc/native/3.4.2.1002/avr32-gnu-toolchain/bin/../lib/gcc/avr32/4.4.7/../../../../avr32/lib/ucr3fp\libc.a(lib_a-syscalls.o)
 .text._close   0x00000000       0x18 c:/program files (x86)/atmel/atmel toolchain/avr32 gcc/native/3.4.2.1002/avr32-gnu-toolchain/bin/../lib/gcc/avr32/4.4.7/../../../../avr32/lib/ucr3fp\libc.a(lib_a-syscalls.o)
 .text._lseek   0x00000000       0x18 c:/program files (x86)/atmel/atmel toolchain/avr32 gcc/native/3.4.2.1002/avr32-gnu-toolchain/bin/../lib/gcc/avr32/4.4.7/../../../../avr32/lib/ucr3fp\libc.a(lib_a-syscalls.o)
 .text._read    0x00000000       0x18 c:/program files (x86)/atmel/atmel toolchain/avr32 gcc/native/3.4.2.1002/avr32-gnu-toolchain/bin/../lib/gcc/avr32/4.4.7/../../../../avr32/lib/ucr3fp\libc.a(lib_a-syscalls.o)
 .text._write   0x00000000       0x18 c:/program files (x86)/atmel/atmel toolchain/avr32 gcc/native/3.4.2.1002/avr32-gnu-toolchain/bin/../lib/gcc/avr32/4.4.7/../../../../avr32/lib/ucr3fp\libc.a(lib_a-syscalls.o)
 .text.isatty   0x00000000       0x18 c:/program files (x86)/atmel/atmel toolchain/avr32 gcc/native/3.4.2.1002/avr32-gnu-toolchain/bin/../lib/gcc/avr32/4.4.7/../../../../avr32/lib/ucr3fp\libc.a(lib_a-syscalls.o)
 .text._fstat_host
                0x00000000       0x18 c:/program files (x86)/atmel/atmel toolchain/avr32 gcc/native/3.4.2.1002/avr32-gnu-toolchain/bin/../lib/gcc/avr32/4.4.7/../../../../avr32/lib/ucr3fp\libc.a(lib_a-syscalls.o)
 .text._stat_host
                0x00000000       0x18 c:/program files (x86)/atmel/atmel toolchain/avr32 gcc/native/3.4.2.1002/avr32-gnu-toolchain/bin/../lib/gcc/avr32/4.4.7/../../../../avr32/lib/ucr3fp\libc.a(lib_a-syscalls.o)
 .text._fstat   0x00000000       0x50 c:/program files (x86)/atmel/atmel toolchain/avr32 gcc/native/3.4.2.1002/avr32-gnu-toolchain/bin/../lib/gcc/avr32/4.4.7/../../../../avr32/lib/ucr3fp\libc.a(lib_a-syscalls.o)
 .text._stat    0x00000000       0x50 c:/program files (x86)/atmel/atmel toolchain/avr32 gcc/native/3.4.2.1002/avr32-gnu-toolchain/bin/../lib/gcc/avr32/4.4.7/../../../../avr32/lib/ucr3fp\libc.a(lib_a-syscalls.o)
 .text._gettimeofday_host
                0x00000000       0x18 c:/program files (x86)/atmel/atmel toolchain/avr32 gcc/native/3.4.2.1002/avr32-gnu-toolchain/bin/../lib/gcc/avr32/4.4.7/../../../../avr32/lib/ucr3fp\libc.a(lib_a-syscalls.o)
 .text._gettimeofday
                0x00000000       0x24 c:/program files (x86)/atmel/atmel toolchain/avr32 gcc/native/3.4.2.1002/avr32-gnu-toolchain/bin/../lib/gcc/avr32/4.4.7/../../../../avr32/lib/ucr3fp\libc.a(lib_a-syscalls.o)
 .text._unlink  0x00000000       0x18 c:/program files (x86)/atmel/atmel toolchain/avr32 gcc/native/3.4.2.1002/avr32-gnu-toolchain/bin/../lib/gcc/avr32/4.4.7/../../../../avr32/lib/ucr3fp\libc.a(lib_a-syscalls.o)
 .text._system  0x00000000       0x18 c:/program files (x86)/atmel/atmel toolchain/avr32 gcc/native/3.4.2.1002/avr32-gnu-toolchain/bin/../lib/gcc/avr32/4.4.7/../../../../avr32/lib/ucr3fp\libc.a(lib_a-syscalls.o)
 .text._execve  0x00000000        0x2 c:/program files (x86)/atmel/atmel toolchain/avr32 gcc/native/3.4.2.1002/avr32-gnu-toolchain/bin/../lib/gcc/avr32/4.4.7/../../../../avr32/lib/ucr3fp\libc.a(lib_a-syscalls.o)
 .text._fork    0x00000000        0x2 c:/program files (x86)/atmel/atmel toolchain/avr32 gcc/native/3.4.2.1002/avr32-gnu-toolchain/bin/../lib/gcc/avr32/4.4.7/../../../../avr32/lib/ucr3fp\libc.a(lib_a-syscalls.o)
 .text._wait    0x00000000        0x2 c:/program files (x86)/atmel/atmel toolchain/avr32 gcc/native/3.4.2.1002/avr32-gnu-toolchain/bin/../lib/gcc/avr32/4.4.7/../../../../avr32/lib/ucr3fp\libc.a(lib_a-syscalls.o)
 .text.sigfillset
                0x00000000        0x2 c:/program files (x86)/atmel/atmel toolchain/avr32 gcc/native/3.4.2.1002/avr32-gnu-toolchain/bin/../lib/gcc/avr32/4.4.7/../../../../avr32/lib/ucr3fp\libc.a(lib_a-syscalls.o)
 .text.sigprocmask
                0x00000000        0x2 c:/program files (x86)/atmel/atmel toolchain/avr32 gcc/native/3.4.2.1002/avr32-gnu-toolchain/bin/../lib/gcc/avr32/4.4.7/../../../../avr32/lib/ucr3fp\libc.a(lib_a-syscalls.o)
 .text._fcntl   0x00000000        0x2 c:/program files (x86)/atmel/atmel toolchain/avr32 gcc/native/3.4.2.1002/avr32-gnu-toolchain/bin/../lib/gcc/avr32/4.4.7/../../../../avr32/lib/ucr3fp\libc.a(lib_a-syscalls.o)
 .text._link    0x00000000        0x2 c:/program files (x86)/atmel/atmel toolchain/avr32 gcc/native/3.4.2.1002/avr32-gnu-toolchain/bin/../lib/gcc/avr32/4.4.7/../../../../avr32/lib/ucr3fp\libc.a(lib_a-syscalls.o)
 .text._kill    0x00000000        0x2 c:/program files (x86)/atmel/atmel toolchain/avr32 gcc/native/3.4.2.1002/avr32-gnu-toolchain/bin/../lib/gcc/avr32/4.4.7/../../../../avr32/lib/ucr3fp\libc.a(lib_a-syscalls.o)
 .text._getpid  0x00000000        0x2 c:/program files (x86)/atmel/atmel toolchain/avr32 gcc/native/3.4.2.1002/avr32-gnu-toolchain/bin/../lib/gcc/avr32/4.4.7/../../../../avr32/lib/ucr3fp\libc.a(lib_a-syscalls.o)
 .text._sbrk    0x00000000       0x40 c:/program files (x86)/atmel/atmel toolchain/avr32 gcc/native/3.4.2.1002/avr32-gnu-toolchain/bin/../lib/gcc/avr32/4.4.7/../../../../avr32/lib/ucr3fp\libc.a(lib_a-syscalls.o)
 .text._times   0x00000000       0x12 c:/program files (x86)/atmel/atmel toolchain/avr32 gcc/native/3.4.2.1002/avr32-gnu-toolchain/bin/../lib/gcc/avr32/4.4.7/../../../../avr32/lib/ucr3fp\libc.a(lib_a-syscalls.o)
 .bss.cur_heap_pos.1869
                0x00000000        0x4 c:/program files (x86)/atmel/atmel toolchain/avr32 gcc/native/3.4.2.1002/avr32-gnu-toolchain/bin/../lib/gcc/avr32/4.4.7/../../../../avr32/lib/ucr3fp\libc.a(lib_a-syscalls.o)
 .debug_frame   0x00000000      0x220 c:/program files (x86)/atmel/atmel toolchain/avr32 gcc/native/3.4.2.1002/avr32-gnu-toolchain/bin/../lib/gcc/avr32/4.4.7/../../../../avr32/lib/ucr3fp\libc.a(lib_a-syscalls.o)
 .debug_loc     0x00000000      0x268 c:/program files (x86)/atmel/atmel toolchain/avr32 gcc/native/3.4.2.1002/avr32-gnu-toolchain/bin/../lib/gcc/avr32/4.4.7/../../../../avr32/lib/ucr3fp\libc.a(lib_a-syscalls.o)
 .debug_pubnames
                0x00000000      0x171 c:/program files (x86)/atmel/atmel toolchain/avr32 gcc/native/3.4.2.1002/avr32-gnu-toolchain/bin/../lib/gcc/avr32/4.4.7/../../../../avr32/lib/ucr3fp\libc.a(lib_a-syscalls.o)
 .debug_aranges
                0x00000000       0xf8 c:/program files (x86)/atmel/atmel toolchain/avr32 gcc/native/3.4.2.1002/avr32-gnu-toolchain/bin/../lib/gcc/avr32/4.4.7/../../../../avr32/lib/ucr3fp\libc.a(lib_a-syscalls.o)
 .debug_ranges  0x00000000       0xf0 c:/program files (x86)/atmel/atmel toolchain/avr32 gcc/native/3.4.2.1002/avr32-gnu-toolchain/bin/../lib/gcc/avr32/4.4.7/../../../../avr32/lib/ucr3fp\libc.a(lib_a-syscalls.o)
 .debug_str     0x00000000      0x439 c:/program files (x86)/atmel/atmel toolchain/avr32 gcc/native/3.4.2.1002/avr32-gnu-toolchain/bin/../lib/gcc/avr32/4.4.7/../../../../avr32/lib/ucr3fp\libc.a(lib_a-syscalls.o)
 .comment       0x00000000       0x31 c:/program files (x86)/atmel/atmel toolchain/avr32 gcc/native/3.4.2.1002/avr32-gnu-toolchain/bin/../lib/gcc/avr32/4.4.7/../../../../avr32/lib/ucr3fp\libc.a(lib_a-syscalls.o)
 .text          0x00000000        0x0 c:/program files (x86)/atmel/atmel toolchain/avr32 gcc/native/3.4.2.1002/avr32-gnu-toolchain/bin/../lib/gcc/avr32/4.4.7/../../../../avr32/lib/ucr3fp\libc.a(lib_a-writer.o)
 .data          0x00000000        0x0 c:/program files (x86)/atmel/atmel toolchain/avr32 gcc/native/3.4.2.1002/avr32-gnu-toolchain/bin/../lib/gcc/avr32/4.4.7/../../../../avr32/lib/ucr3fp\libc.a(lib_a-writer.o)
 .bss           0x00000000        0x0 c:/program files (x86)/atmel/atmel toolchain/avr32 gcc/native/3.4.2.1002/avr32-gnu-toolchain/bin/../lib/gcc/avr32/4.4.7/../../../../avr32/lib/ucr3fp\libc.a(lib_a-writer.o)
 .debug_abbrev  0x00000000      0x175 c:/program files (x86)/atmel/atmel toolchain/avr32 gcc/native/3.4.2.1002/avr32-gnu-toolchain/bin/../lib/gcc/avr32/4.4.7/../../../../avr32/lib/ucr3fp\libc.a(lib_a-writer.o)
 .debug_info    0x00000000      0x90d c:/program files (x86)/atmel/atmel toolchain/avr32 gcc/native/3.4.2.1002/avr32-gnu-toolchain/bin/../lib/gcc/avr32/4.4.7/../../../../avr32/lib/ucr3fp\libc.a(lib_a-writer.o)
 .debug_line    0x00000000      0x25c c:/program files (x86)/atmel/atmel toolchain/avr32 gcc/native/3.4.2.1002/avr32-gnu-toolchain/bin/../lib/gcc/avr32/4.4.7/../../../../avr32/lib/ucr3fp\libc.a(lib_a-writer.o)
 .text._write_r
                0x00000000       0x2c c:/program files (x86)/atmel/atmel toolchain/avr32 gcc/native/3.4.2.1002/avr32-gnu-toolchain/bin/../lib/gcc/avr32/4.4.7/../../../../avr32/lib/ucr3fp\libc.a(lib_a-writer.o)
 .debug_frame   0x00000000       0x34 c:/program files (x86)/atmel/atmel toolchain/avr32 gcc/native/3.4.2.1002/avr32-gnu-toolchain/bin/../lib/gcc/avr32/4.4.7/../../../../avr32/lib/ucr3fp\libc.a(lib_a-writer.o)
 .debug_loc     0x00000000       0x94 c:/program files (x86)/atmel/atmel toolchain/avr32 gcc/native/3.4.2.1002/avr32-gnu-toolchain/bin/../lib/gcc/avr32/4.4.7/../../../../avr32/lib/ucr3fp\libc.a(lib_a-writer.o)
 .debug_pubnames
                0x00000000       0x1f c:/program files (x86)/atmel/atmel toolchain/avr32 gcc/native/3.4.2.1002/avr32-gnu-toolchain/bin/../lib/gcc/avr32/4.4.7/../../../../avr32/lib/ucr3fp\libc.a(lib_a-writer.o)
 .debug_aranges
                0x00000000       0x20 c:/program files (x86)/atmel/atmel toolchain/avr32 gcc/native/3.4.2.1002/avr32-gnu-toolchain/bin/../lib/gcc/avr32/4.4.7/../../../../avr32/lib/ucr3fp\libc.a(lib_a-writer.o)
 .debug_ranges  0x00000000       0x18 c:/program files (x86)/atmel/atmel toolchain/avr32 gcc/native/3.4.2.1002/avr32-gnu-toolchain/bin/../lib/gcc/avr32/4.4.7/../../../../avr32/lib/ucr3fp\libc.a(lib_a-writer.o)
 .debug_str     0x00000000      0x4b3 c:/program files (x86)/atmel/atmel toolchain/avr32 gcc/native/3.4.2.1002/avr32-gnu-toolchain/bin/../lib/gcc/avr32/4.4.7/../../../../avr32/lib/ucr3fp\libc.a(lib_a-writer.o)
 .comment       0x00000000       0x31 c:/program files (x86)/atmel/atmel toolchain/avr32 gcc/native/3.4.2.1002/avr32-gnu-toolchain/bin/../lib/gcc/avr32/4.4.7/../../../../avr32/lib/ucr3fp\libc.a(lib_a-writer.o)
 .text          0x00000000        0x0 c:/program files (x86)/atmel/atmel toolchain/avr32 gcc/native/3.4.2.1002/avr32-gnu-toolchain/bin/../lib/gcc/avr32/4.4.7/../../../../avr32/lib/ucr3fp\libc.a(lib_a-closer.o)
 .data          0x00000000        0x0 c:/program files (x86)/atmel/atmel toolchain/avr32 gcc/native/3.4.2.1002/avr32-gnu-toolchain/bin/../lib/gcc/avr32/4.4.7/../../../../avr32/lib/ucr3fp\libc.a(lib_a-closer.o)
 .bss           0x00000000        0x0 c:/program files (x86)/atmel/atmel toolchain/avr32 gcc/native/3.4.2.1002/avr32-gnu-toolchain/bin/../lib/gcc/avr32/4.4.7/../../../../avr32/lib/ucr3fp\libc.a(lib_a-closer.o)
 .debug_abbrev  0x00000000      0x170 c:/program files (x86)/atmel/atmel toolchain/avr32 gcc/native/3.4.2.1002/avr32-gnu-toolchain/bin/../lib/gcc/avr32/4.4.7/../../../../avr32/lib/ucr3fp\libc.a(lib_a-closer.o)
 .debug_info    0x00000000      0x8d2 c:/program files (x86)/atmel/atmel toolchain/avr32 gcc/native/3.4.2.1002/avr32-gnu-toolchain/bin/../lib/gcc/avr32/4.4.7/../../../../avr32/lib/ucr3fp\libc.a(lib_a-closer.o)
 .debug_line    0x00000000      0x250 c:/program files (x86)/atmel/atmel toolchain/avr32 gcc/native/3.4.2.1002/avr32-gnu-toolchain/bin/../lib/gcc/avr32/4.4.7/../../../../avr32/lib/ucr3fp\libc.a(lib_a-closer.o)
 .text._close_r
                0x00000000       0x28 c:/program files (x86)/atmel/atmel toolchain/avr32 gcc/native/3.4.2.1002/avr32-gnu-toolchain/bin/../lib/gcc/avr32/4.4.7/../../../../avr32/lib/ucr3fp\libc.a(lib_a-closer.o)
 .debug_frame   0x00000000       0x34 c:/program files (x86)/atmel/atmel toolchain/avr32 gcc/native/3.4.2.1002/avr32-gnu-toolchain/bin/../lib/gcc/avr32/4.4.7/../../../../avr32/lib/ucr3fp\libc.a(lib_a-closer.o)
 .debug_loc     0x00000000       0x63 c:/program files (x86)/atmel/atmel toolchain/avr32 gcc/native/3.4.2.1002/avr32-gnu-toolchain/bin/../lib/gcc/avr32/4.4.7/../../../../avr32/lib/ucr3fp\libc.a(lib_a-closer.o)
 .debug_pubnames
                0x00000000       0x1f c:/program files (x86)/atmel/atmel toolchain/avr32 gcc/native/3.4.2.1002/avr32-gnu-toolchain/bin/../lib/gcc/avr32/4.4.7/../../../../avr32/lib/ucr3fp\libc.a(lib_a-closer.o)
 .debug_aranges
                0x00000000       0x20 c:/program files (x86)/atmel/atmel toolchain/avr32 gcc/native/3.4.2.1002/avr32-gnu-toolchain/bin/../lib/gcc/avr32/4.4.7/../../../../avr32/lib/ucr3fp\libc.a(lib_a-closer.o)
 .debug_ranges  0x00000000       0x18 c:/program files (x86)/atmel/atmel toolchain/avr32 gcc/native/3.4.2.1002/avr32-gnu-toolchain/bin/../lib/gcc/avr32/4.4.7/../../../../avr32/lib/ucr3fp\libc.a(lib_a-closer.o)
 .debug_str     0x00000000      0x4a3 c:/program files (x86)/atmel/atmel toolchain/avr32 gcc/native/3.4.2.1002/avr32-gnu-toolchain/bin/../lib/gcc/avr32/4.4.7/../../../../avr32/lib/ucr3fp\libc.a(lib_a-closer.o)
 .comment       0x00000000       0x31 c:/program files (x86)/atmel/atmel toolchain/avr32 gcc/native/3.4.2.1002/avr32-gnu-toolchain/bin/../lib/gcc/avr32/4.4.7/../../../../avr32/lib/ucr3fp\libc.a(lib_a-closer.o)
 .text          0x00000000        0x0 c:/program files (x86)/atmel/atmel toolchain/avr32 gcc/native/3.4.2.1002/avr32-gnu-toolchain/bin/../lib/gcc/avr32/4.4.7/../../../../avr32/lib/ucr3fp\libc.a(lib_a-fclose.o)
 .data          0x00000000        0x0 c:/program files (x86)/atmel/atmel toolchain/avr32 gcc/native/3.4.2.1002/avr32-gnu-toolchain/bin/../lib/gcc/avr32/4.4.7/../../../../avr32/lib/ucr3fp\libc.a(lib_a-fclose.o)
 .bss           0x00000000        0x0 c:/program files (x86)/atmel/atmel toolchain/avr32 gcc/native/3.4.2.1002/avr32-gnu-toolchain/bin/../lib/gcc/avr32/4.4.7/../../../../avr32/lib/ucr3fp\libc.a(lib_a-fclose.o)
 .debug_abbrev  0x00000000      0x1a1 c:/program files (x86)/atmel/atmel toolchain/avr32 gcc/native/3.4.2.1002/avr32-gnu-toolchain/bin/../lib/gcc/avr32/4.4.7/../../../../avr32/lib/ucr3fp\libc.a(lib_a-fclose.o)
 .debug_info    0x00000000      0x9bc c:/program files (x86)/atmel/atmel toolchain/avr32 gcc/native/3.4.2.1002/avr32-gnu-toolchain/bin/../lib/gcc/avr32/4.4.7/../../../../avr32/lib/ucr3fp\libc.a(lib_a-fclose.o)
 .debug_line    0x00000000      0x2b6 c:/program files (x86)/atmel/atmel toolchain/avr32 gcc/native/3.4.2.1002/avr32-gnu-toolchain/bin/../lib/gcc/avr32/4.4.7/../../../../avr32/lib/ucr3fp\libc.a(lib_a-fclose.o)
 .text._fclose_r
                0x00000000       0xd0 c:/program files (x86)/atmel/atmel toolchain/avr32 gcc/native/3.4.2.1002/avr32-gnu-toolchain/bin/../lib/gcc/avr32/4.4.7/../../../../avr32/lib/ucr3fp\libc.a(lib_a-fclose.o)
 .text.fclose   0x00000000       0x18 c:/program files (x86)/atmel/atmel toolchain/avr32 gcc/native/3.4.2.1002/avr32-gnu-toolchain/bin/../lib/gcc/avr32/4.4.7/../../../../avr32/lib/ucr3fp\libc.a(lib_a-fclose.o)
 .debug_frame   0x00000000       0x4c c:/program files (x86)/atmel/atmel toolchain/avr32 gcc/native/3.4.2.1002/avr32-gnu-toolchain/bin/../lib/gcc/avr32/4.4.7/../../../../avr32/lib/ucr3fp\libc.a(lib_a-fclose.o)
 .debug_loc     0x00000000       0xb6 c:/program files (x86)/atmel/atmel toolchain/avr32 gcc/native/3.4.2.1002/avr32-gnu-toolchain/bin/../lib/gcc/avr32/4.4.7/../../../../avr32/lib/ucr3fp\libc.a(lib_a-fclose.o)
 .debug_pubnames
                0x00000000       0x2b c:/program files (x86)/atmel/atmel toolchain/avr32 gcc/native/3.4.2.1002/avr32-gnu-toolchain/bin/../lib/gcc/avr32/4.4.7/../../../../avr32/lib/ucr3fp\libc.a(lib_a-fclose.o)
 .debug_aranges
                0x00000000       0x28 c:/program files (x86)/atmel/atmel toolchain/avr32 gcc/native/3.4.2.1002/avr32-gnu-toolchain/bin/../lib/gcc/avr32/4.4.7/../../../../avr32/lib/ucr3fp\libc.a(lib_a-fclose.o)
 .debug_ranges  0x00000000       0x20 c:/program files (x86)/atmel/atmel toolchain/avr32 gcc/native/3.4.2.1002/avr32-gnu-toolchain/bin/../lib/gcc/avr32/4.4.7/../../../../avr32/lib/ucr3fp\libc.a(lib_a-fclose.o)
 .debug_str     0x00000000      0x4fa c:/program files (x86)/atmel/atmel toolchain/avr32 gcc/native/3.4.2.1002/avr32-gnu-toolchain/bin/../lib/gcc/avr32/4.4.7/../../../../avr32/lib/ucr3fp\libc.a(lib_a-fclose.o)
 .comment       0x00000000       0x31 c:/program files (x86)/atmel/atmel toolchain/avr32 gcc/native/3.4.2.1002/avr32-gnu-toolchain/bin/../lib/gcc/avr32/4.4.7/../../../../avr32/lib/ucr3fp\libc.a(lib_a-fclose.o)
 .text          0x00000000        0x0 c:/program files (x86)/atmel/atmel toolchain/avr32 gcc/native/3.4.2.1002/avr32-gnu-toolchain/bin/../lib/gcc/avr32/4.4.7/../../../../avr32/lib/ucr3fp\libc.a(lib_a-fflush.o)
 .data          0x00000000        0x0 c:/program files (x86)/atmel/atmel toolchain/avr32 gcc/native/3.4.2.1002/avr32-gnu-toolchain/bin/../lib/gcc/avr32/4.4.7/../../../../avr32/lib/ucr3fp\libc.a(lib_a-fflush.o)
 .bss           0x00000000        0x0 c:/program files (x86)/atmel/atmel toolchain/avr32 gcc/native/3.4.2.1002/avr32-gnu-toolchain/bin/../lib/gcc/avr32/4.4.7/../../../../avr32/lib/ucr3fp\libc.a(lib_a-fflush.o)
 .debug_abbrev  0x00000000      0x1c6 c:/program files (x86)/atmel/atmel toolchain/avr32 gcc/native/3.4.2.1002/avr32-gnu-toolchain/bin/../lib/gcc/avr32/4.4.7/../../../../avr32/lib/ucr3fp\libc.a(lib_a-fflush.o)
 .debug_info    0x00000000      0xa22 c:/program files (x86)/atmel/atmel toolchain/avr32 gcc/native/3.4.2.1002/avr32-gnu-toolchain/bin/../lib/gcc/avr32/4.4.7/../../../../avr32/lib/ucr3fp\libc.a(lib_a-fflush.o)
 .debug_line    0x00000000      0x34c c:/program files (x86)/atmel/atmel toolchain/avr32 gcc/native/3.4.2.1002/avr32-gnu-toolchain/bin/../lib/gcc/avr32/4.4.7/../../../../avr32/lib/ucr3fp\libc.a(lib_a-fflush.o)
 .text._fflush_r
                0x00000000      0x118 c:/program files (x86)/atmel/atmel toolchain/avr32 gcc/native/3.4.2.1002/avr32-gnu-toolchain/bin/../lib/gcc/avr32/4.4.7/../../../../avr32/lib/ucr3fp\libc.a(lib_a-fflush.o)
 .text.fflush   0x00000000       0x30 c:/program files (x86)/atmel/atmel toolchain/avr32 gcc/native/3.4.2.1002/avr32-gnu-toolchain/bin/../lib/gcc/avr32/4.4.7/../../../../avr32/lib/ucr3fp\libc.a(lib_a-fflush.o)
 .debug_frame   0x00000000       0x4c c:/program files (x86)/atmel/atmel toolchain/avr32 gcc/native/3.4.2.1002/avr32-gnu-toolchain/bin/../lib/gcc/avr32/4.4.7/../../../../avr32/lib/ucr3fp\libc.a(lib_a-fflush.o)
 .debug_loc     0x00000000      0x13f c:/program files (x86)/atmel/atmel toolchain/avr32 gcc/native/3.4.2.1002/avr32-gnu-toolchain/bin/../lib/gcc/avr32/4.4.7/../../../../avr32/lib/ucr3fp\libc.a(lib_a-fflush.o)
 .debug_pubnames
                0x00000000       0x2b c:/program files (x86)/atmel/atmel toolchain/avr32 gcc/native/3.4.2.1002/avr32-gnu-toolchain/bin/../lib/gcc/avr32/4.4.7/../../../../avr32/lib/ucr3fp\libc.a(lib_a-fflush.o)
 .debug_aranges
                0x00000000       0x28 c:/program files (x86)/atmel/atmel toolchain/avr32 gcc/native/3.4.2.1002/avr32-gnu-toolchain/bin/../lib/gcc/avr32/4.4.7/../../../../avr32/lib/ucr3fp\libc.a(lib_a-fflush.o)
 .debug_ranges  0x00000000       0x20 c:/program files (x86)/atmel/atmel toolchain/avr32 gcc/native/3.4.2.1002/avr32-gnu-toolchain/bin/../lib/gcc/avr32/4.4.7/../../../../avr32/lib/ucr3fp\libc.a(lib_a-fflush.o)
 .debug_str     0x00000000      0x516 c:/program files (x86)/atmel/atmel toolchain/avr32 gcc/native/3.4.2.1002/avr32-gnu-toolchain/bin/../lib/gcc/avr32/4.4.7/../../../../avr32/lib/ucr3fp\libc.a(lib_a-fflush.o)
 .comment       0x00000000       0x31 c:/program files (x86)/atmel/atmel toolchain/avr32 gcc/native/3.4.2.1002/avr32-gnu-toolchain/bin/../lib/gcc/avr32/4.4.7/../../../../avr32/lib/ucr3fp\libc.a(lib_a-fflush.o)
 .text          0x00000000        0x0 c:/program files (x86)/atmel/atmel toolchain/avr32 gcc/native/3.4.2.1002/avr32-gnu-toolchain/bin/../lib/gcc/avr32/4.4.7/../../../../avr32/lib/ucr3fp\libc.a(lib_a-freer.o)
 .data          0x00000000        0x0 c:/program files (x86)/atmel/atmel toolchain/avr32 gcc/native/3.4.2.1002/avr32-gnu-toolchain/bin/../lib/gcc/avr32/4.4.7/../../../../avr32/lib/ucr3fp\libc.a(lib_a-freer.o)
 .bss           0x00000000        0x0 c:/program files (x86)/atmel/atmel toolchain/avr32 gcc/native/3.4.2.1002/avr32-gnu-toolchain/bin/../lib/gcc/avr32/4.4.7/../../../../avr32/lib/ucr3fp\libc.a(lib_a-freer.o)
 .debug_abbrev  0x00000000      0x1d9 c:/program files (x86)/atmel/atmel toolchain/avr32 gcc/native/3.4.2.1002/avr32-gnu-toolchain/bin/../lib/gcc/avr32/4.4.7/../../../../avr32/lib/ucr3fp\libc.a(lib_a-freer.o)
 .debug_info    0x00000000      0xb3d c:/program files (x86)/atmel/atmel toolchain/avr32 gcc/native/3.4.2.1002/avr32-gnu-toolchain/bin/../lib/gcc/avr32/4.4.7/../../../../avr32/lib/ucr3fp\libc.a(lib_a-freer.o)
 .debug_line    0x00000000      0x347 c:/program files (x86)/atmel/atmel toolchain/avr32 gcc/native/3.4.2.1002/avr32-gnu-toolchain/bin/../lib/gcc/avr32/4.4.7/../../../../avr32/lib/ucr3fp\libc.a(lib_a-freer.o)
 .text._malloc_trim_r
                0x00000000       0xa8 c:/program files (x86)/atmel/atmel toolchain/avr32 gcc/native/3.4.2.1002/avr32-gnu-toolchain/bin/../lib/gcc/avr32/4.4.7/../../../../avr32/lib/ucr3fp\libc.a(lib_a-freer.o)
 .text._free_r  0x00000000      0x1a0 c:/program files (x86)/atmel/atmel toolchain/avr32 gcc/native/3.4.2.1002/avr32-gnu-toolchain/bin/../lib/gcc/avr32/4.4.7/../../../../avr32/lib/ucr3fp\libc.a(lib_a-freer.o)
 .debug_frame   0x00000000       0x58 c:/program files (x86)/atmel/atmel toolchain/avr32 gcc/native/3.4.2.1002/avr32-gnu-toolchain/bin/../lib/gcc/avr32/4.4.7/../../../../avr32/lib/ucr3fp\libc.a(lib_a-freer.o)
 .debug_loc     0x00000000      0x32c c:/program files (x86)/atmel/atmel toolchain/avr32 gcc/native/3.4.2.1002/avr32-gnu-toolchain/bin/../lib/gcc/avr32/4.4.7/../../../../avr32/lib/ucr3fp\libc.a(lib_a-freer.o)
 .debug_pubnames
                0x00000000       0x31 c:/program files (x86)/atmel/atmel toolchain/avr32 gcc/native/3.4.2.1002/avr32-gnu-toolchain/bin/../lib/gcc/avr32/4.4.7/../../../../avr32/lib/ucr3fp\libc.a(lib_a-freer.o)
 .debug_aranges
                0x00000000       0x28 c:/program files (x86)/atmel/atmel toolchain/avr32 gcc/native/3.4.2.1002/avr32-gnu-toolchain/bin/../lib/gcc/avr32/4.4.7/../../../../avr32/lib/ucr3fp\libc.a(lib_a-freer.o)
 .debug_ranges  0x00000000       0x20 c:/program files (x86)/atmel/atmel toolchain/avr32 gcc/native/3.4.2.1002/avr32-gnu-toolchain/bin/../lib/gcc/avr32/4.4.7/../../../../avr32/lib/ucr3fp\libc.a(lib_a-freer.o)
 .debug_str     0x00000000      0x5e7 c:/program files (x86)/atmel/atmel toolchain/avr32 gcc/native/3.4.2.1002/avr32-gnu-toolchain/bin/../lib/gcc/avr32/4.4.7/../../../../avr32/lib/ucr3fp\libc.a(lib_a-freer.o)
 .comment       0x00000000       0x31 c:/program files (x86)/atmel/atmel toolchain/avr32 gcc/native/3.4.2.1002/avr32-gnu-toolchain/bin/../lib/gcc/avr32/4.4.7/../../../../avr32/lib/ucr3fp\libc.a(lib_a-freer.o)
 .text          0x00000000        0x0 c:/program files (x86)/atmel/atmel toolchain/avr32 gcc/native/3.4.2.1002/avr32-gnu-toolchain/bin/../lib/gcc/avr32/4.4.7/../../../../avr32/lib/ucr3fp\libc.a(lib_a-lseekr.o)
 .data          0x00000000        0x0 c:/program files (x86)/atmel/atmel toolchain/avr32 gcc/native/3.4.2.1002/avr32-gnu-toolchain/bin/../lib/gcc/avr32/4.4.7/../../../../avr32/lib/ucr3fp\libc.a(lib_a-lseekr.o)
 .bss           0x00000000        0x0 c:/program files (x86)/atmel/atmel toolchain/avr32 gcc/native/3.4.2.1002/avr32-gnu-toolchain/bin/../lib/gcc/avr32/4.4.7/../../../../avr32/lib/ucr3fp\libc.a(lib_a-lseekr.o)
 .debug_abbrev  0x00000000      0x17f c:/program files (x86)/atmel/atmel toolchain/avr32 gcc/native/3.4.2.1002/avr32-gnu-toolchain/bin/../lib/gcc/avr32/4.4.7/../../../../avr32/lib/ucr3fp\libc.a(lib_a-lseekr.o)
 .debug_info    0x00000000      0x8fb c:/program files (x86)/atmel/atmel toolchain/avr32 gcc/native/3.4.2.1002/avr32-gnu-toolchain/bin/../lib/gcc/avr32/4.4.7/../../../../avr32/lib/ucr3fp\libc.a(lib_a-lseekr.o)
 .debug_line    0x00000000      0x25c c:/program files (x86)/atmel/atmel toolchain/avr32 gcc/native/3.4.2.1002/avr32-gnu-toolchain/bin/../lib/gcc/avr32/4.4.7/../../../../avr32/lib/ucr3fp\libc.a(lib_a-lseekr.o)
 .text._lseek_r
                0x00000000       0x2c c:/program files (x86)/atmel/atmel toolchain/avr32 gcc/native/3.4.2.1002/avr32-gnu-toolchain/bin/../lib/gcc/avr32/4.4.7/../../../../avr32/lib/ucr3fp\libc.a(lib_a-lseekr.o)
 .debug_frame   0x00000000       0x34 c:/program files (x86)/atmel/atmel toolchain/avr32 gcc/native/3.4.2.1002/avr32-gnu-toolchain/bin/../lib/gcc/avr32/4.4.7/../../../../avr32/lib/ucr3fp\libc.a(lib_a-lseekr.o)
 .debug_loc     0x00000000       0x94 c:/program files (x86)/atmel/atmel toolchain/avr32 gcc/native/3.4.2.1002/avr32-gnu-toolchain/bin/../lib/gcc/avr32/4.4.7/../../../../avr32/lib/ucr3fp\libc.a(lib_a-lseekr.o)
 .debug_pubnames
                0x00000000       0x1f c:/program files (x86)/atmel/atmel toolchain/avr32 gcc/native/3.4.2.1002/avr32-gnu-toolchain/bin/../lib/gcc/avr32/4.4.7/../../../../avr32/lib/ucr3fp\libc.a(lib_a-lseekr.o)
 .debug_aranges
                0x00000000       0x20 c:/program files (x86)/atmel/atmel toolchain/avr32 gcc/native/3.4.2.1002/avr32-gnu-toolchain/bin/../lib/gcc/avr32/4.4.7/../../../../avr32/lib/ucr3fp\libc.a(lib_a-lseekr.o)
 .debug_ranges  0x00000000       0x18 c:/program files (x86)/atmel/atmel toolchain/avr32 gcc/native/3.4.2.1002/avr32-gnu-toolchain/bin/../lib/gcc/avr32/4.4.7/../../../../avr32/lib/ucr3fp\libc.a(lib_a-lseekr.o)
 .debug_str     0x00000000      0x4b1 c:/program files (x86)/atmel/atmel toolchain/avr32 gcc/native/3.4.2.1002/avr32-gnu-toolchain/bin/../lib/gcc/avr32/4.4.7/../../../../avr32/lib/ucr3fp\libc.a(lib_a-lseekr.o)
 .comment       0x00000000       0x31 c:/program files (x86)/atmel/atmel toolchain/avr32 gcc/native/3.4.2.1002/avr32-gnu-toolchain/bin/../lib/gcc/avr32/4.4.7/../../../../avr32/lib/ucr3fp\libc.a(lib_a-lseekr.o)
 .text          0x00000000        0x0 c:/program files (x86)/atmel/atmel toolchain/avr32 gcc/native/3.4.2.1002/avr32-gnu-toolchain/bin/../lib/gcc/avr32/4.4.7/../../../../avr32/lib/ucr3fp\libc.a(lib_a-readr.o)
 .data          0x00000000        0x0 c:/program files (x86)/atmel/atmel toolchain/avr32 gcc/native/3.4.2.1002/avr32-gnu-toolchain/bin/../lib/gcc/avr32/4.4.7/../../../../avr32/lib/ucr3fp\libc.a(lib_a-readr.o)
 .bss           0x00000000        0x0 c:/program files (x86)/atmel/atmel toolchain/avr32 gcc/native/3.4.2.1002/avr32-gnu-toolchain/bin/../lib/gcc/avr32/4.4.7/../../../../avr32/lib/ucr3fp\libc.a(lib_a-readr.o)
 .debug_abbrev  0x00000000      0x170 c:/program files (x86)/atmel/atmel toolchain/avr32 gcc/native/3.4.2.1002/avr32-gnu-toolchain/bin/../lib/gcc/avr32/4.4.7/../../../../avr32/lib/ucr3fp\libc.a(lib_a-readr.o)
 .debug_info    0x00000000      0x906 c:/program files (x86)/atmel/atmel toolchain/avr32 gcc/native/3.4.2.1002/avr32-gnu-toolchain/bin/../lib/gcc/avr32/4.4.7/../../../../avr32/lib/ucr3fp\libc.a(lib_a-readr.o)
 .debug_line    0x00000000      0x25b c:/program files (x86)/atmel/atmel toolchain/avr32 gcc/native/3.4.2.1002/avr32-gnu-toolchain/bin/../lib/gcc/avr32/4.4.7/../../../../avr32/lib/ucr3fp\libc.a(lib_a-readr.o)
 .text._read_r  0x00000000       0x2c c:/program files (x86)/atmel/atmel toolchain/avr32 gcc/native/3.4.2.1002/avr32-gnu-toolchain/bin/../lib/gcc/avr32/4.4.7/../../../../avr32/lib/ucr3fp\libc.a(lib_a-readr.o)
 .debug_frame   0x00000000       0x34 c:/program files (x86)/atmel/atmel toolchain/avr32 gcc/native/3.4.2.1002/avr32-gnu-toolchain/bin/../lib/gcc/avr32/4.4.7/../../../../avr32/lib/ucr3fp\libc.a(lib_a-readr.o)
 .debug_loc     0x00000000       0x94 c:/program files (x86)/atmel/atmel toolchain/avr32 gcc/native/3.4.2.1002/avr32-gnu-toolchain/bin/../lib/gcc/avr32/4.4.7/../../../../avr32/lib/ucr3fp\libc.a(lib_a-readr.o)
 .debug_pubnames
                0x00000000       0x1e c:/program files (x86)/atmel/atmel toolchain/avr32 gcc/native/3.4.2.1002/avr32-gnu-toolchain/bin/../lib/gcc/avr32/4.4.7/../../../../avr32/lib/ucr3fp\libc.a(lib_a-readr.o)
 .debug_aranges
                0x00000000       0x20 c:/program files (x86)/atmel/atmel toolchain/avr32 gcc/native/3.4.2.1002/avr32-gnu-toolchain/bin/../lib/gcc/avr32/4.4.7/../../../../avr32/lib/ucr3fp\libc.a(lib_a-readr.o)
 .debug_ranges  0x00000000       0x18 c:/program files (x86)/atmel/atmel toolchain/avr32 gcc/native/3.4.2.1002/avr32-gnu-toolchain/bin/../lib/gcc/avr32/4.4.7/../../../../avr32/lib/ucr3fp\libc.a(lib_a-readr.o)
 .debug_str     0x00000000      0x4b1 c:/program files (x86)/atmel/atmel toolchain/avr32 gcc/native/3.4.2.1002/avr32-gnu-toolchain/bin/../lib/gcc/avr32/4.4.7/../../../../avr32/lib/ucr3fp\libc.a(lib_a-readr.o)
 .comment       0x00000000       0x31 c:/program files (x86)/atmel/atmel toolchain/avr32 gcc/native/3.4.2.1002/avr32-gnu-toolchain/bin/../lib/gcc/avr32/4.4.7/../../../../avr32/lib/ucr3fp\libc.a(lib_a-readr.o)
 .text          0x00000000        0x0 c:/program files (x86)/atmel/atmel toolchain/avr32 gcc/native/3.4.2.1002/avr32-gnu-toolchain/bin/../lib/gcc/avr32/4.4.7/../../../../avr32/lib/ucr3fp\libc.a(lib_a-reent.o)
 .data          0x00000000        0x0 c:/program files (x86)/atmel/atmel toolchain/avr32 gcc/native/3.4.2.1002/avr32-gnu-toolchain/bin/../lib/gcc/avr32/4.4.7/../../../../avr32/lib/ucr3fp\libc.a(lib_a-reent.o)
 .bss           0x00000000        0x0 c:/program files (x86)/atmel/atmel toolchain/avr32 gcc/native/3.4.2.1002/avr32-gnu-toolchain/bin/../lib/gcc/avr32/4.4.7/../../../../avr32/lib/ucr3fp\libc.a(lib_a-reent.o)
 .debug_abbrev  0x00000000      0x1e6 c:/program files (x86)/atmel/atmel toolchain/avr32 gcc/native/3.4.2.1002/avr32-gnu-toolchain/bin/../lib/gcc/avr32/4.4.7/../../../../avr32/lib/ucr3fp\libc.a(lib_a-reent.o)
 .debug_info    0x00000000      0x973 c:/program files (x86)/atmel/atmel toolchain/avr32 gcc/native/3.4.2.1002/avr32-gnu-toolchain/bin/../lib/gcc/avr32/4.4.7/../../../../avr32/lib/ucr3fp\libc.a(lib_a-reent.o)
 .debug_line    0x00000000      0x2e7 c:/program files (x86)/atmel/atmel toolchain/avr32 gcc/native/3.4.2.1002/avr32-gnu-toolchain/bin/../lib/gcc/avr32/4.4.7/../../../../avr32/lib/ucr3fp\libc.a(lib_a-reent.o)
 .text._wrapup_reent
                0x00000000       0x3c c:/program files (x86)/atmel/atmel toolchain/avr32 gcc/native/3.4.2.1002/avr32-gnu-toolchain/bin/../lib/gcc/avr32/4.4.7/../../../../avr32/lib/ucr3fp\libc.a(lib_a-reent.o)
 .text.cleanup_glue
                0x00000000       0x24 c:/program files (x86)/atmel/atmel toolchain/avr32 gcc/native/3.4.2.1002/avr32-gnu-toolchain/bin/../lib/gcc/avr32/4.4.7/../../../../avr32/lib/ucr3fp\libc.a(lib_a-reent.o)
 .text._reclaim_reent
                0x00000000       0xd4 c:/program files (x86)/atmel/atmel toolchain/avr32 gcc/native/3.4.2.1002/avr32-gnu-toolchain/bin/../lib/gcc/avr32/4.4.7/../../../../avr32/lib/ucr3fp\libc.a(lib_a-reent.o)
 .debug_frame   0x00000000       0x80 c:/program files (x86)/atmel/atmel toolchain/avr32 gcc/native/3.4.2.1002/avr32-gnu-toolchain/bin/../lib/gcc/avr32/4.4.7/../../../../avr32/lib/ucr3fp\libc.a(lib_a-reent.o)
 .debug_loc     0x00000000      0x10a c:/program files (x86)/atmel/atmel toolchain/avr32 gcc/native/3.4.2.1002/avr32-gnu-toolchain/bin/../lib/gcc/avr32/4.4.7/../../../../avr32/lib/ucr3fp\libc.a(lib_a-reent.o)
 .debug_pubnames
                0x00000000       0x52 c:/program files (x86)/atmel/atmel toolchain/avr32 gcc/native/3.4.2.1002/avr32-gnu-toolchain/bin/../lib/gcc/avr32/4.4.7/../../../../avr32/lib/ucr3fp\libc.a(lib_a-reent.o)
 .debug_aranges
                0x00000000       0x30 c:/program files (x86)/atmel/atmel toolchain/avr32 gcc/native/3.4.2.1002/avr32-gnu-toolchain/bin/../lib/gcc/avr32/4.4.7/../../../../avr32/lib/ucr3fp\libc.a(lib_a-reent.o)
 .debug_ranges  0x00000000       0x28 c:/program files (x86)/atmel/atmel toolchain/avr32 gcc/native/3.4.2.1002/avr32-gnu-toolchain/bin/../lib/gcc/avr32/4.4.7/../../../../avr32/lib/ucr3fp\libc.a(lib_a-reent.o)
 .debug_str     0x00000000      0x4e4 c:/program files (x86)/atmel/atmel toolchain/avr32 gcc/native/3.4.2.1002/avr32-gnu-toolchain/bin/../lib/gcc/avr32/4.4.7/../../../../avr32/lib/ucr3fp\libc.a(lib_a-reent.o)
 .comment       0x00000000       0x31 c:/program files (x86)/atmel/atmel toolchain/avr32 gcc/native/3.4.2.1002/avr32-gnu-toolchain/bin/../lib/gcc/avr32/4.4.7/../../../../avr32/lib/ucr3fp\libc.a(lib_a-reent.o)
 COMMON         0x00000000        0x4 c:/program files (x86)/atmel/atmel toolchain/avr32 gcc/native/3.4.2.1002/avr32-gnu-toolchain/bin/../lib/gcc/avr32/4.4.7/../../../../avr32/lib/ucr3fp\libc.a(lib_a-reent.o)

Memory Configuration

Name             Origin             Length             Attributes
FLASH            0x80000000         0x00080000         axrl !w
CPUSRAM          0x00000004         0x0000fffc         axw !rl
USERPAGE         0x80800000         0x00000200
FACTORYPAGE      0x80800200         0x00000200
FLASHVAULT_FLASH_SIZE 0x80800400         0x00000008         r
FLASHVAULT_RAM_SIZE 0x80800408         0x00000008         r
*default*        0x00000000         0xffffffff

Linker script and memory map

                0x00001000                _stack_size = 0x1000
LOAD Library/communication/mavlink_waypoint_handler.o
LOAD Library/control/adaptive_parameter.o
LOAD Library/control/orca.o
LOAD Library/control/pid_control.o
LOAD Library/control/stabilisation_copter.o
LOAD Library/control/stabilisation_hybrid.o
LOAD Library/hal/analog_monitor.o
LOAD Library/hal/i2c_driver_int.o
LOAD Library/hal/lsm330dlc_driver.o
LOAD Library/hal/time_keeper.o
LOAD Library/sensing/estimator.o
LOAD Library/sensing/neighbor_selection.o
LOAD Library/sensing/position_estimation.o
LOAD Library/sensing/qfilter.o
LOAD Library/util/quick_trig.o
LOAD src/central_data.o
LOAD src/mavlink_actions.o
LOAD src/tasks.o
LOAD Library/communication/ishtar.o
LOAD Library/communication/ishtar_stream.o
LOAD Library/communication/mavlink_stream.o
LOAD Library/communication/onboard_parameters.o
LOAD Library/control/navigation.o
LOAD Library/control/stabilisation.o
LOAD Library/hal/adc_int.o
LOAD Library/hal/ads1274.o
LOAD Library/hal/adxl345_driver.o
LOAD Library/hal/amplifiers.o
LOAD Library/hal/bmp085.o
LOAD Library/hal/compass_hmc5883l.o
LOAD Library/hal/dac_dma.o
LOAD Library/hal/itg3200_driver.o
LOAD Library/hal/led.o
LOAD Library/hal/radar_module_driver.o
LOAD Library/hal/servo_pwm.o
LOAD Library/hal/remote_dsm2.o
LOAD Library/hal/spi_buffered.o
LOAD Library/hal/uart_int.o
LOAD Library/runtime/scheduler.o
LOAD Library/sensing/gps_ublox.o
LOAD Library/sensing/imu.o
LOAD Library/sensing/simulation.o
LOAD Library/util/buffer.o
LOAD Library/util/coord_conventions.o
LOAD Library/util/generator.o
LOAD Library/util/print_util.o
LOAD Library/util/sinus.o
LOAD src/asf/avr32/drivers/adcifa/adcifa.o
LOAD src/asf/avr32/drivers/ast/ast.o
LOAD src/asf/avr32/drivers/dacifb/dacifb.o
LOAD src/asf/avr32/drivers/eic/eic.o
LOAD src/asf/avr32/drivers/flashc/flashc.o
LOAD src/asf/avr32/drivers/gpio/gpio.o
LOAD src/asf/avr32/drivers/intc/exception.o
LOAD src/asf/avr32/drivers/intc/intc.o
LOAD src/asf/avr32/drivers/pdca/pdca.o
LOAD src/asf/avr32/drivers/pevc/pevc.o
LOAD src/asf/avr32/drivers/pm/pm_uc3c.o
LOAD src/asf/avr32/drivers/pm/power_clocks_lib.o
LOAD src/asf/avr32/drivers/pwm/pwm4.o
LOAD src/asf/avr32/drivers/scif/scif_uc3c.o
LOAD src/asf/avr32/drivers/spi/spi.o
LOAD src/asf/avr32/drivers/tc/tc.o
LOAD src/asf/avr32/drivers/twim/twim.o
LOAD src/asf/avr32/drivers/usart/usart.o
LOAD src/asf/avr32/drivers/usbc/usbc_device.o
LOAD src/asf/avr32/services/delay/delay.o
LOAD src/asf/avr32/utils/startup/startup_uc3.o
LOAD src/asf/avr32/utils/startup/trampoline_uc3.o
LOAD src/asf/common/boards/user_board/init.o
LOAD src/asf/common/services/clock/uc3c/osc.o
LOAD src/asf/common/services/clock/uc3c/pll.o
LOAD src/asf/common/services/clock/uc3c/sysclk.o
LOAD src/asf/common/services/sleepmgr/uc3/sleepmgr.o
LOAD src/asf/common/services/spi/uc3_spi/spi_master.o
LOAD src/asf/common/services/usb/class/cdc/device/udi_cdc.o
LOAD src/asf/common/services/usb/class/cdc/device/udi_cdc_desc.o
LOAD src/asf/common/services/usb/udc/udc.o
LOAD src/asf/common/utils/stdio/read.o
LOAD src/asf/common/utils/stdio/stdio_usb/stdio_usb.o
LOAD src/asf/common/utils/stdio/write.o
LOAD src/boardsupport.o
LOAD src/main.o
START GROUP
LOAD c:/program files (x86)/atmel/atmel toolchain/avr32 gcc/native/3.4.2.1002/avr32-gnu-toolchain/bin/../lib/gcc/avr32/4.4.7/../../../../avr32/lib/ucr3fp\libm.a
END GROUP
LOAD c:/program files (x86)/atmel/atmel toolchain/avr32 gcc/native/3.4.2.1002/avr32-gnu-toolchain/bin/../lib/gcc/avr32/4.4.7/ucr3fp\libgcc.a
LOAD c:/program files (x86)/atmel/atmel toolchain/avr32 gcc/native/3.4.2.1002/avr32-gnu-toolchain/bin/../lib/gcc/avr32/4.4.7/../../../../avr32/lib/ucr3fp\libc.a
LOAD c:/program files (x86)/atmel/atmel toolchain/avr32 gcc/native/3.4.2.1002/avr32-gnu-toolchain/bin/../lib/gcc/avr32/4.4.7/ucr3fp\libgcc.a
                0x80000000                PROVIDE (__executable_start, 0x80000000)
                0x80000000                . = 0x80000000

.interp
 *(.interp)

.reset          0x80000000     0x2008
 *(.reset)
 .reset         0x80000000     0x2008 src/asf/avr32/utils/startup/trampoline_uc3.o
                0x80000000                _trampoline

.hash
 *(.hash)

.dynsym
 *(.dynsym)

.dynstr
 *(.dynstr)

.gnu.version
 *(.gnu.version)

.gnu.version_d
 *(.gnu.version_d)

.gnu.version_r
 *(.gnu.version_r)

.rel.init
 *(.rel.init)

.rela.init
 *(.rela.init)

.rel.text
 *(.rel.text .rel.text.* .rel.gnu.linkonce.t.*)

.rela.text
 *(.rela.text .rela.text.* .rela.gnu.linkonce.t.*)

.rel.fini
 *(.rel.fini)

.rela.fini
 *(.rela.fini)

.rel.rodata
 *(.rel.rodata .rel.rodata.* .rel.gnu.linkonce.r.*)

.rela.rodata
 *(.rela.rodata .rela.rodata.* .rela.gnu.linkonce.r.*)

.rel.data.rel.ro
 *(.rel.data.rel.ro*)

.rela.data.rel.ro
 *(.rel.data.rel.ro*)

.rel.data
 *(.rel.data .rel.data.* .rel.gnu.linkonce.d.*)

.rela.data
 *(.rela.data .rela.data.* .rela.gnu.linkonce.d.*)

.rel.tdata
 *(.rel.tdata .rel.tdata.* .rel.gnu.linkonce.td.*)

.rela.tdata
 *(.rela.tdata .rela.tdata.* .rela.gnu.linkonce.td.*)

.rel.tbss
 *(.rel.tbss .rel.tbss.* .rel.gnu.linkonce.tb.*)

.rela.tbss
 *(.rela.tbss .rela.tbss.* .rela.gnu.linkonce.tb.*)

.rel.ctors
 *(.rel.ctors)

.rela.ctors
 *(.rela.ctors)

.rel.dtors
 *(.rel.dtors)

.rela.dtors
 *(.rela.dtors)

.rel.got
 *(.rel.got)

.rela.got       0x80002008        0x0
 *(.rela.got)
 .rela.got      0x80002008        0x0 Library/communication/mavlink_waypoint_handler.o

.rel.bss
 *(.rel.bss .rel.bss.* .rel.gnu.linkonce.b.*)

.rela.bss
 *(.rela.bss .rela.bss.* .rela.gnu.linkonce.b.*)

.rel.plt
 *(.rel.plt)

.rela.plt
 *(.rela.plt)

.init
 *(.init)

.plt
 *(.plt)

.text           0x80002008    0x2f6de
 *(.text .stub .text.* .gnu.linkonce.t.*)
 .text          0x80002008     0x3414 Library/communication/mavlink_waypoint_handler.o
                0x80002fec                init_waypoint_handler
                0x80003084                init_wp
                0x800033aa                init_waypoint_list
                0x800036e8                send_count
                0x800037d6                send_waypoint
                0x80003a78                receive_ack_msg
                0x80003b36                receive_count
                0x80003d26                receive_waypoint
                0x80004060                set_current_wp
                0x80004194                clear_waypoint_list
                0x8000423c                set_mav_mode
                0x80004408                control_time_out_waypoint_msg
                0x80004562                set_waypoint_from_frame
                0x80004b78                wp_hold_init
                0x80004ce4                waypoint_hold_position_handler
                0x80004d62                waypoint_navigation_handler
                0x800051f0                waypoint_critical_handler
 .text          0x8000541c     0x28c0 Library/control/orca.o
                0x80005964                init_orca
                0x80005a08                computeNewVelocity
                0x8000640c                linearProgram1
                0x800068c0                linearProgram2
                0x8000723c                linearProgram3
                0x8000752c                linearProgram4
 .text          0x80007cdc      0x5b4 Library/control/pid_control.o
                0x80007e58                passthroughController
                0x80007edc                integrate
                0x80007f44                initInt
                0x80007f88                resetInt
                0x80007fa2                initDiff
                0x80007fde                differentiate
                0x80008080                pid_update
                0x80008198                pid_update_dt
 .text          0x80008290      0x9d8 Library/control/stabilisation_copter.o
                0x80008558                init_stabilisation_copter
                0x800085b8                cascade_stabilise_copter
                0x80008934                mix_to_servos_diag_quad
                0x80008ae4                mix_to_servos_cross_quad
 .text          0x80008c68      0x1f8 Library/hal/analog_monitor.o
                0x80008c68                init_analog_monitor
                0x80008cb0                trigger_analog_monitor
                0x80008cd4                get_monitored_avg
                0x80008d50                get_battery_rail
                0x80008d94                get_internal_rail
                0x80008dd8                get_6V_analog_rail
                0x80008e1c                get_5V_analog_rail
 .text          0x80008e60      0x568 Library/hal/i2c_driver_int.o
                0x800090e0                init_i2c
                0x800091c4                i2c_reset
                0x80009258                i2c_trigger_request
 .text          0x800093c8      0x100 Library/hal/time_keeper.o
                0x800093c8                init_time_keeper
                0x800093f0                get_time
                0x80009420                get_millis
                0x8000944c                get_micros
                0x80009468                get_time_ticks
                0x80009488                ticks_to_seconds
 .text          0x800094c8     0x41c8 Library/sensing/estimator.o
                0x80009598                e_init
                0x800097c4                init_pos_gps_estimator
                0x80009848                e_kalman_init
                0x800099cc                e_predict
                0x80009cd8                quat_rot
                0x80009e8e                e_kalman_predict
                0x8000ab9c                e_kalman_predict_hf
                0x8000b130                e_kalman_update_position
                0x8000bd3c                e_kalman_update_speed
                0x8000c964                e_kalman_update_position_hf
                0x8000cef0                e_kalman_update_speed_hf
                0x8000d484                estimator_loop
 .text          0x8000d690      0x82c Library/sensing/neighbor_selection.o
                0x8000db00                init_neighbors
                0x8000db5a                read_msg_from_neighbors
 .text          0x8000debc     0x1364 Library/sensing/position_estimation.o
                0x8000e308                init_pos_integration
                0x8000e3c8                init_pos_gps
                0x8000e56e                init_barometer_offset
                0x8000e644                position_reset_home_altitude
                0x8000e810                position_integration
                0x8000eb96                position_correction
 .text          0x8000f220     0x1428 Library/sensing/qfilter.o
                0x8000f7de                qfInit
                0x8000fb30                qfilter
 .text          0x80010648      0x2d8 src/central_data.o
                0x80010718                initialise_central_data
                0x80010880                get_central_data
                0x80010898                get_telemetry_upstream
                0x800108b4                get_telemetry_downstream
                0x800108d0                get_debug_stream
                0x800108ec                get_imu_data
                0x80010904                get_control_inputs_data
 .text          0x80010920     0x4438 src/mavlink_actions.o
                0x800121f4                mavlink_send_heartbeat
                0x80012310                mavlink_send_raw_imu
                0x80012414                mavlink_send_scaled_imu
                0x80012544                mavlink_send_rpy_rates_error
                0x80012594                mavlink_send_rpy_speed_thrust_setpoint
                0x800125e4                mavlink_send_rpy_thrust_setpoint
                0x80012634                mavlink_send_servo_output
                0x8001276c                mavlink_send_attitude_quaternion
                0x800127e8                mavlink_send_attitude
                0x80012870                mavlink_send_global_position
                0x80012a14                mavlink_send_hud
                0x80012b70                mavlink_send_gps_raw
                0x80012d8c                mavlink_send_pressure
                0x80012e78                mavlink_send_radar
                0x80012ee0                mavlink_send_estimator
                0x80012fa8                mavlink_send_kalman_estimator
                0x80013124                mavlink_send_raw_rc_channels
                0x80013220                mavlink_send_scaled_rc_channels
                0x8001350a                mavlink_send_simulation
                0x800138c8                send_rt_stats
                0x80013de0                add_PID_parameters
                0x800142b8                control_waypoint_timeout
                0x8001432e                handle_specific_messages
                0x800146a8                receive_message_long
                0x80014b80                init_mavlink_actions
 .text          0x80014d58     0x11b0 src/tasks.o
                0x800150dc                get_main_taskset
                0x800150f4                run_imu_update
                0x80015140                rc_user_channels
                0x8001533c                set_mav_mode_n_state
                0x800156e4                run_stabilisation
                0x80015b08                gps_task
                0x80015b58                run_estimator
                0x80015b70                run_navigation_task
                0x80015d9c                run_barometer
                0x80015e5c                create_tasks
 .text          0x80015f08      0xe84 Library/communication/mavlink_stream.o
                0x80016868                comm_send_ch
                0x800168ac                mavlink_receive_handler
                0x800168e8                init_mavlink
                0x80016980                flush_mavlink
                0x800169b4                mavlink_protocol_update
                0x80016a08                get_mavlink_taskset
                0x80016a20                suspend_downstream
                0x80016a80                mavlink_receive
                0x80016b48                handle_mavlink_message
 .text          0x80016d8c     0x12a4 Library/communication/onboard_parameters.o
                0x80017464                init_onboard_parameters
                0x80017494                add_parameter_uint8
                0x80017578                add_parameter_uint32
                0x8001765c                add_parameter_int32
                0x80017740                add_parameter_float
                0x80017824                send_all_parameters
                0x80017878                send_all_parameters_now
                0x80017938                send_scheduled_parameters
                0x80017a18                send_parameter
                0x80017b6c                receive_parameter
                0x80017d7a                read_parameters_from_flashc
                0x80017f00                write_parameters_to_flashc
 .text          0x80018030      0xb80 Library/control/navigation.o
                0x80018508                init_nav
                0x80018564                run_navigation
                0x800185b8                set_rel_pos_n_dist2wp
                0x80018640                set_speed_command
                0x8001893c                low_speed_nav
                0x80018b08                high_speed_nav
 .text          0x80018bb0      0x128 Library/control/stabilisation.o
                0x80018c34                stabilise
 .text          0x80018cd8      0x56c Library/hal/adc_int.o
                0x80018ec8                Init_ADCI
                0x80018fb8                clear_adc_sequencer
                0x80018fe4                adc_sequencer_add
                0x800190bc                ADCI_Start_Sampling
                0x8001917c                ADCI_Stop_Sampling
                0x8001919c                ADCI_Sampling_Complete
                0x800191c4                ADCI_get_sample
                0x8001920c                ADCI_get_buffer
                0x80019228                ADCI_get_sampling_status
 .text          0x80019244      0x464 Library/hal/ads1274.o
                0x80019340                get_interrupt_counter
                0x8001935c                processData
                0x80019460                set_DAC_generator_function
                0x80019484                get_sample
                0x800194c0                get_sampling_status
                0x800194dc                Init_ADC
                0x800195c8                ADC_Switch_Clock
                0x80019628                ADC_Switch_Channel
                0x80019640                ADC_Set_Mode
                0x80019652                ADC_Start_Oneshot
                0x8001966c                ADC_Stop_Sampling
                0x80019676                Sampling_Complete
                0x80019680                eic_nmi_handler
 .text          0x800196a8      0x170 Library/hal/adxl345_driver.o
                0x8001972c                init_adxl345_slow
                0x80019770                get_acc_data_slow
 .text          0x80019818      0xa98 Library/hal/bmp085.o
                0x800199e8                bmp085_read_int
                0x80019a30                init_bmp085
                0x80019ae2                init_bmp085_slow
                0x80019c38                get_pressure_data_slow
                0x8001a270                newValidBarometer
 .text          0x8001a2b0       0xb4 Library/hal/compass_hmc5883l.o
                0x8001a2b0                init_hmc5883_slow
                0x8001a2e0                get_compass_data_slow
 .text          0x8001a364      0x3b4 Library/hal/dac_dma.o
                0x8001a458                init_pevc
                0x8001a490                init_gclk
                0x8001a4ea                Init_DAC
                0x8001a5c0                DAC_load_buffer
                0x8001a674                DAC_play
                0x8001a6d0                DAC_pause
                0x8001a6da                DAC_resume
                0x8001a6e4                DAC_is_finished
                0x8001a6f2                DAC_set_value
 .text          0x8001a718       0xfc Library/hal/itg3200_driver.o
                0x8001a79c                init_itg3200_slow
                0x8001a7cc                get_gyro_data_slow
 .text          0x8001a814      0x500 Library/hal/led.o
                0x8001a814                LED_Read_Display
                0x8001a830                LED_Display
                0x8001a8e0                LED_Read_Display_Mask
                0x8001a90c                LED_Display_Mask
                0x8001aa14                LED_Test
                0x8001aa44                LED_Off
                0x8001aafc                LED_On
                0x8001abb8                LED_Toggle
                0x8001ac70                LED_Read_Display_Field
                0x8001aca8                LED_Display_Field
                0x8001ace4                LED_Get_Intensity
                0x8001acfa                LED_Set_Intensity
 .text          0x8001ad14      0x144 Library/hal/radar_module_driver.o
                0x8001ad98                init_radar_modules
                0x8001adba                read_radar
                0x8001ae40                get_radar_main_target
 .text          0x8001ae58      0x258 Library/hal/servo_pwm.o
                0x8001ae58                init_Servos
                0x8001af90                set_servo
                0x8001b04a                set_servos
 .text          0x8001b0b0      0x598 Library/hal/remote_dsm2.o
                0x8001b2e4                rc_init
                0x8001b394                rc_get_channel
                0x8001b3cc                rc_get_channel_neutral
                0x8001b464                rc_center_channel
                0x8001b498                checkReceiver1
                0x8001b578                checkReceiver2
                0x8001b628                rc_check_receivers
 .text          0x8001b648      0xda8 Library/hal/spi_buffered.o
                0x8001b84c                get_spi_in_buffer
                0x8001b87c                spi0_int_handler
                0x8001b898                spi1_int_handler
                0x8001b928                initSPI
                0x8001bab8                enableSPI
                0x8001baec                disableSPI
                0x8001bb20                spiInitDMA
                0x8001bb9c                spiTriggerDMA
                0x8001bc48                setSPIcallBack
                0x8001bc80                pauseSPI
                0x8001bcb4                resumeSPI
                0x8001bcf0                activateReceiveSPI
                0x8001bd24                deactivateReceiveSPI
                0x8001bd58                getTraffic
                0x8001bd8c                readSPI
                0x8001be44                clearSPIReadBuffer
                0x8001be88                writeSPI
                0x8001bf40                SPItransmit
                0x8001c0a4                startSPI
                0x8001c16c                SPITransferFinished
                0x8001c1bc                SPIFlushBuffer
                0x8001c214                SPIBytesAvailable
                0x8001c26c                spi_handler
 .text          0x8001c3f0      0x8f0 Library/hal/uart_int.o
                0x8001c8ec                register_UART_handler
                0x8001c98c                init_UART_int
                0x8001cb1c                uart_int_get_byte
                0x8001cb48                uart_int_bytes_available
                0x8001cb74                uart_int_send_byte
                0x8001cbd4                uart_int_flush
                0x8001cc0c                uart_out_buffer_empty
                0x8001cc3c                get_UART_handle
                0x8001cc6c                register_write_stream
                0x8001ccbc                register_read_stream
 .text          0x8001cce0      0xac0 Library/runtime/scheduler.o
                0x8001cce0                init_scheduler
                0x8001cd5c                register_task
                0x8001cee4                add_task
                0x8001cfa4                sort_taskset_by_period
                0x8001d212                run_scheduler_update
                0x8001d628                get_task_by_id
                0x8001d6ac                get_task_by_index
                0x8001d6f2                change_run_mode
                0x8001d712                change_task_period
                0x8001d74c                suspend_task
                0x8001d77c                run_task_now
 .text          0x8001d7a0     0x29f0 Library/sensing/gps_ublox.o
                0x8001d870                init_gps_ubx
                0x8001db6e                ubx_read
                0x8001eb46                ubx_process_data
                0x8001f638                update_checksum
                0x8001f6b2                endian_lower_bytes_uint16
                0x8001f6ce                endian_higher_bytes_uint16
                0x8001f6ee                ubx_send_header
                0x8001f7d4                ubx_send_cksum
                0x8001f828                ubx_send_message
                0x8001f908                ubx_send_message_CFG_nav_rate
                0x8001fa88                ubx_send_message_nav_settings
                0x8001fb64                ubx_configure_message_rate
                0x8001fc96                configure_gps
                0x8001fd38                gps_update
                0x8001ff4c                newValidGpsMsg
                0x8001ffa4                ubx_GetPosllh
                0x8001ffcc                ubx_GetStatus
                0x8001fff4                ubx_GetSolution
                0x8002001c                ubx_GetVelned
                0x80020044                ubx_GetSVInfo
                0x8002006c                ubx_GetNavSettings
                0x80020094                ubx_GetMsgRate
                0x800200bc                ubx_GetMonRXR
                0x800200e4                ubx_GetTimTP
                0x8002010c                ubx_GetTimVRFY
                0x80020134                ToRad
 .text          0x80020190      0x548 Library/sensing/imu.o
                0x80020214                init_imu
                0x8002036c                imu_get_raw_data
                0x80020450                calibrate_Gyros
                0x800205fc                imu_update
 .text          0x800206d8     0x1a88 Library/sensing/simulation.o
                0x80020db8                init_simulation
                0x80021054                forces_from_servos_diag_quad
                0x800214b4                forces_from_servos_cross_quad
                0x800214ca                simu_update
                0x80022050                simulate_barometer
                0x800220a8                simulate_gps
 .text          0x80022160      0x318 Library/util/buffer.o
                0x80022160                buffer_full
                0x8002218e                buffer_put_lossy
                0x80022228                buffer_put
                0x800222b8                buffer_get
                0x8002231e                buffer_empty
                0x80022348                buffer_bytes_available
                0x80022378                buffer_init
                0x800223a8                buffer_clear
                0x800223d8                make_buffered_stream
                0x80022428                make_buffered_stream_lossy
 .text          0x80022478      0x594 Library/util/coord_conventions.o
                0x800224fc                local_to_global_position
                0x8002266c                global_to_local_position
                0x8002283c                Quat_to_Aero
                0x80022988                get_yaw
 .text          0x80022a0c      0x69c Library/util/print_util.o
                0x80022a90                dbg_print_init
                0x80022ab4                putstring
                0x80022b14                putdigit
                0x80022b7c                putnum
                0x80022c6c                putnum_tight
                0x80022d4e                putfloat
                0x80022e58                print_vector
                0x80022ee4                print_quaternion
                0x80022f54                dbg_print
                0x80022f80                dbg_print_num
                0x80022fb8                dbg_putfloat
                0x80022fec                dbg_print_vector
                0x80023020                dbg_print_quaternion
                0x80023056                dbg_log_value
 .text          0x800230a8      0x938 src/asf/avr32/drivers/adcifa/adcifa.o
                0x800230a8                adcifa_get_calibration_data
                0x8002313c                adcifa_configure
                0x8002327c                adcifa_configure_sequencer
                0x80023674                adcifa_configure_window_monitor
                0x80023788                adcifa_start_sequencer
                0x800237cc                adcifa_check_eoc
                0x80023816                adcifa_check_eos
                0x8002385e                adcifa_get_values_from_sequencer
                0x80023938                adcifa_start_itimer
                0x80023962                adcifa_stop_itimer
                0x8002397c                adcifa_enable_interrupt
                0x8002399e                adcifa_disable_interrupt
                0x800239c0                adcifa_clear_interrupt
 .text          0x800239e0      0x4c0 src/asf/avr32/drivers/ast/ast.o
                0x80023a20                ast_init_calendar
                0x80023a94                ast_init_counter
                0x80023af0                ast_enable
                0x80023b34                ast_set_calendar_value
                0x80023b78                ast_set_counter_value
                0x80023bb8                ast_get_calendar_value
                0x80023bda                ast_get_counter_value
                0x80023bf4                ast_set_alarm0_value
                0x80023c14                ast_set_alarm1_value
                0x80023c34                ast_enable_alarm0
                0x80023c78                ast_disable_alarm0
                0x80023cbc                ast_enable_alarm1
                0x80023d00                ast_disable_alarm1
                0x80023d44                ast_set_periodic0_value
                0x80023d64                ast_set_periodic1_value
                0x80023d84                ast_enable_periodic0
                0x80023dc8                ast_disable_periodic0
                0x80023e10                ast_enable_periodic1
                0x80023e58                ast_disable_periodic1
 .text          0x80023ea0      0x8c0 src/asf/avr32/drivers/dacifb/dacifb.o
                0x80023ffc                dacifb_get_calibration_data
                0x80024092                dacifb_configure
                0x800241e0                dacifb_configure_channel
                0x800245ba                dacifb_start_channel
                0x80024630                dacifb_check_eoc
                0x80024652                dacifb_set_value
                0x800246c2                dacifb_reload_timer
 .text          0x80024760      0x52c src/asf/avr32/drivers/eic/eic.o
                0x80024798                eic_init
                0x80024a16                eic_enable_lines
                0x80024a36                eic_enable_line
                0x80024a5e                eic_disable_lines
                0x80024a7e                eic_disable_line
                0x80024aa6                eic_is_line_enabled
                0x80024ad6                eic_enable_interrupt_lines
                0x80024af6                eic_enable_interrupt_line
                0x80024b1e                eic_disable_interrupt_lines
                0x80024b5c                eic_disable_interrupt_line
                0x80024ba4                eic_is_interrupt_line_enabled
                0x80024bd4                eic_clear_interrupt_lines
                0x80024c14                eic_clear_interrupt_line
                0x80024c5c                eic_is_interrupt_line_pending
 .text          0x80024c8c     0x1bbc src/asf/avr32/drivers/flashc/flashc.o
                0x80024c8c                flashc_get_flash_size
                0x80024cb4                flashc_get_page_count
                0x80024cd0                flashc_get_page_count_per_region
                0x80024cec                flashc_get_page_region
                0x80024d28                flashc_get_region_first_page_number
                0x80024d54                flashc_get_wait_state
                0x80024d6c                flashc_set_wait_state
                0x80024db2                flashc_set_bus_freq
                0x80024dec                flashc_is_ready_int_enabled
                0x80024e04                flashc_enable_ready_int
                0x80024e42                flashc_is_lock_error_int_enabled
                0x80024e5c                flashc_enable_lock_error_int
                0x80024e9a                flashc_is_prog_error_int_enabled
                0x80024eb4                flashc_enable_prog_error_int
                0x80024ef2                flashc_is_ready
                0x80024f0a                flashc_default_wait_until_ready
                0x80024f42                flashc_is_lock_error
                0x80024f64                flashc_is_programming_error
                0x80024f88                flashc_get_command
                0x80024f9e                flashc_get_page_number
                0x80024fba                flashc_issue_command
                0x80025044                flashc_no_operation
                0x80025060                flashc_erase_all
                0x8002507c                flashc_is_security_bit_active
                0x80025096                flashc_activate_security_bit
                0x800250b0                flashc_get_bootloader_protected_size
                0x800250f4                flashc_set_bootloader_protected_size
                0x80025190                flashc_is_external_privileged_fetch_locked
                0x800251b4                flashc_lock_external_privileged_fetch
                0x800251e4                flashc_is_page_region_locked
                0x80025214                flashc_is_region_locked
                0x80025246                flashc_lock_page_region
                0x80025284                flashc_lock_region
                0x800252bc                flashc_lock_all_regions
                0x80025324                flashc_read_gp_fuse_bit
                0x80025388                flashc_read_gp_fuse_bitfield
                0x80025458                flashc_read_gp_fuse_byte
                0x800254bc                flashc_read_all_gp_fuses
                0x800254f0                flashc_erase_gp_fuse_bit
                0x8002553c                flashc_erase_gp_fuse_bitfield
                0x80025654                flashc_erase_gp_fuse_byte
                0x80025728                flashc_erase_all_gp_fuses
                0x80025770                flashc_write_gp_fuse_bit
                0x800257ac                flashc_write_gp_fuse_bitfield
                0x8002587c                flashc_write_gp_fuse_byte
                0x800258b8                flashc_write_all_gp_fuses
                0x8002593c                flashc_set_gp_fuse_bit
                0x80025980                flashc_set_gp_fuse_bitfield
                0x80025a50                flashc_set_gp_fuse_byte
                0x80025acc                flashc_set_all_gp_fuses
                0x80025b38                flashc_clear_page_buffer
                0x80025b54                flashc_is_page_erased
                0x80025b6e                flashc_quick_page_read
                0x80025b9c                flashc_erase_page
                0x80025c08                flashc_erase_all_pages
                0x80025c90                flashc_write_page
                0x80025cb4                flashc_quick_user_page_read
                0x80025cd8                flashc_erase_user_page
                0x80025d14                flashc_write_user_page
                0x80025d30                flashc_memset8
                0x80025d84                flashc_memset16
                0x80025dd4                flashc_memset32
                0x80025e34                flashc_memset64
                0x80026254                flashc_memcpy
                0x800267e0                flashc_set_flash_waitstate_and_readmode
 .text          0x80026848     0x10d0 src/asf/avr32/drivers/gpio/gpio.o
                0x80026848                gpio_enable_module
                0x800268c0                gpio_enable_module_pin
                0x80026b60                gpio_enable_gpio
                0x80026bb4                gpio_enable_gpio_pin
                0x80026c04                gpio_enable_pin_pull_up
                0x80026c56                gpio_disable_pin_pull_up
                0x80026c90                gpio_enable_pin_pull_down
                0x80026ce2                gpio_disable_pin_pull_down
                0x80026d1c                gpio_enable_pin_buskeeper
                0x80026d6e                gpio_disable_pin_buskeeper
                0x80026dc0                gpio_configure_pin
                0x8002709a                gpio_configure_group
                0x80027262                gpio_get_pin_value
                0x8002729c                gpio_get_gpio_pin_output_value
                0x800272d6                gpio_get_gpio_open_drain_pin_output_value
                0x80027312                gpio_set_gpio_pin
                0x8002737a                gpio_set_pin_high
                0x800273b4                gpio_set_group_high
                0x800273e4                gpio_set_pin_low
                0x8002741e                gpio_clr_gpio_pin
                0x80027486                gpio_set_group_low
                0x800274b6                gpio_tgl_gpio_pin
                0x8002751e                gpio_toggle_pin
                0x80027558                gpio_toggle_group
                0x80027588                gpio_set_gpio_open_drain_pin
                0x800275d8                gpio_clr_gpio_open_drain_pin
                0x80027640                gpio_tgl_gpio_open_drain_pin
                0x800276a8                gpio_enable_pin_glitch_filter
                0x800276e2                gpio_disable_pin_glitch_filter
                0x800277f0                gpio_enable_pin_interrupt
                0x80027868                gpio_disable_pin_interrupt
                0x800278a2                gpio_get_pin_interrupt_flag
                0x800278de                gpio_clear_pin_interrupt_flag
 .text          0x80027918      0x194 src/asf/avr32/drivers/intc/intc.o
                0x80027920                _get_interrupt_handler
                0x800279b0                INTC_init_interrupts
                0x80027a40                INTC_register_interrupt
 .text          0x80027aac      0x5f4 src/asf/avr32/drivers/pdca/pdca.o
                0x80027acc                pdca_get_handler
                0x80027b00                pdca_init_channel
                0x80027bd4                pdca_get_channel_status
                0x80027c08                pdca_disable
                0x80027c38                pdca_enable
                0x80027c68                pdca_get_load_size
                0x80027c98                pdca_load_channel
                0x80027d18                pdca_get_reload_size
                0x80027d48                pdca_reload_channel
                0x80027dc8                pdca_set_peripheral_select
                0x80027e00                pdca_set_transfer_size
                0x80027e44                pdca_disable_event_trigger
                0x80027e7c                pdca_enable_event_trigger
                0x80027eb4                pdca_disable_interrupt_transfer_error
                0x80027f18                pdca_enable_interrupt_transfer_error
                0x80027f48                pdca_disable_interrupt_transfer_complete
                0x80027fac                pdca_enable_interrupt_transfer_complete
                0x80027fdc                pdca_disable_interrupt_reload_counter_zero
                0x80028040                pdca_enable_interrupt_reload_counter_zero
                0x80028070                pdca_get_transfer_status
 .text          0x800280a0      0x688 src/asf/avr32/drivers/pevc/pevc.o
                0x800280a0                pevc_channel_configure
                0x8002819e                pevc_igfd_set
                0x800281c4                pevc_channels_enable
                0x80028204                pevc_channels_disable
                0x80028244                pevc_get_channel_status
                0x800282ae                pevc_get_channel_state
                0x80028318                pevc_channel_sev_enable
                0x8002834a                pevc_channels_trigger_sev
                0x8002838e                pevc_channel_sev_disable
                0x800283c0                pevc_channels_enable_trigger_interrupt
                0x80028404                pevc_channels_disable_trigger_interrupt
                0x80028448                pevc_channel_is_trigger_interrupt_enabled
                0x800284b6                pevc_channel_is_trigger_interrupt_raised
                0x80028520                pevc_channel_clear_trigger_interrupt
                0x80028572                pevc_channels_enable_overrun_interrupt
                0x800285b6                pevc_channels_disable_overrun_interrupt
                0x800285fa                pevc_channel_is_overrun_interrupt_enabled
                0x80028668                pevc_channel_is_overrun_interrupt_raised
                0x800286d6                pevc_channel_clear_overrun_interrupt
 .text          0x80028728      0xfe0 src/asf/avr32/drivers/scif/scif_uc3c.o
                0x8002878e                scif_read_gplp
                0x800287b0                scif_write_gplp
                0x800287ea                scif_start_osc
                0x80028924                scif_is_osc_ready
                0x8002895e                scif_stop_osc
                0x800289dc                scif_configure_osc_crystalmode
                0x80028b38                scif_configure_osc_extmode
                0x80028bd8                scif_enable_osc
                0x80028cc4                scif_enable_extosc
                0x80028d64                scif_pll_setup
                0x80028ec0                scif_pll_enable
                0x80028f60                scif_pll_disable
                0x80029000                scif_wait_for_pll_locked
                0x80029038                scif_start_osc32
                0x80029100                scif_stop_osc32
                0x80029168                scif_start_rc8M
                0x800291cc                scif_stop_rc8M
                0x80029230                scif_start_rc120M
                0x8002927c                scif_stop_rc120M
                0x800292e0                scif_start_gclk
                0x80029350                scif_stop_gclk
                0x800293ba                scif_gc_setup
                0x80029480                scif_gc_enable
                0x800294c8                scif_bod18_enable_irq
                0x800294da                scif_bod18_disable_irq
                0x8002952c                scif_bod18_clear_irq
                0x8002953e                scif_bod18_get_irq_status
                0x80029556                scif_bod18_get_irq_enable_bit
                0x8002956e                scif_bod18_get_level
                0x80029584                scif_bod33_enable_irq
                0x80029598                scif_bod33_disable_irq
                0x800295ec                scif_bod33_clear_irq
                0x80029600                scif_bod33_get_irq_status
                0x80029618                scif_bod33_get_irq_enable_bit
                0x80029630                scif_bod33_get_level
                0x80029646                scif_bod50_enable_irq
                0x8002965a                scif_bod50_disable_irq
                0x800296ac                scif_bod50_clear_irq
                0x800296c0                scif_bod50_get_irq_status
                0x800296d8                scif_bod50_get_irq_enable_bit
                0x800296f0                scif_bod50_get_level
 .text          0x80029708      0x730 src/asf/avr32/drivers/spi/spi.o
                0x80029708                getBaudDiv
                0x8002975c                spi_initSlave
                0x800297e6                spi_initTest
                0x80029818                spi_initMaster
                0x800298ac                spi_selectionMode
                0x80029940                spi_selectChip
                0x800299d8                spi_unselectChip
                0x80029a42                spi_setupChipReg
                0x80029bcc                spi_enable
                0x80029be6                spi_disable
                0x80029c00                spi_is_enabled
                0x80029c20                spi_writeRegisterEmptyCheck
                0x80029c40                spi_write
                0x80029c98                spi_variableSlaveWrite
                0x80029d30                spi_writeEndCheck
                0x80029d50                spi_readRegisterFullCheck
                0x80029d70                spi_read
                0x80029dce                spi_getStatus
 .text          0x80029e38      0xeb0 src/asf/avr32/drivers/twim/twim.o
                0x8002a168                twim_set_speed
                0x8002a210                twim_master_init
                0x8002a31c                twim_disable_interrupt
                0x8002a364                twim_probe
                0x8002a3a0                twim_read_packet
                0x8002a548                twim_read
                0x8002a684                twim_write_packet
                0x8002a854                twim_write
                0x8002a95c                twim_chained_transfer
                0x8002acb4                twim_status
 .text          0x8002ace8     0x1154 src/asf/avr32/drivers/usart/usart.o
                0x8002af7c                usart_reset
                0x8002aff0                usart_init_rs232
                0x8002b15c                usart_init_rs232_tx_only
                0x8002b2d8                usart_init_hw_handshaking
                0x8002b32c                usart_init_modem
                0x8002b384                usart_init_sync_master
                0x8002b508                usart_init_sync_slave
                0x8002b678                usart_init_rs485
                0x8002b6cc                usart_init_IrDA
                0x8002b73c                usart_init_iso7816
                0x8002b858                usart_init_lin_master
                0x8002b8bc                usart_init_lin_slave
                0x8002b920                usart_init_spi_master
                0x8002ba3c                usart_init_spi_slave
                0x8002bb44                usart_spi_selectChip
                0x8002bb64                usart_spi_unselectChip
                0x8002bbc0                usart_send_address
                0x8002bc30                usart_write_char
                0x8002bc74                usart_putchar
                0x8002bccc                usart_read_char
                0x8002bd1e                usart_getchar
                0x8002bd68                usart_write_line
                0x8002bdb8                usart_get_echo_line
 .text          0x8002be3c      0x17c src/asf/avr32/services/delay/delay.o
                0x8002be3c                delay_init
                0x8002be60                delay_ms
 .text._stext   0x8002bfb8       0x4c src/asf/avr32/utils/startup/startup_uc3.o
                                 0x50 (size before relaxing)
                0x8002bfb8                _stext
 .text          0x8002c004       0x24 src/asf/common/boards/user_board/init.o
                0x8002c004                board_init
 .text          0x8002c028      0x274 src/asf/common/services/clock/uc3c/osc.o
                0x8002c060                osc_priv_enable_osc0
                0x8002c09c                osc_priv_disable_osc0
                0x8002c0d4                osc_priv_enable_osc32
                0x8002c110                osc_priv_disable_osc32
                0x8002c14c                osc_priv_enable_rc8m
                0x8002c1cc                osc_priv_disable_rc8m
                0x8002c224                osc_priv_enable_rc120m
                0x8002c260                osc_priv_disable_rc120m
 .text          0x8002c29c      0x12c src/asf/common/services/clock/uc3c/pll.o
                0x8002c2d4                pll_config_write
                0x8002c328                pll_enable
                0x8002c37c                pll_disable
 .text          0x8002c3c8      0x7a4 src/asf/common/services/clock/uc3c/sysclk.o
                0x8002c828                sysclk_priv_enable_module
                0x8002c8a8                sysclk_priv_disable_module
                0x8002c92c                sysclk_set_prescalers
                0x8002ca34                sysclk_set_source
                0x8002ca78                sysclk_enable_usb
                0x8002cadc                sysclk_disable_usb
                0x8002caf4                sysclk_init
 .text          0x8002cb6c      0x768 src/asf/common/services/spi/uc3_spi/spi_master.o
                0x8002d0a0                spi_master_setup_device
                0x8002d148                spi_read_packet
                0x8002d22c                spi_write_packet
 .text          0x8002d2d4      0x3ac src/boardsupport.o
                0x8002d49c                initialise_board
 .text          0x8002d680      0x2b0 src/main.o
                0x8002d76a                initialisation
                0x8002d8fc                main
 .text.cos      0x8002d930       0x8c c:/program files (x86)/atmel/atmel toolchain/avr32 gcc/native/3.4.2.1002/avr32-gnu-toolchain/bin/../lib/gcc/avr32/4.4.7/../../../../avr32/lib/ucr3fp\libm.a(lib_a-s_cos.o)
                                 0x9c (size before relaxing)
                0x8002d930                cos
 .text.sin      0x8002d9bc       0x90 c:/program files (x86)/atmel/atmel toolchain/avr32 gcc/native/3.4.2.1002/avr32-gnu-toolchain/bin/../lib/gcc/avr32/4.4.7/../../../../avr32/lib/ucr3fp\libm.a(lib_a-s_sin.o)
                                 0xa0 (size before relaxing)
                0x8002d9bc                sin
 .text.asin     0x8002da4c       0x94 c:/program files (x86)/atmel/atmel toolchain/avr32 gcc/native/3.4.2.1002/avr32-gnu-toolchain/bin/../lib/gcc/avr32/4.4.7/../../../../avr32/lib/ucr3fp\libm.a(lib_a-w_asin.o)
                                 0xb0 (size before relaxing)
                0x8002da4c                asin
 .text.atan2    0x8002dae0        0x8 c:/program files (x86)/atmel/atmel toolchain/avr32 gcc/native/3.4.2.1002/avr32-gnu-toolchain/bin/../lib/gcc/avr32/4.4.7/../../../../avr32/lib/ucr3fp\libm.a(lib_a-w_atan2.o)
                                  0xc (size before relaxing)
                0x8002dae0                atan2
 .text.pow      0x8002dae8      0x2b8 c:/program files (x86)/atmel/atmel toolchain/avr32 gcc/native/3.4.2.1002/avr32-gnu-toolchain/bin/../lib/gcc/avr32/4.4.7/../../../../avr32/lib/ucr3fp\libm.a(lib_a-w_pow.o)
                                0x300 (size before relaxing)
                0x8002dae8                pow
 .text.sqrt     0x8002dda0       0x9c c:/program files (x86)/atmel/atmel toolchain/avr32 gcc/native/3.4.2.1002/avr32-gnu-toolchain/bin/../lib/gcc/avr32/4.4.7/../../../../avr32/lib/ucr3fp\libm.a(lib_a-w_sqrt.o)
                                 0xb4 (size before relaxing)
                0x8002dda0                sqrt
 .text.__ieee754_asin
                0x8002de3c      0x4f0 c:/program files (x86)/atmel/atmel toolchain/avr32 gcc/native/3.4.2.1002/avr32-gnu-toolchain/bin/../lib/gcc/avr32/4.4.7/../../../../avr32/lib/ucr3fp\libm.a(lib_a-e_asin.o)
                                0x50c (size before relaxing)
                0x8002de3c                __ieee754_asin
 .text.__ieee754_atan2
                0x8002e32c      0x22c c:/program files (x86)/atmel/atmel toolchain/avr32 gcc/native/3.4.2.1002/avr32-gnu-toolchain/bin/../lib/gcc/avr32/4.4.7/../../../../avr32/lib/ucr3fp\libm.a(lib_a-e_atan2.o)
                                0x240 (size before relaxing)
                0x8002e32c                __ieee754_atan2
 .text.__ieee754_pow
                0x8002e558      0xaa4 c:/program files (x86)/atmel/atmel toolchain/avr32 gcc/native/3.4.2.1002/avr32-gnu-toolchain/bin/../lib/gcc/avr32/4.4.7/../../../../avr32/lib/ucr3fp\libm.a(lib_a-e_pow.o)
                                0xaf0 (size before relaxing)
                0x8002e558                __ieee754_pow
 .text.__ieee754_rem_pio2
                0x8002effc      0x470 c:/program files (x86)/atmel/atmel toolchain/avr32 gcc/native/3.4.2.1002/avr32-gnu-toolchain/bin/../lib/gcc/avr32/4.4.7/../../../../avr32/lib/ucr3fp\libm.a(lib_a-e_rem_pio2.o)
                                0x4a0 (size before relaxing)
                0x8002effc                __ieee754_rem_pio2
 .text.__ieee754_sqrt
                0x8002f46c      0x18c c:/program files (x86)/atmel/atmel toolchain/avr32 gcc/native/3.4.2.1002/avr32-gnu-toolchain/bin/../lib/gcc/avr32/4.4.7/../../../../avr32/lib/ucr3fp\libm.a(lib_a-e_sqrt.o)
                                0x19c (size before relaxing)
                0x8002f46c                __ieee754_sqrt
 .text.__kernel_cos
                0x8002f5f8      0x1e8 c:/program files (x86)/atmel/atmel toolchain/avr32 gcc/native/3.4.2.1002/avr32-gnu-toolchain/bin/../lib/gcc/avr32/4.4.7/../../../../avr32/lib/ucr3fp\libm.a(lib_a-k_cos.o)
                                0x1f8 (size before relaxing)
                0x8002f5f8                __kernel_cos
 .text.__kernel_rem_pio2
                0x8002f7e0      0x6e0 c:/program files (x86)/atmel/atmel toolchain/avr32 gcc/native/3.4.2.1002/avr32-gnu-toolchain/bin/../lib/gcc/avr32/4.4.7/../../../../avr32/lib/ucr3fp\libm.a(lib_a-k_rem_pio2.o)
                                0x718 (size before relaxing)
                0x8002f7e0                __kernel_rem_pio2
 .text.__kernel_sin
                0x8002fec0      0x194 c:/program files (x86)/atmel/atmel toolchain/avr32 gcc/native/3.4.2.1002/avr32-gnu-toolchain/bin/../lib/gcc/avr32/4.4.7/../../../../avr32/lib/ucr3fp\libm.a(lib_a-k_sin.o)
                                0x1a4 (size before relaxing)
                0x8002fec0                __kernel_sin
 .text.atan     0x80030054      0x348 c:/program files (x86)/atmel/atmel toolchain/avr32 gcc/native/3.4.2.1002/avr32-gnu-toolchain/bin/../lib/gcc/avr32/4.4.7/../../../../avr32/lib/ucr3fp\libm.a(lib_a-s_atan.o)
                                0x368 (size before relaxing)
                0x80030054                atan
 .text.fabs     0x8003039c        0x8 c:/program files (x86)/atmel/atmel toolchain/avr32 gcc/native/3.4.2.1002/avr32-gnu-toolchain/bin/../lib/gcc/avr32/4.4.7/../../../../avr32/lib/ucr3fp\libm.a(lib_a-s_fabs.o)
                0x8003039c                fabs
 .text.finite   0x800303a4       0x10 c:/program files (x86)/atmel/atmel toolchain/avr32 gcc/native/3.4.2.1002/avr32-gnu-toolchain/bin/../lib/gcc/avr32/4.4.7/../../../../avr32/lib/ucr3fp\libm.a(lib_a-s_finite.o)
                0x800303a4                finite
 .text.floor    0x800303b4      0x120 c:/program files (x86)/atmel/atmel toolchain/avr32 gcc/native/3.4.2.1002/avr32-gnu-toolchain/bin/../lib/gcc/avr32/4.4.7/../../../../avr32/lib/ucr3fp\libm.a(lib_a-s_floor.o)
                                0x128 (size before relaxing)
                0x800303b4                floor
 .text.__isnand
                0x800304d4       0x1c c:/program files (x86)/atmel/atmel toolchain/avr32 gcc/native/3.4.2.1002/avr32-gnu-toolchain/bin/../lib/gcc/avr32/4.4.7/../../../../avr32/lib/ucr3fp\libm.a(lib_a-s_isnand.o)
                0x800304d4                __isnand
 .text.matherr  0x800304f0        0x2 c:/program files (x86)/atmel/atmel toolchain/avr32 gcc/native/3.4.2.1002/avr32-gnu-toolchain/bin/../lib/gcc/avr32/4.4.7/../../../../avr32/lib/ucr3fp\libm.a(lib_a-s_matherr.o)
                0x800304f0                matherr
 .text.nan      0x800304f2        0x8 c:/program files (x86)/atmel/atmel toolchain/avr32 gcc/native/3.4.2.1002/avr32-gnu-toolchain/bin/../lib/gcc/avr32/4.4.7/../../../../avr32/lib/ucr3fp\libm.a(lib_a-s_nan.o)
                0x800304f2                nan
 *fill*         0x800304fa        0x2 d703d703
 .text.rint     0x800304fc      0x118 c:/program files (x86)/atmel/atmel toolchain/avr32 gcc/native/3.4.2.1002/avr32-gnu-toolchain/bin/../lib/gcc/avr32/4.4.7/../../../../avr32/lib/ucr3fp\libm.a(lib_a-s_rint.o)
                                0x124 (size before relaxing)
                0x800304fc                rint
 .text.scalbn   0x80030614       0xdc c:/program files (x86)/atmel/atmel toolchain/avr32 gcc/native/3.4.2.1002/avr32-gnu-toolchain/bin/../lib/gcc/avr32/4.4.7/../../../../avr32/lib/ucr3fp\libm.a(lib_a-s_scalbn.o)
                                 0xf0 (size before relaxing)
                0x80030614                scalbn
 .text.copysign
                0x800306f0       0x18 c:/program files (x86)/atmel/atmel toolchain/avr32 gcc/native/3.4.2.1002/avr32-gnu-toolchain/bin/../lib/gcc/avr32/4.4.7/../../../../avr32/lib/ucr3fp\libm.a(lib_a-s_copysign.o)
                0x800306f0                copysign
 .text          0x80030708      0x1d4 c:/program files (x86)/atmel/atmel toolchain/avr32 gcc/native/3.4.2.1002/avr32-gnu-toolchain/bin/../lib/gcc/avr32/4.4.7/ucr3fp\libgcc.a(_avr32_f64_mul.o)
                0x80030708                __avr32_f64_mul
 .text          0x800308dc      0x2b0 c:/program files (x86)/atmel/atmel toolchain/avr32 gcc/native/3.4.2.1002/avr32-gnu-toolchain/bin/../lib/gcc/avr32/4.4.7/ucr3fp\libgcc.a(_avr32_f64_addsub.o)
                0x800308e0                __avr32_f64_sub
                0x80030a7c                __avr32_f64_add
 .text          0x80030b8c       0x2a c:/program files (x86)/atmel/atmel toolchain/avr32 gcc/native/3.4.2.1002/avr32-gnu-toolchain/bin/../lib/gcc/avr32/4.4.7/ucr3fp\libgcc.a(_avr32_f64_to_s32.o)
                0x80030b8c                __avr32_f64_to_u32
                0x80030b90                __avr32_f64_to_s32
 .text          0x80030bb6       0xe8 c:/program files (x86)/atmel/atmel toolchain/avr32 gcc/native/3.4.2.1002/avr32-gnu-toolchain/bin/../lib/gcc/avr32/4.4.7/ucr3fp\libgcc.a(_avr32_s32_to_f64.o)
                0x80030bb6                __avr32_u32_to_f64
                0x80030bbe                __avr32_s32_to_f64
 .text          0x80030c9e       0x26 c:/program files (x86)/atmel/atmel toolchain/avr32 gcc/native/3.4.2.1002/avr32-gnu-toolchain/bin/../lib/gcc/avr32/4.4.7/ucr3fp\libgcc.a(_avr32_f64_cmp_eq.o)
                0x80030c9e                __avr32_f64_cmp_eq
 .text          0x80030cc4       0x68 c:/program files (x86)/atmel/atmel toolchain/avr32 gcc/native/3.4.2.1002/avr32-gnu-toolchain/bin/../lib/gcc/avr32/4.4.7/ucr3fp\libgcc.a(_avr32_f64_cmp_ge.o)
                0x80030cc4                __avr32_f64_cmp_ge
 .text          0x80030d2c       0x68 c:/program files (x86)/atmel/atmel toolchain/avr32 gcc/native/3.4.2.1002/avr32-gnu-toolchain/bin/../lib/gcc/avr32/4.4.7/ucr3fp\libgcc.a(_avr32_f64_cmp_lt.o)
                0x80030d2c                __avr32_f64_cmp_lt
 .text          0x80030d94      0x318 c:/program files (x86)/atmel/atmel toolchain/avr32 gcc/native/3.4.2.1002/avr32-gnu-toolchain/bin/../lib/gcc/avr32/4.4.7/ucr3fp\libgcc.a(_avr32_f64_div.o)
                0x80030d94                __avr32_f64_div
 .text          0x800310ac      0x160 c:/program files (x86)/atmel/atmel toolchain/avr32 gcc/native/3.4.2.1002/avr32-gnu-toolchain/bin/../lib/gcc/avr32/4.4.7/ucr3fp\libgcc.a(_avr32_f32_div.o)
                0x800310ac                __avr32_f32_div
 .text          0x8003120c       0x60 c:/program files (x86)/atmel/atmel toolchain/avr32 gcc/native/3.4.2.1002/avr32-gnu-toolchain/bin/../lib/gcc/avr32/4.4.7/ucr3fp\libgcc.a(_avr32_f32_to_f64.o)
                0x8003120c                __avr32_f32_to_f64
 .text          0x8003126c       0x8a c:/program files (x86)/atmel/atmel toolchain/avr32 gcc/native/3.4.2.1002/avr32-gnu-toolchain/bin/../lib/gcc/avr32/4.4.7/ucr3fp\libgcc.a(_avr32_f64_to_f32.o)
                0x8003126c                __avr32_f64_to_f32
 .text          0x800312f6      0x264 c:/program files (x86)/atmel/atmel toolchain/avr32 gcc/native/3.4.2.1002/avr32-gnu-toolchain/bin/../lib/gcc/avr32/4.4.7/ucr3fp\libgcc.a(_udivdi3.o)
                0x800312f6                __avr32_udiv64
                0x800312f6                __udivdi3
 *fill*         0x8003155a        0x2 d703d703
 .text.__errno  0x8003155c        0xc c:/program files (x86)/atmel/atmel toolchain/avr32 gcc/native/3.4.2.1002/avr32-gnu-toolchain/bin/../lib/gcc/avr32/4.4.7/../../../../avr32/lib/ucr3fp\libc.a(lib_a-errno.o)
                0x8003155c                __errno
 .text          0x80031568      0x148 c:/program files (x86)/atmel/atmel toolchain/avr32 gcc/native/3.4.2.1002/avr32-gnu-toolchain/bin/../lib/gcc/avr32/4.4.7/../../../../avr32/lib/ucr3fp\libc.a(lib_a-memcpy.o)
                0x80031568                memcpy
 .text.memset   0x800316b0        0xe c:/program files (x86)/atmel/atmel toolchain/avr32 gcc/native/3.4.2.1002/avr32-gnu-toolchain/bin/../lib/gcc/avr32/4.4.7/../../../../avr32/lib/ucr3fp\libc.a(lib_a-memset.o)
                0x800316b0                memset
 .text.strcpy   0x800316be       0x12 c:/program files (x86)/atmel/atmel toolchain/avr32 gcc/native/3.4.2.1002/avr32-gnu-toolchain/bin/../lib/gcc/avr32/4.4.7/../../../../avr32/lib/ucr3fp\libc.a(lib_a-strcpy.o)
                0x800316be                strcpy
 .text.strlen   0x800316d0       0x16 c:/program files (x86)/atmel/atmel toolchain/avr32 gcc/native/3.4.2.1002/avr32-gnu-toolchain/bin/../lib/gcc/avr32/4.4.7/../../../../avr32/lib/ucr3fp\libc.a(lib_a-strlen.o)
                0x800316d0                strlen
 *(.text.*personality*)
 *(.gnu.warning)

.exception      0x80031800      0x200
 .exception     0x80031800      0x200 src/asf/avr32/drivers/intc/exception.o
                0x80031800                _evba
                0x8003193c                ipr_val

.fini
 *(.fini)
                0x80031a00                PROVIDE (__etext, .)
                0x80031a00                PROVIDE (_etext, .)
                0x80031a00                PROVIDE (etext, .)

.rodata         0x80031a00      0x644
 *(.rodata .rodata.* .gnu.linkonce.r.*)
 .rodata.servo_failsafe
                0x80031a00       0x80 src/tasks.o
 .rodata.mavlink_message_crcs.14492
                0x80031a80      0x100 Library/communication/mavlink_stream.o
 .rodata.ADCIFA_GPIO_MAP
                0x80031b80       0x26 Library/hal/adc_int.o
 *fill*         0x80031ba6        0x2 
 .rodata.C.59.15212
                0x80031ba8        0x4 Library/hal/bmp085.o
 .rodata.C.60.15213
                0x80031bac        0x4 Library/hal/bmp085.o
 .rodata.C.64.15730
                0x80031bb0        0xc Library/hal/dac_dma.o
 .rodata.DACIFB_GPIO_MAP.15725
                0x80031bbc        0x8 Library/hal/dac_dma.o
 .rodata.PEVC_EVS_OPTIONS.15716
                0x80031bc4       0x10 Library/hal/dac_dma.o
 .rodata.LED_DESCRIPTOR
                0x80031bd4       0x20 Library/hal/led.o
 .rodata.PWM_GPIO_MAP.14186
                0x80031bf4        0xc Library/hal/servo_pwm.o
 .rodata.USART_GPIO_MAP.16459
                0x80031c00        0x4 Library/hal/remote_dsm2.o
 .rodata.usart_opt.16458
                0x80031c04        0xc Library/hal/remote_dsm2.o
 .rodata.alphabet
                0x80031c10       0x24 Library/util/print_util.o
 .rodata.FLASH_SIZE.14167
                0x80031c34       0x40 src/asf/avr32/drivers/flashc/flashc.o
 .rodata.servo_failsafe
                0x80031c74       0x80 src/boardsupport.o
 .rodata.servo_failsafe
                0x80031cf4       0x80 src/main.o
 .rodata.str1.4
                0x80031d74        0x5 c:/program files (x86)/atmel/atmel toolchain/avr32 gcc/native/3.4.2.1002/avr32-gnu-toolchain/bin/../lib/gcc/avr32/4.4.7/../../../../avr32/lib/ucr3fp\libm.a(lib_a-w_asin.o)
                                  0xc (size before relaxing)
 *fill*         0x80031d79        0x3 
 .rodata.str1.4
                0x80031d7c        0x4 c:/program files (x86)/atmel/atmel toolchain/avr32 gcc/native/3.4.2.1002/avr32-gnu-toolchain/bin/../lib/gcc/avr32/4.4.7/../../../../avr32/lib/ucr3fp\libm.a(lib_a-w_pow.o)
 .rodata.str1.4
                0x80031d80        0x5 c:/program files (x86)/atmel/atmel toolchain/avr32 gcc/native/3.4.2.1002/avr32-gnu-toolchain/bin/../lib/gcc/avr32/4.4.7/../../../../avr32/lib/ucr3fp\libm.a(lib_a-w_sqrt.o)
                                  0x8 (size before relaxing)
 *fill*         0x80031d85        0x3 
 .rodata.dp_h   0x80031d88       0x10 c:/program files (x86)/atmel/atmel toolchain/avr32 gcc/native/3.4.2.1002/avr32-gnu-toolchain/bin/../lib/gcc/avr32/4.4.7/../../../../avr32/lib/ucr3fp\libm.a(lib_a-e_pow.o)
 .rodata.dp_l   0x80031d98       0x10 c:/program files (x86)/atmel/atmel toolchain/avr32 gcc/native/3.4.2.1002/avr32-gnu-toolchain/bin/../lib/gcc/avr32/4.4.7/../../../../avr32/lib/ucr3fp\libm.a(lib_a-e_pow.o)
 .rodata.bp     0x80031da8       0x10 c:/program files (x86)/atmel/atmel toolchain/avr32 gcc/native/3.4.2.1002/avr32-gnu-toolchain/bin/../lib/gcc/avr32/4.4.7/../../../../avr32/lib/ucr3fp\libm.a(lib_a-e_pow.o)
 .rodata.str1.4
                0x00000000        0x4 c:/program files (x86)/atmel/atmel toolchain/avr32 gcc/native/3.4.2.1002/avr32-gnu-toolchain/bin/../lib/gcc/avr32/4.4.7/../../../../avr32/lib/ucr3fp\libm.a(lib_a-e_pow.o)
 .rodata.npio2_hw
                0x80031db8       0x80 c:/program files (x86)/atmel/atmel toolchain/avr32 gcc/native/3.4.2.1002/avr32-gnu-toolchain/bin/../lib/gcc/avr32/4.4.7/../../../../avr32/lib/ucr3fp\libm.a(lib_a-e_rem_pio2.o)
 .rodata.two_over_pi
                0x80031e38      0x108 c:/program files (x86)/atmel/atmel toolchain/avr32 gcc/native/3.4.2.1002/avr32-gnu-toolchain/bin/../lib/gcc/avr32/4.4.7/../../../../avr32/lib/ucr3fp\libm.a(lib_a-e_rem_pio2.o)
 .rodata.init_jk
                0x80031f40       0x10 c:/program files (x86)/atmel/atmel toolchain/avr32 gcc/native/3.4.2.1002/avr32-gnu-toolchain/bin/../lib/gcc/avr32/4.4.7/../../../../avr32/lib/ucr3fp\libm.a(lib_a-k_rem_pio2.o)
 .rodata.PIo2   0x80031f50       0x40 c:/program files (x86)/atmel/atmel toolchain/avr32 gcc/native/3.4.2.1002/avr32-gnu-toolchain/bin/../lib/gcc/avr32/4.4.7/../../../../avr32/lib/ucr3fp\libm.a(lib_a-k_rem_pio2.o)
 .rodata.atanlo
                0x80031f90       0x20 c:/program files (x86)/atmel/atmel toolchain/avr32 gcc/native/3.4.2.1002/avr32-gnu-toolchain/bin/../lib/gcc/avr32/4.4.7/../../../../avr32/lib/ucr3fp\libm.a(lib_a-s_atan.o)
 .rodata.atanhi
                0x80031fb0       0x20 c:/program files (x86)/atmel/atmel toolchain/avr32 gcc/native/3.4.2.1002/avr32-gnu-toolchain/bin/../lib/gcc/avr32/4.4.7/../../../../avr32/lib/ucr3fp\libm.a(lib_a-s_atan.o)
 .rodata.TWO52  0x80031fd0       0x10 c:/program files (x86)/atmel/atmel toolchain/avr32 gcc/native/3.4.2.1002/avr32-gnu-toolchain/bin/../lib/gcc/avr32/4.4.7/../../../../avr32/lib/ucr3fp\libm.a(lib_a-s_rint.o)
 .rodata.str1.4
                0x80031fe0        0x4 c:/program files (x86)/atmel/atmel toolchain/avr32 gcc/native/3.4.2.1002/avr32-gnu-toolchain/bin/../lib/gcc/avr32/4.4.7/../../../../avr32/lib/ucr3fp\libc.a(lib_a-impure.o)
 .rodata.__sf_fake_stdin
                0x80031fe4       0x20 c:/program files (x86)/atmel/atmel toolchain/avr32 gcc/native/3.4.2.1002/avr32-gnu-toolchain/bin/../lib/gcc/avr32/4.4.7/../../../../avr32/lib/ucr3fp\libc.a(lib_a-findfp.o)
                0x80031fe4                __sf_fake_stdin
 .rodata.__sf_fake_stdout
                0x80032004       0x20 c:/program files (x86)/atmel/atmel toolchain/avr32 gcc/native/3.4.2.1002/avr32-gnu-toolchain/bin/../lib/gcc/avr32/4.4.7/../../../../avr32/lib/ucr3fp\libc.a(lib_a-findfp.o)
                0x80032004                __sf_fake_stdout
 .rodata.__sf_fake_stderr
                0x80032024       0x20 c:/program files (x86)/atmel/atmel toolchain/avr32 gcc/native/3.4.2.1002/avr32-gnu-toolchain/bin/../lib/gcc/avr32/4.4.7/../../../../avr32/lib/ucr3fp\libc.a(lib_a-findfp.o)
                0x80032024                __sf_fake_stderr

.rodata1
 *(.rodata1)

.eh_frame_hdr
 *(.eh_frame_hdr)

.eh_frame
 *(.eh_frame)

.gcc_except_table
 *(.gcc_except_table)
 *(.gcc_except_table.*)

.dalign         0x80032044        0x4
                0x80032048                . = ALIGN (0x8)
 *fill*         0x80032044        0x4 
                0x80032048                PROVIDE (_data_lma, .)
                0x00000004                PROVIDE (_data, ORIGIN (CPUSRAM))
                0x00000004                . = ORIGIN (CPUSRAM)

.eh_frame
 *(.eh_frame)

.gcc_except_table
 *(.gcc_except_table)
 *(.gcc_except_table.*)

.tdata
 *(.tdata .tdata.* .gnu.linkonce.td.*)

.tbss
 *(.tbss .tbss.* .gnu.linkonce.tb.*)
 *(.tcommon)
                0x00000004                PROVIDE (__preinit_array_start, ALIGN (0x4))

.preinit_array
 *(.preinit_array)
                0x00000004                PROVIDE (__preinit_array_end, .)
                0x00000004                PROVIDE (__init_array_start, .)

.init_array
 *(.init_array)
                0x00000004                PROVIDE (__init_array_end, .)
                0x00000004                PROVIDE (__fini_array_start, .)

.fini_array
 *(.fini_array)
                0x00000004                PROVIDE (__fini_array_end, .)

.ctors
 *crtbegin*.o(.ctors)
 *(EXCLUDE_FILE(*crtend*.o) .ctors)
 *(SORT(.ctors.*))
 *(.ctors)

.dtors
 *crtbegin*.o(.dtors)
 *(EXCLUDE_FILE(*crtend*.o) .dtors)
 *(SORT(.dtors.*))
 *(.dtors)

.jcr
 *(.jcr)

.data.rel.ro    0x00000004      0x178 load address 0x80032048
 *(.data.rel.ro.local)
 *(.data.rel.ro*)
 .data.rel.ro.local._int_handler_table
                0x00000004      0x178 src/asf/avr32/drivers/intc/intc.o

.dynamic
 *(.dynamic)

.got            0x0000017c      0x8ec load address 0x800321c0
 *(.got.plt)
 *(.got)
 .got           0x0000017c      0x8ec Library/communication/mavlink_waypoint_handler.o
                0x0000017c                _GLOBAL_OFFSET_TABLE_

.data           0x00000a68     0x19d4 load address 0x80032aac
 *(.data .data.* .gnu.linkonce.d.*)
 .data.stabiliser_defaults_copter
                0x00000a68      0x3b8 Library/control/stabilisation_copter.o
 .data.main_tasks
                0x00000e20      0x1e4 src/tasks.o
                0x00000e20                main_tasks
 .data.mavlink_tasks
                0x00001004      0x5a4 Library/communication/mavlink_stream.o
                0x00001004                mavlink_tasks
 .data.adcifa   0x000015a8        0x4 Library/hal/adc_int.o
                0x000015a8                adcifa
 .data.adc_config_options
                0x000015ac       0x14 Library/hal/adc_int.o
                0x000015ac                adc_config_options
 .data.adcifa_sequence_opt
                0x000015c0        0x7 Library/hal/adc_int.o
                0x000015c0                adcifa_sequence_opt
 *fill*         0x000015c7        0x1 
 .data.default_configuration
                0x000015c8        0x4 Library/hal/adxl345_driver.o
                0x000015c8                default_configuration
 .data.data_configuration
                0x000015cc        0x4 Library/hal/adxl345_driver.o
                0x000015cc                data_configuration
 .data.twi_opt.14951
                0x000015d0       0x10 Library/hal/adxl345_driver.o
 .data.twi_opt.15162
                0x000015e0       0x10 Library/hal/bmp085.o
 .data.twi_opt.14132
                0x000015f0       0x10 Library/hal/compass_hmc5883l.o
 .data.compass_default_configuration.14133
                0x00001600        0x4 Library/hal/compass_hmc5883l.o
 .data.ppevc    0x00001604        0x4 Library/hal/dac_dma.o
                0x00001604                ppevc
 .data.dacifb   0x00001608        0x4 Library/hal/dac_dma.o
                0x00001608                dacifb
 .data.dac_channel_audio
                0x0000160c        0x1 Library/hal/dac_dma.o
                0x0000160c                dac_channel_audio
 *fill*         0x0000160d        0x3 
 .data.PDCA_OPTIONS.15751
                0x00001610       0x1c Library/hal/dac_dma.o
 .data.twi_opt.14954
                0x0000162c       0x10 Library/hal/itg3200_driver.o
 .data.LED_State
                0x0000163c        0x4 Library/hal/led.o
 .data.twi_opt.14942
                0x00001640       0x10 Library/hal/radar_module_driver.o
 .data.PDCA_TX_OPTIONS.15184
                0x00001650       0x1c Library/hal/spi_buffered.o
 .data.PDCA_RX_OPTIONS.15185
                0x0000166c       0x1c Library/hal/spi_buffered.o
 .data.usart_opt
                0x00001688      0xac8 Library/hal/uart_int.o
 .data.rel.ubx_currentPosllhMessage
                0x00002150        0x4 Library/sensing/gps_ublox.o
                0x00002150                ubx_currentPosllhMessage
 .data.rel.ubx_lastPosllhMessage
                0x00002154        0x4 Library/sensing/gps_ublox.o
                0x00002154                ubx_lastPosllhMessage
 .data.rel.ubx_currentStatusMessage
                0x00002158        0x4 Library/sensing/gps_ublox.o
                0x00002158                ubx_currentStatusMessage
 .data.rel.ubx_lastStatusMessage
                0x0000215c        0x4 Library/sensing/gps_ublox.o
                0x0000215c                ubx_lastStatusMessage
 .data.rel.ubx_currentSolutionMessage
                0x00002160        0x4 Library/sensing/gps_ublox.o
                0x00002160                ubx_currentSolutionMessage
 .data.rel.ubx_lastSolutionMessage
                0x00002164        0x4 Library/sensing/gps_ublox.o
                0x00002164                ubx_lastSolutionMessage
 .data.rel.ubx_currentVelnedMessage
                0x00002168        0x4 Library/sensing/gps_ublox.o
                0x00002168                ubx_currentVelnedMessage
 .data.rel.ubx_lastVelnedMessage
                0x0000216c        0x4 Library/sensing/gps_ublox.o
                0x0000216c                ubx_lastVelnedMessage
 .data.rel.ubx_currentSVInfoMessage
                0x00002170        0x4 Library/sensing/gps_ublox.o
                0x00002170                ubx_currentSVInfoMessage
 .data.rel.ubx_lastSVInfoMessage
                0x00002174        0x4 Library/sensing/gps_ublox.o
                0x00002174                ubx_lastSVInfoMessage
 .data.rel.ubx_currentNavSettingsMessage
                0x00002178        0x4 Library/sensing/gps_ublox.o
                0x00002178                ubx_currentNavSettingsMessage
 .data.rel.ubx_lastNavSettingsMessage
                0x0000217c        0x4 Library/sensing/gps_ublox.o
                0x0000217c                ubx_lastNavSettingsMessage
 .data.rel.ubx_currentCFGRateMessage
                0x00002180        0x4 Library/sensing/gps_ublox.o
                0x00002180                ubx_currentCFGRateMessage
 .data.rel.ubx_lastCFGRateMessage
                0x00002184        0x4 Library/sensing/gps_ublox.o
                0x00002184                ubx_lastCFGRateMessage
 .data.rel.ubx_currentCFGSetGetRateMessage
                0x00002188        0x4 Library/sensing/gps_ublox.o
                0x00002188                ubx_currentCFGSetGetRateMessage
 .data.rel.ubx_lastCFGSetGetRateMessage
                0x0000218c        0x4 Library/sensing/gps_ublox.o
                0x0000218c                ubx_lastCFGSetGetRateMessage
 .data.rel.ubx_currentMONRXRMessage
                0x00002190        0x4 Library/sensing/gps_ublox.o
                0x00002190                ubx_currentMONRXRMessage
 .data.rel.ubx_lastMONRXRMessage
                0x00002194        0x4 Library/sensing/gps_ublox.o
                0x00002194                ubx_lastMONRXRMessage
 .data.rel.ubx_currentTimTPMessage
                0x00002198        0x4 Library/sensing/gps_ublox.o
                0x00002198                ubx_currentTimTPMessage
 .data.rel.ubx_lastTimTPMessage
                0x0000219c        0x4 Library/sensing/gps_ublox.o
                0x0000219c                ubx_lastTimTPMessage
 .data.rel.ubx_currentTimVRFYMessage
                0x000021a0        0x4 Library/sensing/gps_ublox.o
                0x000021a0                ubx_currentTimVRFYMessage
 .data.rel.ubx_lastTimVRFYMessage
                0x000021a4        0x4 Library/sensing/gps_ublox.o
                0x000021a4                ubx_lastTimVRFYMessage
 .data.numSkippedMsg
                0x000021a8        0x1 Library/sensing/gps_ublox.o
                0x000021a8                numSkippedMsg
 *fill*         0x000021a9        0x3 
 .data.vehicle_model_parameters
                0x000021ac      0x194 Library/sensing/simulation.o
 .data.rel.flashc_wait_until_ready
                0x00002340        0x4 src/asf/avr32/drivers/flashc/flashc.o
                0x00002340                flashc_wait_until_ready
 .data.__fdlib_version
                0x00002344        0x4 c:/program files (x86)/atmel/atmel toolchain/avr32 gcc/native/3.4.2.1002/avr32-gnu-toolchain/bin/../lib/gcc/avr32/4.4.7/../../../../avr32/lib/ucr3fp\libm.a(lib_a-s_lib_ver.o)
                0x00002344                __fdlib_version
 .data.impure_data
                0x00002348       0xf0 c:/program files (x86)/atmel/atmel toolchain/avr32 gcc/native/3.4.2.1002/avr32-gnu-toolchain/bin/../lib/gcc/avr32/4.4.7/../../../../avr32/lib/ucr3fp\libc.a(lib_a-impure.o)
 .data._impure_ptr
                0x00002438        0x4 c:/program files (x86)/atmel/atmel toolchain/avr32 gcc/native/3.4.2.1002/avr32-gnu-toolchain/bin/../lib/gcc/avr32/4.4.7/../../../../avr32/lib/ucr3fp\libc.a(lib_a-impure.o)
                0x00002438                _impure_ptr
 *(.gnu.linkonce.d.*personality*)

.data1
 *(.data1)

.balign         0x0000243c        0x4 load address 0x80034480
                0x00002440                . = ALIGN (0x8)
 *fill*         0x0000243c        0x4 
                0x00002440                _edata = .
                0x00002440                _edata = .
                0x00002440                PROVIDE (edata, .)
                0x00002440                __bss_start = .

.bss            0x00002440     0x72a8 load address 0x80034480
 *(.dynbss)
 *(.bss .bss.* .gnu.linkonce.b.*)
 .bss.int_loop_count
                0x00002440        0x4 Library/communication/mavlink_waypoint_handler.o
                0x00002440                int_loop_count
 .bss.m_mavlink_status.14338
                0x00002444       0x40 Library/communication/mavlink_waypoint_handler.o
 .bss.loop_count_orca
                0x00002484        0x1 Library/control/orca.o
                0x00002484                loop_count_orca
 *fill*         0x00002485        0x3 
 .bss.centralData
                0x00002488     0x12e8 src/central_data.o
 .bss.m_mavlink_status.14338
                0x00003770       0x40 src/mavlink_actions.o
 .bss.mavlink_out_stream
                0x000037b0        0x4 Library/communication/mavlink_stream.o
 .bss.mavlink_in_stream
                0x000037b4        0x4 Library/communication/mavlink_stream.o
 .bss.m_mavlink_buffer.14345
                0x000037b8      0x440 Library/communication/mavlink_stream.o
 .bss.m_mavlink_status.14338
                0x00003bf8       0x40 Library/communication/mavlink_stream.o
 .bss.m_mavlink_status.14338
                0x00003c38       0x40 Library/communication/onboard_parameters.o
 .bss.sequencer_item_count
                0x00003c78        0x1 Library/hal/adc_int.o
 .bss.channel_count
                0x00003c79        0x1 Library/hal/adc_int.o
 *fill*         0x00003c7a        0x2 
 .bss.sample_counter
                0x00003c7c        0x4 Library/hal/adc_int.o
 .bss.oversampling_counter
                0x00003c80        0x4 Library/hal/adc_int.o
 .bss.channel_index
                0x00003c84        0x4 Library/hal/adc_int.o
 .bss.number_of_samples
                0x00003c88        0x4 Library/hal/adc_int.o
 .bss.oversampling
                0x00003c8c        0x4 Library/hal/adc_int.o
 .bss.oversampling_divider
                0x00003c90        0x4 Library/hal/adc_int.o
 .bss.adc_buffer
                0x00003c94     0x4000 Library/hal/ads1274.o
 .bss.sampleCounter
                0x00007c94        0x4 Library/hal/ads1274.o
 .bss.interrupt_counter
                0x00007c98        0x4 Library/hal/ads1274.o
 .bss.function_generator
                0x00007c9c        0x4 Library/hal/ads1274.o
 .bss.acc_outputs
                0x00007ca0        0xc Library/hal/adxl345_driver.o
 .bss.compass_outputs
                0x00007cac        0xc Library/hal/compass_hmc5883l.o
 .bss.buffer    0x00007cb8        0x4 Library/hal/dac_dma.o
 .bss.from      0x00007cbc        0x2 Library/hal/dac_dma.o
 .bss.to        0x00007cbe        0x2 Library/hal/dac_dma.o
 .bss.autoplay  0x00007cc0        0x4 Library/hal/dac_dma.o
 .bss.gyro_outputs
                0x00007cc4        0x8 Library/hal/itg3200_driver.o
 .bss.spi_buffers
                0x00007ccc       0xa8 Library/hal/spi_buffered.o
 .bss.ubx_currentMessage
                0x00007d74        0x4 Library/sensing/gps_ublox.o
                0x00007d74                ubx_currentMessage
 .bss.ubx_lastMessage
                0x00007d78        0x4 Library/sensing/gps_ublox.o
                0x00007d78                ubx_lastMessage
 .bss.ubx_validMessage
                0x00007d7c        0x4 Library/sensing/gps_ublox.o
                0x00007d7c                ubx_validMessage
 .bss.ubx_numberOfValidPosllhMessage
                0x00007d80        0x2 Library/sensing/gps_ublox.o
                0x00007d80                ubx_numberOfValidPosllhMessage
 .bss.ubx_numberOfValidStatusMessage
                0x00007d82        0x2 Library/sensing/gps_ublox.o
                0x00007d82                ubx_numberOfValidStatusMessage
 .bss.ubx_numberOfValidSolutionMessage
                0x00007d84        0x2 Library/sensing/gps_ublox.o
                0x00007d84                ubx_numberOfValidSolutionMessage
 .bss.ubx_numberOfValidVelnedMessage
                0x00007d86        0x2 Library/sensing/gps_ublox.o
                0x00007d86                ubx_numberOfValidVelnedMessage
 .bss.ubx_numberOfValidSVInfoMessage
                0x00007d88        0x2 Library/sensing/gps_ublox.o
                0x00007d88                ubx_numberOfValidSVInfoMessage
 .bss.ubx_numberOfValidNavSettingsMessage
                0x00007d8a        0x2 Library/sensing/gps_ublox.o
                0x00007d8a                ubx_numberOfValidNavSettingsMessage
 .bss.ubx_numberOfValidCFGRateMessage
                0x00007d8c        0x2 Library/sensing/gps_ublox.o
                0x00007d8c                ubx_numberOfValidCFGRateMessage
 .bss.ubx_numberOfValidCFGSetGetRateMessage
                0x00007d8e        0x2 Library/sensing/gps_ublox.o
                0x00007d8e                ubx_numberOfValidCFGSetGetRateMessage
 .bss.ubx_numberOfValidMONRXRMessage
                0x00007d90        0x2 Library/sensing/gps_ublox.o
                0x00007d90                ubx_numberOfValidMONRXRMessage
 .bss.ubx_numberOfValidTimTPMessage
                0x00007d92        0x2 Library/sensing/gps_ublox.o
                0x00007d92                ubx_numberOfValidTimTPMessage
 .bss.ubx_numberOfValidTimVRFYMessage
                0x00007d94        0x2 Library/sensing/gps_ublox.o
                0x00007d94                ubx_numberOfValidTimVRFYMessage
 .bss.printNavOnDebug
                0x00007d96        0x1 Library/sensing/gps_ublox.o
                0x00007d96                printNavOnDebug
 .bss.loopPosllh
                0x00007d97        0x1 Library/sensing/gps_ublox.o
                0x00007d97                loopPosllh
 .bss.loopVelned
                0x00007d98        0x1 Library/sensing/gps_ublox.o
                0x00007d98                loopVelned
 .bss.loopStatus
                0x00007d99        0x1 Library/sensing/gps_ublox.o
                0x00007d99                loopStatus
 .bss.loopSolution
                0x00007d9a        0x1 Library/sensing/gps_ublox.o
                0x00007d9a                loopSolution
 .bss.loopTimTp
                0x00007d9b        0x1 Library/sensing/gps_ublox.o
                0x00007d9b                loopTimTp
 .bss.loopTimVrfy
                0x00007d9c        0x1 Library/sensing/gps_ublox.o
                0x00007d9c                loopTimVrfy
 *fill*         0x00007d9d        0x3 
 .bss.flashc_error_status
                0x00007da0        0x4 src/asf/avr32/drivers/flashc/flashc.o
 .bss._int_line_handler_table_0
                0x00007da4        0x4 src/asf/avr32/drivers/intc/intc.o
 .bss._int_line_handler_table_1
                0x00007da8        0x8 src/asf/avr32/drivers/intc/intc.o
 .bss._int_line_handler_table_2
                0x00007db0        0x4 src/asf/avr32/drivers/intc/intc.o
 .bss._int_line_handler_table_3
                0x00007db4       0x10 src/asf/avr32/drivers/intc/intc.o
 .bss._int_line_handler_table_4
                0x00007dc4       0x10 src/asf/avr32/drivers/intc/intc.o
 .bss._int_line_handler_table_5
                0x00007dd4       0x10 src/asf/avr32/drivers/intc/intc.o
 .bss._int_line_handler_table_6
                0x00007de4       0x10 src/asf/avr32/drivers/intc/intc.o
 .bss._int_line_handler_table_7
                0x00007df4        0x4 src/asf/avr32/drivers/intc/intc.o
 .bss._int_line_handler_table_8
                0x00007df8        0x4 src/asf/avr32/drivers/intc/intc.o
 .bss._int_line_handler_table_9
                0x00007dfc       0x28 src/asf/avr32/drivers/intc/intc.o
 .bss._int_line_handler_table_10
                0x00007e24        0x4 src/asf/avr32/drivers/intc/intc.o
 .bss._int_line_handler_table_11
                0x00007e28        0x4 src/asf/avr32/drivers/intc/intc.o
 .bss._int_line_handler_table_12
                0x00007e2c        0x4 src/asf/avr32/drivers/intc/intc.o
 .bss._int_line_handler_table_13
                0x00007e30        0x4 src/asf/avr32/drivers/intc/intc.o
 .bss._int_line_handler_table_14
                0x00007e34       0x14 src/asf/avr32/drivers/intc/intc.o
 .bss._int_line_handler_table_15
                0x00007e48       0x10 src/asf/avr32/drivers/intc/intc.o
 .bss._int_line_handler_table_16
                0x00007e58       0x10 src/asf/avr32/drivers/intc/intc.o
 .bss._int_line_handler_table_17
                0x00007e68        0x4 src/asf/avr32/drivers/intc/intc.o
 .bss._int_line_handler_table_18
                0x00007e6c       0x40 src/asf/avr32/drivers/intc/intc.o
 .bss._int_line_handler_table_19
                0x00007eac        0x4 src/asf/avr32/drivers/intc/intc.o
 .bss._int_line_handler_table_20
                0x00007eb0        0x4 src/asf/avr32/drivers/intc/intc.o
 .bss._int_line_handler_table_21
                0x00007eb4        0x4 src/asf/avr32/drivers/intc/intc.o
 .bss._int_line_handler_table_22
                0x00007eb8        0x4 src/asf/avr32/drivers/intc/intc.o
 .bss._int_line_handler_table_23
                0x00007ebc        0x4 src/asf/avr32/drivers/intc/intc.o
 .bss._int_line_handler_table_24
                0x00007ec0        0x4 src/asf/avr32/drivers/intc/intc.o
 .bss._int_line_handler_table_25
                0x00007ec4        0x4 src/asf/avr32/drivers/intc/intc.o
 .bss._int_line_handler_table_26
                0x00007ec8        0x4 src/asf/avr32/drivers/intc/intc.o
 .bss._int_line_handler_table_27
                0x00007ecc        0x4 src/asf/avr32/drivers/intc/intc.o
 .bss._int_line_handler_table_28
                0x00007ed0        0x4 src/asf/avr32/drivers/intc/intc.o
 .bss._int_line_handler_table_29
                0x00007ed4        0x4 src/asf/avr32/drivers/intc/intc.o
 .bss._int_line_handler_table_30
                0x00007ed8        0x4 src/asf/avr32/drivers/intc/intc.o
 .bss._int_line_handler_table_31
                0x00007edc        0x4 src/asf/avr32/drivers/intc/intc.o
 .bss._int_line_handler_table_32
                0x00007ee0        0x4 src/asf/avr32/drivers/intc/intc.o
 .bss._int_line_handler_table_33
                0x00007ee4        0xc src/asf/avr32/drivers/intc/intc.o
 .bss._int_line_handler_table_34
                0x00007ef0        0xc src/asf/avr32/drivers/intc/intc.o
 .bss._int_line_handler_table_35
                0x00007efc        0x8 src/asf/avr32/drivers/intc/intc.o
 .bss._int_line_handler_table_36
                0x00007f04       0x18 src/asf/avr32/drivers/intc/intc.o
 .bss._int_line_handler_table_37
                0x00007f1c        0x4 src/asf/avr32/drivers/intc/intc.o
 .bss._int_line_handler_table_38
                0x00007f20        0x4 src/asf/avr32/drivers/intc/intc.o
 .bss._int_line_handler_table_39
                0x00007f24       0x18 src/asf/avr32/drivers/intc/intc.o
 .bss._int_line_handler_table_40
                0x00007f3c       0x18 src/asf/avr32/drivers/intc/intc.o
 .bss._int_line_handler_table_41
                0x00007f54        0x4 src/asf/avr32/drivers/intc/intc.o
 .bss._int_line_handler_table_42
                0x00007f58        0x4 src/asf/avr32/drivers/intc/intc.o
 .bss._int_line_handler_table_43
                0x00007f5c        0x4 src/asf/avr32/drivers/intc/intc.o
 .bss._int_line_handler_table_44
                0x00007f60        0x4 src/asf/avr32/drivers/intc/intc.o
 .bss._int_line_handler_table_45
                0x00007f64        0x4 src/asf/avr32/drivers/intc/intc.o
 .bss._int_line_handler_table_46
                0x00007f68        0x4 src/asf/avr32/drivers/intc/intc.o
 .bss.twim_inst
                0x00007f6c        0x4 src/asf/avr32/drivers/twim/twim.o
 .bss.twim_tx_data
                0x00007f70        0x4 src/asf/avr32/drivers/twim/twim.o
 .bss.twim_rx_data
                0x00007f74        0x4 src/asf/avr32/drivers/twim/twim.o
 .bss.transfer_status
                0x00007f78        0x4 src/asf/avr32/drivers/twim/twim.o
 .bss.twim_tx_nb_bytes
                0x00007f7c        0x4 src/asf/avr32/drivers/twim/twim.o
 .bss.twim_rx_nb_bytes
                0x00007f80        0x4 src/asf/avr32/drivers/twim/twim.o
 .bss.twim_it_mask
                0x00007f84        0x4 src/asf/avr32/drivers/twim/twim.o
 .bss.twim_package
                0x00007f88        0x4 src/asf/avr32/drivers/twim/twim.o
 .bss.twim_next
                0x00007f8c        0x1 src/asf/avr32/drivers/twim/twim.o
 *fill*         0x00007f8d        0x3 
 .bss.s_fcpu_hz
                0x00007f90        0x4 src/asf/avr32/services/delay/delay.o
 *(COMMON)
 COMMON         0x00007f94       0x92 Library/communication/mavlink_waypoint_handler.o
                0x00007f94                payload_length
                0x00007f96                ubxclass
                0x00007f98                waypoint_request_number
                0x00007f9c                start_timeout
                0x00007fa0                new_position
                0x00007fa4                idleTimer
                0x00007fa8                last_ground_speed_cm
                0x00007fac                msg_id
                0x00007fad                next_fix
                0x00007fae                imu_last_update_init
                0x00007fb0                engine_nav_setting
                0x00007fb4                velocity_east
                0x00007fb8                fix_count
                0x00007fb9                filter_init_delta_t
                0x00007fbc                prev_time
                0x00007fc0                cksum_a
                0x00007fc4                idleTimeout
                0x00007fc8                last_fix_time
                0x00007fcc                mavlink_system
                0x00007fd4                sending_wp_num
                0x00007fd8                timeout_max_wp
                0x00007fdc                mavlink_mission_planner
                0x00007fe4                velocity_down
                0x00007fe8                disable_counter
                0x00007fec                centralData
                0x00007ff0                fix
                0x00007ff1                cksum_b
                0x00007ff2                payload_counter
                0x00007ff4                step
                0x00007ff5                have_raw_velocity
                0x00007ff6                new_speed
                0x00007ff8                nav_settings
                0x0000801c                nvram_array
                0x00008020                velocity_north
                0x00008024                num_waypoint_onboard
 *fill*         0x00008026        0x2 
 COMMON         0x00008028        0x8 Library/control/orca.o
                0x00008028                timeHorizon
                0x0000802c                invTimeHorizon
 COMMON         0x00008030       0x50 Library/hal/analog_monitor.o
                0x00008030                monitor_buffer
 COMMON         0x00008080        0x4 Library/hal/i2c_driver_int.o
                0x00008080                current_transfer
 COMMON         0x00008084      0x278 Library/sensing/estimator.o
                0x00008084                Q2
                0x000080cc                Q
                0x00008114                P2
                0x000081ec                baro
                0x000081f0                R
                0x00008208                R2
                0x00008220                P
                0x000082f8                timeLastGpsMsgEstimator
 COMMON         0x000082fc        0x4 Library/sensing/qfilter.o
                0x000082fc                front_mag_vect_z
 COMMON         0x00008300       0x20 Library/communication/ishtar_stream.o
                0x00008300                deb_stream
                0x00008304                outbound_stream
                0x00008308                inbound_stream
 COMMON         0x00008320      0xd2c Library/communication/onboard_parameters.o
                0x00008320                param_set
 COMMON         0x0000904c        0x4 Library/control/navigation.o
                0x0000904c                alt_integrator
 COMMON         0x00009050       0x60 Library/hal/adc_int.o
                0x00009050                adci_buffer
                0x00009054                continuous_mode
                0x00009055                even_odd
                0x00009056                adcifa_sequencer0_conversion_opt
                0x00009070                internal_buffer
 COMMON         0x000090b0        0xc Library/hal/ads1274.o
                0x000090b0                eic_options
                0x000090b8                gcfg
 COMMON         0x000090bc       0x4e Library/hal/bmp085.o
                0x000090bc                b2
                0x000090be                mb
                0x000090c0                ac1
                0x000090c2                b1
                0x000090c4                ac6
                0x000090c6                ac5
                0x000090c8                ac2
                0x000090ca                md
                0x000090cc                ac4
                0x000090ce                mc
                0x000090d0                pressure_outputs
                0x00009108                ac3
 *fill*         0x0000910a        0x2 
 COMMON         0x0000910c        0xc Library/hal/radar_module_driver.o
                0x0000910c                main_target
 COMMON         0x00009118      0x288 Library/hal/remote_dsm2.o
                0x00009118                spRec2
                0x0000924c                channelCenter
                0x0000926c                spRec1
 COMMON         0x000093a0      0x33e Library/sensing/gps_ublox.o
                0x000093a0                ubx_TimTPMessage
                0x000093c0                ubx_statusMessage
                0x000093e0                ubx_NavSettingsMessage
                0x00009428                ubx_posllhMessage
                0x00009460                ubx_CFGSetGetRateMessage
                0x00009468                ubx_solutionMessage
                0x000094d0                ubx_CFGRateMessage
                0x000094dc                ubx_velnedMessage
                0x00009524                ubx_TimVRFYMessage
                0x0000954c                ubx_svInfoMessage
                0x000096dc                ubx_MONRXRMessage
 *fill*         0x000096de        0x2 
 COMMON         0x000096e0        0x7 src/asf/common/services/sleepmgr/uc3/sleepmgr.o
                0x000096e0                sleepmgr_locks
                0x000096e8                . = ALIGN (0x8)
 *fill*         0x000096e7        0x1 
                0x000096e8                . = ALIGN (0x8)
                0x000096e8                _end = .
                0x000096e8                PROVIDE (end, .)
                0x000096e8                __heap_start__ = ALIGN (0x8)
                0x0000f000                . = ((ORIGIN (CPUSRAM) + 0xfffc) - _stack_size)
                0x0000f000                __heap_end__ = .

.stab
 *(.stab)

.stabstr
 *(.stabstr)

.stab.excl
 *(.stab.excl)

.stab.exclstr
 *(.stab.exclstr)

.stab.index
 *(.stab.index)

.stab.indexstr
 *(.stab.indexstr)

.comment        0x00000000       0x30
 *(.comment)
 .comment       0x00000000       0x30 Library/communication/mavlink_waypoint_handler.o
                                 0x31 (size before relaxing)
 .comment       0x00000000       0x31 Library/control/orca.o
 .comment       0x00000000       0x31 Library/control/pid_control.o
 .comment       0x00000000       0x31 Library/control/stabilisation_copter.o
 .comment       0x00000000       0x31 Library/hal/analog_monitor.o
 .comment       0x00000000       0x31 Library/hal/i2c_driver_int.o
 .comment       0x00000000       0x31 Library/hal/time_keeper.o
 .comment       0x00000000       0x31 Library/sensing/estimator.o
 .comment       0x00000000       0x31 Library/sensing/neighbor_selection.o
 .comment       0x00000000       0x31 Library/sensing/position_estimation.o
 .comment       0x00000000       0x31 Library/sensing/qfilter.o
 .comment       0x00000000       0x31 src/central_data.o
 .comment       0x00000000       0x31 src/mavlink_actions.o
 .comment       0x00000000       0x31 src/tasks.o
 .comment       0x00000000       0x31 Library/communication/ishtar_stream.o
 .comment       0x00000000       0x31 Library/communication/mavlink_stream.o
 .comment       0x00000000       0x31 Library/communication/onboard_parameters.o
 .comment       0x00000000       0x31 Library/control/navigation.o
 .comment       0x00000000       0x31 Library/control/stabilisation.o
 .comment       0x00000000       0x31 Library/hal/adc_int.o
 .comment       0x00000000       0x31 Library/hal/ads1274.o
 .comment       0x00000000       0x31 Library/hal/adxl345_driver.o
 .comment       0x00000000       0x31 Library/hal/bmp085.o
 .comment       0x00000000       0x31 Library/hal/compass_hmc5883l.o
 .comment       0x00000000       0x31 Library/hal/dac_dma.o
 .comment       0x00000000       0x31 Library/hal/itg3200_driver.o
 .comment       0x00000000       0x31 Library/hal/led.o
 .comment       0x00000000       0x31 Library/hal/radar_module_driver.o
 .comment       0x00000000       0x31 Library/hal/servo_pwm.o
 .comment       0x00000000       0x31 Library/hal/remote_dsm2.o
 .comment       0x00000000       0x31 Library/hal/spi_buffered.o
 .comment       0x00000000       0x31 Library/hal/uart_int.o
 .comment       0x00000000       0x31 Library/runtime/scheduler.o
 .comment       0x00000000       0x31 Library/sensing/gps_ublox.o
 .comment       0x00000000       0x31 Library/sensing/imu.o
 .comment       0x00000000       0x31 Library/sensing/simulation.o
 .comment       0x00000000       0x31 Library/util/buffer.o
 .comment       0x00000000       0x31 Library/util/coord_conventions.o
 .comment       0x00000000       0x31 Library/util/print_util.o
 .comment       0x00000000       0x31 src/asf/avr32/drivers/adcifa/adcifa.o
 .comment       0x00000000       0x31 src/asf/avr32/drivers/ast/ast.o
 .comment       0x00000000       0x31 src/asf/avr32/drivers/dacifb/dacifb.o
 .comment       0x00000000       0x31 src/asf/avr32/drivers/eic/eic.o
 .comment       0x00000000       0x31 src/asf/avr32/drivers/flashc/flashc.o
 .comment       0x00000000       0x31 src/asf/avr32/drivers/gpio/gpio.o
 .comment       0x00000000       0x31 src/asf/avr32/drivers/intc/intc.o
 .comment       0x00000000       0x31 src/asf/avr32/drivers/pdca/pdca.o
 .comment       0x00000000       0x31 src/asf/avr32/drivers/pevc/pevc.o
 .comment       0x00000000       0x31 src/asf/avr32/drivers/scif/scif_uc3c.o
 .comment       0x00000000       0x31 src/asf/avr32/drivers/spi/spi.o
 .comment       0x00000000       0x31 src/asf/avr32/drivers/twim/twim.o
 .comment       0x00000000       0x31 src/asf/avr32/drivers/usart/usart.o
 .comment       0x00000000       0x31 src/asf/avr32/services/delay/delay.o
 .comment       0x00000000       0x31 src/asf/common/boards/user_board/init.o
 .comment       0x00000000       0x31 src/asf/common/services/clock/uc3c/osc.o
 .comment       0x00000000       0x31 src/asf/common/services/clock/uc3c/pll.o
 .comment       0x00000000       0x31 src/asf/common/services/clock/uc3c/sysclk.o
 .comment       0x00000000       0x31 src/asf/common/services/sleepmgr/uc3/sleepmgr.o
 .comment       0x00000000       0x31 src/asf/common/services/spi/uc3_spi/spi_master.o
 .comment       0x00000000       0x31 src/boardsupport.o
 .comment       0x00000000       0x31 src/main.o
 .comment       0x00000000       0x31 c:/program files (x86)/atmel/atmel toolchain/avr32 gcc/native/3.4.2.1002/avr32-gnu-toolchain/bin/../lib/gcc/avr32/4.4.7/../../../../avr32/lib/ucr3fp\libm.a(lib_a-s_cos.o)
 .comment       0x00000000       0x31 c:/program files (x86)/atmel/atmel toolchain/avr32 gcc/native/3.4.2.1002/avr32-gnu-toolchain/bin/../lib/gcc/avr32/4.4.7/../../../../avr32/lib/ucr3fp\libm.a(lib_a-s_sin.o)
 .comment       0x00000000       0x31 c:/program files (x86)/atmel/atmel toolchain/avr32 gcc/native/3.4.2.1002/avr32-gnu-toolchain/bin/../lib/gcc/avr32/4.4.7/../../../../avr32/lib/ucr3fp\libm.a(lib_a-w_asin.o)
 .comment       0x00000000       0x31 c:/program files (x86)/atmel/atmel toolchain/avr32 gcc/native/3.4.2.1002/avr32-gnu-toolchain/bin/../lib/gcc/avr32/4.4.7/../../../../avr32/lib/ucr3fp\libm.a(lib_a-w_atan2.o)
 .comment       0x00000000       0x31 c:/program files (x86)/atmel/atmel toolchain/avr32 gcc/native/3.4.2.1002/avr32-gnu-toolchain/bin/../lib/gcc/avr32/4.4.7/../../../../avr32/lib/ucr3fp\libm.a(lib_a-w_pow.o)
 .comment       0x00000000       0x31 c:/program files (x86)/atmel/atmel toolchain/avr32 gcc/native/3.4.2.1002/avr32-gnu-toolchain/bin/../lib/gcc/avr32/4.4.7/../../../../avr32/lib/ucr3fp\libm.a(lib_a-w_sqrt.o)
 .comment       0x00000000       0x31 c:/program files (x86)/atmel/atmel toolchain/avr32 gcc/native/3.4.2.1002/avr32-gnu-toolchain/bin/../lib/gcc/avr32/4.4.7/../../../../avr32/lib/ucr3fp\libm.a(lib_a-e_asin.o)
 .comment       0x00000000       0x31 c:/program files (x86)/atmel/atmel toolchain/avr32 gcc/native/3.4.2.1002/avr32-gnu-toolchain/bin/../lib/gcc/avr32/4.4.7/../../../../avr32/lib/ucr3fp\libm.a(lib_a-e_atan2.o)
 .comment       0x00000000       0x31 c:/program files (x86)/atmel/atmel toolchain/avr32 gcc/native/3.4.2.1002/avr32-gnu-toolchain/bin/../lib/gcc/avr32/4.4.7/../../../../avr32/lib/ucr3fp\libm.a(lib_a-e_pow.o)
 .comment       0x00000000       0x31 c:/program files (x86)/atmel/atmel toolchain/avr32 gcc/native/3.4.2.1002/avr32-gnu-toolchain/bin/../lib/gcc/avr32/4.4.7/../../../../avr32/lib/ucr3fp\libm.a(lib_a-e_rem_pio2.o)
 .comment       0x00000000       0x31 c:/program files (x86)/atmel/atmel toolchain/avr32 gcc/native/3.4.2.1002/avr32-gnu-toolchain/bin/../lib/gcc/avr32/4.4.7/../../../../avr32/lib/ucr3fp\libm.a(lib_a-e_sqrt.o)
 .comment       0x00000000       0x31 c:/program files (x86)/atmel/atmel toolchain/avr32 gcc/native/3.4.2.1002/avr32-gnu-toolchain/bin/../lib/gcc/avr32/4.4.7/../../../../avr32/lib/ucr3fp\libm.a(lib_a-k_cos.o)
 .comment       0x00000000       0x31 c:/program files (x86)/atmel/atmel toolchain/avr32 gcc/native/3.4.2.1002/avr32-gnu-toolchain/bin/../lib/gcc/avr32/4.4.7/../../../../avr32/lib/ucr3fp\libm.a(lib_a-k_rem_pio2.o)
 .comment       0x00000000       0x31 c:/program files (x86)/atmel/atmel toolchain/avr32 gcc/native/3.4.2.1002/avr32-gnu-toolchain/bin/../lib/gcc/avr32/4.4.7/../../../../avr32/lib/ucr3fp\libm.a(lib_a-k_sin.o)
 .comment       0x00000000       0x31 c:/program files (x86)/atmel/atmel toolchain/avr32 gcc/native/3.4.2.1002/avr32-gnu-toolchain/bin/../lib/gcc/avr32/4.4.7/../../../../avr32/lib/ucr3fp\libm.a(lib_a-s_atan.o)
 .comment       0x00000000       0x31 c:/program files (x86)/atmel/atmel toolchain/avr32 gcc/native/3.4.2.1002/avr32-gnu-toolchain/bin/../lib/gcc/avr32/4.4.7/../../../../avr32/lib/ucr3fp\libm.a(lib_a-s_fabs.o)
 .comment       0x00000000       0x31 c:/program files (x86)/atmel/atmel toolchain/avr32 gcc/native/3.4.2.1002/avr32-gnu-toolchain/bin/../lib/gcc/avr32/4.4.7/../../../../avr32/lib/ucr3fp\libm.a(lib_a-s_finite.o)
 .comment       0x00000000       0x31 c:/program files (x86)/atmel/atmel toolchain/avr32 gcc/native/3.4.2.1002/avr32-gnu-toolchain/bin/../lib/gcc/avr32/4.4.7/../../../../avr32/lib/ucr3fp\libm.a(lib_a-s_floor.o)
 .comment       0x00000000       0x31 c:/program files (x86)/atmel/atmel toolchain/avr32 gcc/native/3.4.2.1002/avr32-gnu-toolchain/bin/../lib/gcc/avr32/4.4.7/../../../../avr32/lib/ucr3fp\libm.a(lib_a-s_isnand.o)
 .comment       0x00000000       0x31 c:/program files (x86)/atmel/atmel toolchain/avr32 gcc/native/3.4.2.1002/avr32-gnu-toolchain/bin/../lib/gcc/avr32/4.4.7/../../../../avr32/lib/ucr3fp\libm.a(lib_a-s_lib_ver.o)
 .comment       0x00000000       0x31 c:/program files (x86)/atmel/atmel toolchain/avr32 gcc/native/3.4.2.1002/avr32-gnu-toolchain/bin/../lib/gcc/avr32/4.4.7/../../../../avr32/lib/ucr3fp\libm.a(lib_a-s_matherr.o)
 .comment       0x00000000       0x31 c:/program files (x86)/atmel/atmel toolchain/avr32 gcc/native/3.4.2.1002/avr32-gnu-toolchain/bin/../lib/gcc/avr32/4.4.7/../../../../avr32/lib/ucr3fp\libm.a(lib_a-s_nan.o)
 .comment       0x00000000       0x31 c:/program files (x86)/atmel/atmel toolchain/avr32 gcc/native/3.4.2.1002/avr32-gnu-toolchain/bin/../lib/gcc/avr32/4.4.7/../../../../avr32/lib/ucr3fp\libm.a(lib_a-s_rint.o)
 .comment       0x00000000       0x31 c:/program files (x86)/atmel/atmel toolchain/avr32 gcc/native/3.4.2.1002/avr32-gnu-toolchain/bin/../lib/gcc/avr32/4.4.7/../../../../avr32/lib/ucr3fp\libm.a(lib_a-s_scalbn.o)
 .comment       0x00000000       0x31 c:/program files (x86)/atmel/atmel toolchain/avr32 gcc/native/3.4.2.1002/avr32-gnu-toolchain/bin/../lib/gcc/avr32/4.4.7/../../../../avr32/lib/ucr3fp\libm.a(lib_a-s_copysign.o)
 .comment       0x00000000       0x31 c:/program files (x86)/atmel/atmel toolchain/avr32 gcc/native/3.4.2.1002/avr32-gnu-toolchain/bin/../lib/gcc/avr32/4.4.7/ucr3fp\libgcc.a(_udivdi3.o)
 .comment       0x00000000       0x31 c:/program files (x86)/atmel/atmel toolchain/avr32 gcc/native/3.4.2.1002/avr32-gnu-toolchain/bin/../lib/gcc/avr32/4.4.7/../../../../avr32/lib/ucr3fp\libc.a(lib_a-errno.o)
 .comment       0x00000000       0x31 c:/program files (x86)/atmel/atmel toolchain/avr32 gcc/native/3.4.2.1002/avr32-gnu-toolchain/bin/../lib/gcc/avr32/4.4.7/../../../../avr32/lib/ucr3fp\libc.a(lib_a-impure.o)
 .comment       0x00000000       0x31 c:/program files (x86)/atmel/atmel toolchain/avr32 gcc/native/3.4.2.1002/avr32-gnu-toolchain/bin/../lib/gcc/avr32/4.4.7/../../../../avr32/lib/ucr3fp\libc.a(lib_a-memset.o)
 .comment       0x00000000       0x31 c:/program files (x86)/atmel/atmel toolchain/avr32 gcc/native/3.4.2.1002/avr32-gnu-toolchain/bin/../lib/gcc/avr32/4.4.7/../../../../avr32/lib/ucr3fp\libc.a(lib_a-strcpy.o)
 .comment       0x00000000       0x31 c:/program files (x86)/atmel/atmel toolchain/avr32 gcc/native/3.4.2.1002/avr32-gnu-toolchain/bin/../lib/gcc/avr32/4.4.7/../../../../avr32/lib/ucr3fp\libc.a(lib_a-strlen.o)
 .comment       0x00000000       0x31 c:/program files (x86)/atmel/atmel toolchain/avr32 gcc/native/3.4.2.1002/avr32-gnu-toolchain/bin/../lib/gcc/avr32/4.4.7/../../../../avr32/lib/ucr3fp\libc.a(lib_a-findfp.o)

.debug
 *(.debug)

.line
 *(.line)

.debug_srcinfo
 *(.debug_srcinfo)

.debug_sfnames
 *(.debug_sfnames)

.debug_aranges  0x00000000      0xc08
 *(.debug_aranges)
 .debug_aranges
                0x00000000       0x20 Library/communication/mavlink_waypoint_handler.o
 .debug_aranges
                0x00000020       0x20 Library/control/orca.o
 .debug_aranges
                0x00000040       0x20 Library/control/pid_control.o
 .debug_aranges
                0x00000060       0x20 Library/control/stabilisation_copter.o
 .debug_aranges
                0x00000080       0x20 Library/hal/analog_monitor.o
 .debug_aranges
                0x000000a0       0x20 Library/hal/i2c_driver_int.o
 .debug_aranges
                0x000000c0       0x20 Library/hal/time_keeper.o
 .debug_aranges
                0x000000e0       0x20 Library/sensing/estimator.o
 .debug_aranges
                0x00000100       0x20 Library/sensing/neighbor_selection.o
 .debug_aranges
                0x00000120       0x20 Library/sensing/position_estimation.o
 .debug_aranges
                0x00000140       0x20 Library/sensing/qfilter.o
 .debug_aranges
                0x00000160       0x20 src/central_data.o
 .debug_aranges
                0x00000180       0x20 src/mavlink_actions.o
 .debug_aranges
                0x000001a0       0x20 src/tasks.o
 .debug_aranges
                0x000001c0       0x20 Library/communication/ishtar_stream.o
 .debug_aranges
                0x000001e0       0x20 Library/communication/mavlink_stream.o
 .debug_aranges
                0x00000200       0x20 Library/communication/onboard_parameters.o
 .debug_aranges
                0x00000220       0x20 Library/control/navigation.o
 .debug_aranges
                0x00000240       0x20 Library/control/stabilisation.o
 .debug_aranges
                0x00000260       0x20 Library/hal/adc_int.o
 .debug_aranges
                0x00000280       0x20 Library/hal/ads1274.o
 .debug_aranges
                0x000002a0       0x20 Library/hal/adxl345_driver.o
 .debug_aranges
                0x000002c0       0x20 Library/hal/bmp085.o
 .debug_aranges
                0x000002e0       0x20 Library/hal/compass_hmc5883l.o
 .debug_aranges
                0x00000300       0x20 Library/hal/dac_dma.o
 .debug_aranges
                0x00000320       0x20 Library/hal/itg3200_driver.o
 .debug_aranges
                0x00000340       0x20 Library/hal/led.o
 .debug_aranges
                0x00000360       0x20 Library/hal/radar_module_driver.o
 .debug_aranges
                0x00000380       0x20 Library/hal/servo_pwm.o
 .debug_aranges
                0x000003a0       0x20 Library/hal/remote_dsm2.o
 .debug_aranges
                0x000003c0       0x20 Library/hal/spi_buffered.o
 .debug_aranges
                0x000003e0       0x20 Library/hal/uart_int.o
 .debug_aranges
                0x00000400       0x20 Library/runtime/scheduler.o
 .debug_aranges
                0x00000420       0x20 Library/sensing/gps_ublox.o
 .debug_aranges
                0x00000440       0x20 Library/sensing/imu.o
 .debug_aranges
                0x00000460       0x20 Library/sensing/simulation.o
 .debug_aranges
                0x00000480       0x20 Library/util/buffer.o
 .debug_aranges
                0x000004a0       0x20 Library/util/coord_conventions.o
 .debug_aranges
                0x000004c0       0x20 Library/util/print_util.o
 .debug_aranges
                0x000004e0       0x20 src/asf/avr32/drivers/adcifa/adcifa.o
 .debug_aranges
                0x00000500       0x20 src/asf/avr32/drivers/ast/ast.o
 .debug_aranges
                0x00000520       0x20 src/asf/avr32/drivers/dacifb/dacifb.o
 .debug_aranges
                0x00000540       0x20 src/asf/avr32/drivers/eic/eic.o
 .debug_aranges
                0x00000560       0x20 src/asf/avr32/drivers/flashc/flashc.o
 .debug_aranges
                0x00000580       0x20 src/asf/avr32/drivers/gpio/gpio.o
 .debug_aranges
                0x000005a0       0x20 src/asf/avr32/drivers/intc/exception.o
 .debug_aranges
                0x000005c0       0x20 src/asf/avr32/drivers/intc/intc.o
 .debug_aranges
                0x000005e0       0x20 src/asf/avr32/drivers/pdca/pdca.o
 .debug_aranges
                0x00000600       0x20 src/asf/avr32/drivers/pevc/pevc.o
 .debug_aranges
                0x00000620       0x20 src/asf/avr32/drivers/scif/scif_uc3c.o
 .debug_aranges
                0x00000640       0x20 src/asf/avr32/drivers/spi/spi.o
 .debug_aranges
                0x00000660       0x20 src/asf/avr32/drivers/twim/twim.o
 .debug_aranges
                0x00000680       0x20 src/asf/avr32/drivers/usart/usart.o
 .debug_aranges
                0x000006a0       0x20 src/asf/avr32/services/delay/delay.o
 .debug_aranges
                0x000006c0       0x28 src/asf/avr32/utils/startup/startup_uc3.o
 .debug_aranges
                0x000006e8       0x20 src/asf/avr32/utils/startup/trampoline_uc3.o
 .debug_aranges
                0x00000708       0x20 src/asf/common/boards/user_board/init.o
 .debug_aranges
                0x00000728       0x20 src/asf/common/services/clock/uc3c/osc.o
 .debug_aranges
                0x00000748       0x20 src/asf/common/services/clock/uc3c/pll.o
 .debug_aranges
                0x00000768       0x20 src/asf/common/services/clock/uc3c/sysclk.o
 .debug_aranges
                0x00000788       0x20 src/asf/common/services/spi/uc3_spi/spi_master.o
 .debug_aranges
                0x000007a8       0x20 src/boardsupport.o
 .debug_aranges
                0x000007c8       0x20 src/main.o
 .debug_aranges
                0x000007e8       0x20 c:/program files (x86)/atmel/atmel toolchain/avr32 gcc/native/3.4.2.1002/avr32-gnu-toolchain/bin/../lib/gcc/avr32/4.4.7/../../../../avr32/lib/ucr3fp\libm.a(lib_a-s_cos.o)
 .debug_aranges
                0x00000808       0x20 c:/program files (x86)/atmel/atmel toolchain/avr32 gcc/native/3.4.2.1002/avr32-gnu-toolchain/bin/../lib/gcc/avr32/4.4.7/../../../../avr32/lib/ucr3fp\libm.a(lib_a-s_sin.o)
 .debug_aranges
                0x00000828       0x20 c:/program files (x86)/atmel/atmel toolchain/avr32 gcc/native/3.4.2.1002/avr32-gnu-toolchain/bin/../lib/gcc/avr32/4.4.7/../../../../avr32/lib/ucr3fp\libm.a(lib_a-w_asin.o)
 .debug_aranges
                0x00000848       0x20 c:/program files (x86)/atmel/atmel toolchain/avr32 gcc/native/3.4.2.1002/avr32-gnu-toolchain/bin/../lib/gcc/avr32/4.4.7/../../../../avr32/lib/ucr3fp\libm.a(lib_a-w_atan2.o)
 .debug_aranges
                0x00000868       0x20 c:/program files (x86)/atmel/atmel toolchain/avr32 gcc/native/3.4.2.1002/avr32-gnu-toolchain/bin/../lib/gcc/avr32/4.4.7/../../../../avr32/lib/ucr3fp\libm.a(lib_a-w_pow.o)
 .debug_aranges
                0x00000888       0x20 c:/program files (x86)/atmel/atmel toolchain/avr32 gcc/native/3.4.2.1002/avr32-gnu-toolchain/bin/../lib/gcc/avr32/4.4.7/../../../../avr32/lib/ucr3fp\libm.a(lib_a-w_sqrt.o)
 .debug_aranges
                0x000008a8       0x20 c:/program files (x86)/atmel/atmel toolchain/avr32 gcc/native/3.4.2.1002/avr32-gnu-toolchain/bin/../lib/gcc/avr32/4.4.7/../../../../avr32/lib/ucr3fp\libm.a(lib_a-e_asin.o)
 .debug_aranges
                0x000008c8       0x20 c:/program files (x86)/atmel/atmel toolchain/avr32 gcc/native/3.4.2.1002/avr32-gnu-toolchain/bin/../lib/gcc/avr32/4.4.7/../../../../avr32/lib/ucr3fp\libm.a(lib_a-e_atan2.o)
 .debug_aranges
                0x000008e8       0x20 c:/program files (x86)/atmel/atmel toolchain/avr32 gcc/native/3.4.2.1002/avr32-gnu-toolchain/bin/../lib/gcc/avr32/4.4.7/../../../../avr32/lib/ucr3fp\libm.a(lib_a-e_pow.o)
 .debug_aranges
                0x00000908       0x20 c:/program files (x86)/atmel/atmel toolchain/avr32 gcc/native/3.4.2.1002/avr32-gnu-toolchain/bin/../lib/gcc/avr32/4.4.7/../../../../avr32/lib/ucr3fp\libm.a(lib_a-e_rem_pio2.o)
 .debug_aranges
                0x00000928       0x20 c:/program files (x86)/atmel/atmel toolchain/avr32 gcc/native/3.4.2.1002/avr32-gnu-toolchain/bin/../lib/gcc/avr32/4.4.7/../../../../avr32/lib/ucr3fp\libm.a(lib_a-e_sqrt.o)
 .debug_aranges
                0x00000948       0x20 c:/program files (x86)/atmel/atmel toolchain/avr32 gcc/native/3.4.2.1002/avr32-gnu-toolchain/bin/../lib/gcc/avr32/4.4.7/../../../../avr32/lib/ucr3fp\libm.a(lib_a-k_cos.o)
 .debug_aranges
                0x00000968       0x20 c:/program files (x86)/atmel/atmel toolchain/avr32 gcc/native/3.4.2.1002/avr32-gnu-toolchain/bin/../lib/gcc/avr32/4.4.7/../../../../avr32/lib/ucr3fp\libm.a(lib_a-k_rem_pio2.o)
 .debug_aranges
                0x00000988       0x20 c:/program files (x86)/atmel/atmel toolchain/avr32 gcc/native/3.4.2.1002/avr32-gnu-toolchain/bin/../lib/gcc/avr32/4.4.7/../../../../avr32/lib/ucr3fp\libm.a(lib_a-k_sin.o)
 .debug_aranges
                0x000009a8       0x20 c:/program files (x86)/atmel/atmel toolchain/avr32 gcc/native/3.4.2.1002/avr32-gnu-toolchain/bin/../lib/gcc/avr32/4.4.7/../../../../avr32/lib/ucr3fp\libm.a(lib_a-s_atan.o)
 .debug_aranges
                0x000009c8       0x20 c:/program files (x86)/atmel/atmel toolchain/avr32 gcc/native/3.4.2.1002/avr32-gnu-toolchain/bin/../lib/gcc/avr32/4.4.7/../../../../avr32/lib/ucr3fp\libm.a(lib_a-s_fabs.o)
 .debug_aranges
                0x000009e8       0x20 c:/program files (x86)/atmel/atmel toolchain/avr32 gcc/native/3.4.2.1002/avr32-gnu-toolchain/bin/../lib/gcc/avr32/4.4.7/../../../../avr32/lib/ucr3fp\libm.a(lib_a-s_finite.o)
 .debug_aranges
                0x00000a08       0x20 c:/program files (x86)/atmel/atmel toolchain/avr32 gcc/native/3.4.2.1002/avr32-gnu-toolchain/bin/../lib/gcc/avr32/4.4.7/../../../../avr32/lib/ucr3fp\libm.a(lib_a-s_floor.o)
 .debug_aranges
                0x00000a28       0x20 c:/program files (x86)/atmel/atmel toolchain/avr32 gcc/native/3.4.2.1002/avr32-gnu-toolchain/bin/../lib/gcc/avr32/4.4.7/../../../../avr32/lib/ucr3fp\libm.a(lib_a-s_isnand.o)
 .debug_aranges
                0x00000a48       0x20 c:/program files (x86)/atmel/atmel toolchain/avr32 gcc/native/3.4.2.1002/avr32-gnu-toolchain/bin/../lib/gcc/avr32/4.4.7/../../../../avr32/lib/ucr3fp\libm.a(lib_a-s_matherr.o)
 .debug_aranges
                0x00000a68       0x20 c:/program files (x86)/atmel/atmel toolchain/avr32 gcc/native/3.4.2.1002/avr32-gnu-toolchain/bin/../lib/gcc/avr32/4.4.7/../../../../avr32/lib/ucr3fp\libm.a(lib_a-s_nan.o)
 .debug_aranges
                0x00000a88       0x20 c:/program files (x86)/atmel/atmel toolchain/avr32 gcc/native/3.4.2.1002/avr32-gnu-toolchain/bin/../lib/gcc/avr32/4.4.7/../../../../avr32/lib/ucr3fp\libm.a(lib_a-s_rint.o)
 .debug_aranges
                0x00000aa8       0x20 c:/program files (x86)/atmel/atmel toolchain/avr32 gcc/native/3.4.2.1002/avr32-gnu-toolchain/bin/../lib/gcc/avr32/4.4.7/../../../../avr32/lib/ucr3fp\libm.a(lib_a-s_scalbn.o)
 .debug_aranges
                0x00000ac8       0x20 c:/program files (x86)/atmel/atmel toolchain/avr32 gcc/native/3.4.2.1002/avr32-gnu-toolchain/bin/../lib/gcc/avr32/4.4.7/../../../../avr32/lib/ucr3fp\libm.a(lib_a-s_copysign.o)
 .debug_aranges
                0x00000ae8       0x20 c:/program files (x86)/atmel/atmel toolchain/avr32 gcc/native/3.4.2.1002/avr32-gnu-toolchain/bin/../lib/gcc/avr32/4.4.7/ucr3fp\libgcc.a(_udivdi3.o)
 .debug_aranges
                0x00000b08       0x20 c:/program files (x86)/atmel/atmel toolchain/avr32 gcc/native/3.4.2.1002/avr32-gnu-toolchain/bin/../lib/gcc/avr32/4.4.7/../../../../avr32/lib/ucr3fp\libc.a(lib_a-errno.o)
 .debug_aranges
                0x00000b28       0x20 c:/program files (x86)/atmel/atmel toolchain/avr32 gcc/native/3.4.2.1002/avr32-gnu-toolchain/bin/../lib/gcc/avr32/4.4.7/../../../../avr32/lib/ucr3fp\libc.a(lib_a-memset.o)
 .debug_aranges
                0x00000b48       0x20 c:/program files (x86)/atmel/atmel toolchain/avr32 gcc/native/3.4.2.1002/avr32-gnu-toolchain/bin/../lib/gcc/avr32/4.4.7/../../../../avr32/lib/ucr3fp\libc.a(lib_a-strcpy.o)
 .debug_aranges
                0x00000b68       0x20 c:/program files (x86)/atmel/atmel toolchain/avr32 gcc/native/3.4.2.1002/avr32-gnu-toolchain/bin/../lib/gcc/avr32/4.4.7/../../../../avr32/lib/ucr3fp\libc.a(lib_a-strlen.o)
 .debug_aranges
                0x00000b88       0x80 c:/program files (x86)/atmel/atmel toolchain/avr32 gcc/native/3.4.2.1002/avr32-gnu-toolchain/bin/../lib/gcc/avr32/4.4.7/../../../../avr32/lib/ucr3fp\libc.a(lib_a-findfp.o)

.debug_pubnames
                0x00000000     0x7a1c
 *(.debug_pubnames)
 .debug_pubnames
                0x00000000      0x419 Library/communication/mavlink_waypoint_handler.o
 .debug_pubnames
                0x00000419      0x329 Library/control/orca.o
 .debug_pubnames
                0x00000742       0x93 Library/control/pid_control.o
 .debug_pubnames
                0x000007d5      0x2f5 Library/control/stabilisation_copter.o
 .debug_pubnames
                0x00000aca       0xc7 Library/hal/analog_monitor.o
 .debug_pubnames
                0x00000b91       0x5a Library/hal/i2c_driver_int.o
 .debug_pubnames
                0x00000beb       0x7a Library/hal/time_keeper.o
 .debug_pubnames
                0x00000c65      0x3d4 Library/sensing/estimator.o
 .debug_pubnames
                0x00001039      0x2b0 Library/sensing/neighbor_selection.o
 .debug_pubnames
                0x000012e9      0x21c Library/sensing/position_estimation.o
 .debug_pubnames
                0x00001505       0x3e Library/sensing/qfilter.o
 .debug_pubnames
                0x00001543      0x31c src/central_data.o
 .debug_pubnames
                0x0000185f      0x560 src/mavlink_actions.o
 .debug_pubnames
                0x00001dbf      0x379 src/tasks.o
 .debug_pubnames
                0x00002138      0x318 Library/communication/ishtar_stream.o
 .debug_pubnames
                0x00002450      0x35d Library/communication/mavlink_stream.o
 .debug_pubnames
                0x000027ad      0x323 Library/communication/onboard_parameters.o
 .debug_pubnames
                0x00002ad0      0x309 Library/control/navigation.o
 .debug_pubnames
                0x00002dd9      0x1ad Library/control/stabilisation.o
 .debug_pubnames
                0x00002f86      0x181 Library/hal/adc_int.o
 .debug_pubnames
                0x00003107      0x153 Library/hal/ads1274.o
 .debug_pubnames
                0x0000325a       0x6f Library/hal/adxl345_driver.o
 .debug_pubnames
                0x000032c9       0xe4 Library/hal/bmp085.o
 .debug_pubnames
                0x000033ad       0x42 Library/hal/compass_hmc5883l.o
 .debug_pubnames
                0x000033ef       0xde Library/hal/dac_dma.o
 .debug_pubnames
                0x000034cd       0x6b Library/hal/itg3200_driver.o
 .debug_pubnames
                0x00003538       0xf6 Library/hal/led.o
 .debug_pubnames
                0x0000362e       0x62 Library/hal/radar_module_driver.o
 .debug_pubnames
                0x00003690       0x3f Library/hal/servo_pwm.o
 .debug_pubnames
                0x000036cf      0x254 Library/hal/remote_dsm2.o
 .debug_pubnames
                0x00003923      0x1a7 Library/hal/spi_buffered.o
 .debug_pubnames
                0x00003aca       0xfc Library/hal/uart_int.o
 .debug_pubnames
                0x00003bc6       0xee Library/runtime/scheduler.o
 .debug_pubnames
                0x00003cb4      0xa6c Library/sensing/gps_ublox.o
 .debug_pubnames
                0x00004720      0x1eb Library/sensing/imu.o
 .debug_pubnames
                0x0000490b      0x300 Library/sensing/simulation.o
 .debug_pubnames
                0x00004c0b       0xda Library/util/buffer.o
 .debug_pubnames
                0x00004ce5       0x69 Library/util/coord_conventions.o
 .debug_pubnames
                0x00004d4e      0x11c Library/util/print_util.o
 .debug_pubnames
                0x00004e6a      0x177 src/asf/avr32/drivers/adcifa/adcifa.o
 .debug_pubnames
                0x00004fe1      0x1e0 src/asf/avr32/drivers/ast/ast.o
 .debug_pubnames
                0x000051c1       0xbf src/asf/avr32/drivers/dacifb/dacifb.o
 .debug_pubnames
                0x00005280      0x186 src/asf/avr32/drivers/eic/eic.o
 .debug_pubnames
                0x00005406      0x79d src/asf/avr32/drivers/flashc/flashc.o
 .debug_pubnames
                0x00005ba3      0x3aa src/asf/avr32/drivers/gpio/gpio.o
 .debug_pubnames
                0x00005f4d       0x62 src/asf/avr32/drivers/intc/intc.o
 .debug_pubnames
                0x00005faf      0x275 src/asf/avr32/drivers/pdca/pdca.o
 .debug_pubnames
                0x00006224      0x2b6 src/asf/avr32/drivers/pevc/pevc.o
 .debug_pubnames
                0x000064da      0x3f6 src/asf/avr32/drivers/scif/scif_uc3c.o
 .debug_pubnames
                0x000068d0      0x178 src/asf/avr32/drivers/spi/spi.o
 .debug_pubnames
                0x00006a48       0xd6 src/asf/avr32/drivers/twim/twim.o
 .debug_pubnames
                0x00006b1e      0x227 src/asf/avr32/drivers/usart/usart.o
 .debug_pubnames
                0x00006d45       0x2e src/asf/avr32/services/delay/delay.o
 .debug_pubnames
                0x00006d73       0x21 src/asf/common/boards/user_board/init.o
 .debug_pubnames
                0x00006d94       0xe4 src/asf/common/services/clock/uc3c/osc.o
 .debug_pubnames
                0x00006e78       0x46 src/asf/common/services/clock/uc3c/pll.o
 .debug_pubnames
                0x00006ebe       0xbc src/asf/common/services/clock/uc3c/sysclk.o
 .debug_pubnames
                0x00006f7a       0x25 src/asf/common/services/sleepmgr/uc3/sleepmgr.o
 .debug_pubnames
                0x00006f9f       0x57 src/asf/common/services/spi/uc3_spi/spi_master.o
 .debug_pubnames
                0x00006ff6      0x286 src/boardsupport.o
 .debug_pubnames
                0x0000727c      0x2ab src/main.o
 .debug_pubnames
                0x00007527       0x1a c:/program files (x86)/atmel/atmel toolchain/avr32 gcc/native/3.4.2.1002/avr32-gnu-toolchain/bin/../lib/gcc/avr32/4.4.7/../../../../avr32/lib/ucr3fp\libm.a(lib_a-s_cos.o)
 .debug_pubnames
                0x00007541       0x1a c:/program files (x86)/atmel/atmel toolchain/avr32 gcc/native/3.4.2.1002/avr32-gnu-toolchain/bin/../lib/gcc/avr32/4.4.7/../../../../avr32/lib/ucr3fp\libm.a(lib_a-s_sin.o)
 .debug_pubnames
                0x0000755b       0x1b c:/program files (x86)/atmel/atmel toolchain/avr32 gcc/native/3.4.2.1002/avr32-gnu-toolchain/bin/../lib/gcc/avr32/4.4.7/../../../../avr32/lib/ucr3fp\libm.a(lib_a-w_asin.o)
 .debug_pubnames
                0x00007576       0x1c c:/program files (x86)/atmel/atmel toolchain/avr32 gcc/native/3.4.2.1002/avr32-gnu-toolchain/bin/../lib/gcc/avr32/4.4.7/../../../../avr32/lib/ucr3fp\libm.a(lib_a-w_atan2.o)
 .debug_pubnames
                0x00007592       0x1a c:/program files (x86)/atmel/atmel toolchain/avr32 gcc/native/3.4.2.1002/avr32-gnu-toolchain/bin/../lib/gcc/avr32/4.4.7/../../../../avr32/lib/ucr3fp\libm.a(lib_a-w_pow.o)
 .debug_pubnames
                0x000075ac       0x1b c:/program files (x86)/atmel/atmel toolchain/avr32 gcc/native/3.4.2.1002/avr32-gnu-toolchain/bin/../lib/gcc/avr32/4.4.7/../../../../avr32/lib/ucr3fp\libm.a(lib_a-w_sqrt.o)
 .debug_pubnames
                0x000075c7       0x25 c:/program files (x86)/atmel/atmel toolchain/avr32 gcc/native/3.4.2.1002/avr32-gnu-toolchain/bin/../lib/gcc/avr32/4.4.7/../../../../avr32/lib/ucr3fp\libm.a(lib_a-e_asin.o)
 .debug_pubnames
                0x000075ec       0x26 c:/program files (x86)/atmel/atmel toolchain/avr32 gcc/native/3.4.2.1002/avr32-gnu-toolchain/bin/../lib/gcc/avr32/4.4.7/../../../../avr32/lib/ucr3fp\libm.a(lib_a-e_atan2.o)
 .debug_pubnames
                0x00007612       0x24 c:/program files (x86)/atmel/atmel toolchain/avr32 gcc/native/3.4.2.1002/avr32-gnu-toolchain/bin/../lib/gcc/avr32/4.4.7/../../../../avr32/lib/ucr3fp\libm.a(lib_a-e_pow.o)
 .debug_pubnames
                0x00007636       0x29 c:/program files (x86)/atmel/atmel toolchain/avr32 gcc/native/3.4.2.1002/avr32-gnu-toolchain/bin/../lib/gcc/avr32/4.4.7/../../../../avr32/lib/ucr3fp\libm.a(lib_a-e_rem_pio2.o)
 .debug_pubnames
                0x0000765f       0x25 c:/program files (x86)/atmel/atmel toolchain/avr32 gcc/native/3.4.2.1002/avr32-gnu-toolchain/bin/../lib/gcc/avr32/4.4.7/../../../../avr32/lib/ucr3fp\libm.a(lib_a-e_sqrt.o)
 .debug_pubnames
                0x00007684       0x23 c:/program files (x86)/atmel/atmel toolchain/avr32 gcc/native/3.4.2.1002/avr32-gnu-toolchain/bin/../lib/gcc/avr32/4.4.7/../../../../avr32/lib/ucr3fp\libm.a(lib_a-k_cos.o)
 .debug_pubnames
                0x000076a7       0x28 c:/program files (x86)/atmel/atmel toolchain/avr32 gcc/native/3.4.2.1002/avr32-gnu-toolchain/bin/../lib/gcc/avr32/4.4.7/../../../../avr32/lib/ucr3fp\libm.a(lib_a-k_rem_pio2.o)
 .debug_pubnames
                0x000076cf       0x23 c:/program files (x86)/atmel/atmel toolchain/avr32 gcc/native/3.4.2.1002/avr32-gnu-toolchain/bin/../lib/gcc/avr32/4.4.7/../../../../avr32/lib/ucr3fp\libm.a(lib_a-k_sin.o)
 .debug_pubnames
                0x000076f2       0x1b c:/program files (x86)/atmel/atmel toolchain/avr32 gcc/native/3.4.2.1002/avr32-gnu-toolchain/bin/../lib/gcc/avr32/4.4.7/../../../../avr32/lib/ucr3fp\libm.a(lib_a-s_atan.o)
 .debug_pubnames
                0x0000770d       0x1b c:/program files (x86)/atmel/atmel toolchain/avr32 gcc/native/3.4.2.1002/avr32-gnu-toolchain/bin/../lib/gcc/avr32/4.4.7/../../../../avr32/lib/ucr3fp\libm.a(lib_a-s_fabs.o)
 .debug_pubnames
                0x00007728       0x1d c:/program files (x86)/atmel/atmel toolchain/avr32 gcc/native/3.4.2.1002/avr32-gnu-toolchain/bin/../lib/gcc/avr32/4.4.7/../../../../avr32/lib/ucr3fp\libm.a(lib_a-s_finite.o)
 .debug_pubnames
                0x00007745       0x1c c:/program files (x86)/atmel/atmel toolchain/avr32 gcc/native/3.4.2.1002/avr32-gnu-toolchain/bin/../lib/gcc/avr32/4.4.7/../../../../avr32/lib/ucr3fp\libm.a(lib_a-s_floor.o)
 .debug_pubnames
                0x00007761       0x1f c:/program files (x86)/atmel/atmel toolchain/avr32 gcc/native/3.4.2.1002/avr32-gnu-toolchain/bin/../lib/gcc/avr32/4.4.7/../../../../avr32/lib/ucr3fp\libm.a(lib_a-s_isnand.o)
 .debug_pubnames
                0x00007780       0x26 c:/program files (x86)/atmel/atmel toolchain/avr32 gcc/native/3.4.2.1002/avr32-gnu-toolchain/bin/../lib/gcc/avr32/4.4.7/../../../../avr32/lib/ucr3fp\libm.a(lib_a-s_lib_ver.o)
 .debug_pubnames
                0x000077a6       0x1e c:/program files (x86)/atmel/atmel toolchain/avr32 gcc/native/3.4.2.1002/avr32-gnu-toolchain/bin/../lib/gcc/avr32/4.4.7/../../../../avr32/lib/ucr3fp\libm.a(lib_a-s_matherr.o)
 .debug_pubnames
                0x000077c4       0x1a c:/program files (x86)/atmel/atmel toolchain/avr32 gcc/native/3.4.2.1002/avr32-gnu-toolchain/bin/../lib/gcc/avr32/4.4.7/../../../../avr32/lib/ucr3fp\libm.a(lib_a-s_nan.o)
 .debug_pubnames
                0x000077de       0x1b c:/program files (x86)/atmel/atmel toolchain/avr32 gcc/native/3.4.2.1002/avr32-gnu-toolchain/bin/../lib/gcc/avr32/4.4.7/../../../../avr32/lib/ucr3fp\libm.a(lib_a-s_rint.o)
 .debug_pubnames
                0x000077f9       0x1d c:/program files (x86)/atmel/atmel toolchain/avr32 gcc/native/3.4.2.1002/avr32-gnu-toolchain/bin/../lib/gcc/avr32/4.4.7/../../../../avr32/lib/ucr3fp\libm.a(lib_a-s_scalbn.o)
 .debug_pubnames
                0x00007816       0x1f c:/program files (x86)/atmel/atmel toolchain/avr32 gcc/native/3.4.2.1002/avr32-gnu-toolchain/bin/../lib/gcc/avr32/4.4.7/../../../../avr32/lib/ucr3fp\libm.a(lib_a-s_copysign.o)
 .debug_pubnames
                0x00007835       0x20 c:/program files (x86)/atmel/atmel toolchain/avr32 gcc/native/3.4.2.1002/avr32-gnu-toolchain/bin/../lib/gcc/avr32/4.4.7/ucr3fp\libgcc.a(_udivdi3.o)
 .debug_pubnames
                0x00007855       0x1e c:/program files (x86)/atmel/atmel toolchain/avr32 gcc/native/3.4.2.1002/avr32-gnu-toolchain/bin/../lib/gcc/avr32/4.4.7/../../../../avr32/lib/ucr3fp\libc.a(lib_a-errno.o)
 .debug_pubnames
                0x00007873       0x39 c:/program files (x86)/atmel/atmel toolchain/avr32 gcc/native/3.4.2.1002/avr32-gnu-toolchain/bin/../lib/gcc/avr32/4.4.7/../../../../avr32/lib/ucr3fp\libc.a(lib_a-impure.o)
 .debug_pubnames
                0x000078ac       0x1d c:/program files (x86)/atmel/atmel toolchain/avr32 gcc/native/3.4.2.1002/avr32-gnu-toolchain/bin/../lib/gcc/avr32/4.4.7/../../../../avr32/lib/ucr3fp\libc.a(lib_a-memset.o)
 .debug_pubnames
                0x000078c9       0x1d c:/program files (x86)/atmel/atmel toolchain/avr32 gcc/native/3.4.2.1002/avr32-gnu-toolchain/bin/../lib/gcc/avr32/4.4.7/../../../../avr32/lib/ucr3fp\libc.a(lib_a-strcpy.o)
 .debug_pubnames
                0x000078e6       0x1d c:/program files (x86)/atmel/atmel toolchain/avr32 gcc/native/3.4.2.1002/avr32-gnu-toolchain/bin/../lib/gcc/avr32/4.4.7/../../../../avr32/lib/ucr3fp\libc.a(lib_a-strlen.o)
 .debug_pubnames
                0x00007903      0x119 c:/program files (x86)/atmel/atmel toolchain/avr32 gcc/native/3.4.2.1002/avr32-gnu-toolchain/bin/../lib/gcc/avr32/4.4.7/../../../../avr32/lib/ucr3fp\libc.a(lib_a-findfp.o)

.debug_info     0x00000000    0x5e5a2
 *(.debug_info .gnu.linkonce.wi.*)
 .debug_info    0x00000000     0x319a Library/communication/mavlink_waypoint_handler.o
 .debug_info    0x0000319a     0x2102 Library/control/orca.o
 .debug_info    0x0000529c      0x4f4 Library/control/pid_control.o
 .debug_info    0x00005790     0x1868 Library/control/stabilisation_copter.o
 .debug_info    0x00006ff8      0x186 Library/hal/analog_monitor.o
 .debug_info    0x0000717e      0xebd Library/hal/i2c_driver_int.o
 .debug_info    0x0000803b      0xc2e Library/hal/time_keeper.o
 .debug_info    0x00008c69     0x1dfc Library/sensing/estimator.o
 .debug_info    0x0000aa65     0x1cc7 Library/sensing/neighbor_selection.o
 .debug_info    0x0000c72c      0xe0b Library/sensing/position_estimation.o
 .debug_info    0x0000d537      0x680 Library/sensing/qfilter.o
 .debug_info    0x0000dbb7     0x171b src/central_data.o
 .debug_info    0x0000f2d2     0x34a9 src/mavlink_actions.o
 .debug_info    0x0001277b     0x1c32 src/tasks.o
 .debug_info    0x000143ad     0x335c Library/communication/ishtar_stream.o
 .debug_info    0x00017709     0x251b Library/communication/mavlink_stream.o
 .debug_info    0x00019c24     0x122b Library/communication/onboard_parameters.o
 .debug_info    0x0001ae4f     0x1ac5 Library/control/navigation.o
 .debug_info    0x0001c914      0x730 Library/control/stabilisation.o
 .debug_info    0x0001d044     0x1d39 Library/hal/adc_int.o
 .debug_info    0x0001ed7d     0x4119 Library/hal/ads1274.o
 .debug_info    0x00022e96      0xd41 Library/hal/adxl345_driver.o
 .debug_info    0x00023bd7     0x10fb Library/hal/bmp085.o
 .debug_info    0x00024cd2      0xd39 Library/hal/compass_hmc5883l.o
 .debug_info    0x00025a0b     0x1b3e Library/hal/dac_dma.o
 .debug_info    0x00027549      0xd40 Library/hal/itg3200_driver.o
 .debug_info    0x00028289      0xac0 Library/hal/led.o
 .debug_info    0x00028d49      0xcd4 Library/hal/radar_module_driver.o
 .debug_info    0x00029a1d     0x2393 Library/hal/servo_pwm.o
 .debug_info    0x0002bdb0     0x2dc4 Library/hal/remote_dsm2.o
 .debug_info    0x0002eb74     0x1cde Library/hal/spi_buffered.o
 .debug_info    0x00030852     0x2c69 Library/hal/uart_int.o
 .debug_info    0x000334bb      0x5d7 Library/runtime/scheduler.o
 .debug_info    0x00033a92     0x27ec Library/sensing/gps_ublox.o
 .debug_info    0x0003627e      0xd13 Library/sensing/imu.o
 .debug_info    0x00036f91     0x1c07 Library/sensing/simulation.o
 .debug_info    0x00038b98      0x3e8 Library/util/buffer.o
 .debug_info    0x00038f80      0x308 Library/util/coord_conventions.o
 .debug_info    0x00039288      0x65c Library/util/print_util.o
 .debug_info    0x000398e4     0x1de3 src/asf/avr32/drivers/adcifa/adcifa.o
 .debug_info    0x0003b6c7     0x1000 src/asf/avr32/drivers/ast/ast.o
 .debug_info    0x0003c6c7      0xf16 src/asf/avr32/drivers/dacifb/dacifb.o
 .debug_info    0x0003d5dd     0x18d2 src/asf/avr32/drivers/eic/eic.o
 .debug_info    0x0003eeaf     0x1e38 src/asf/avr32/drivers/flashc/flashc.o
 .debug_info    0x00040ce7      0xf66 src/asf/avr32/drivers/gpio/gpio.o
 .debug_info    0x00041c4d       0x83 src/asf/avr32/drivers/intc/exception.o
 .debug_info    0x00041cd0      0x81b src/asf/avr32/drivers/intc/intc.o
 .debug_info    0x000424eb      0xdfb src/asf/avr32/drivers/pdca/pdca.o
 .debug_info    0x000432e6      0x9d3 src/asf/avr32/drivers/pevc/pevc.o
 .debug_info    0x00043cb9     0x1d0b src/asf/avr32/drivers/scif/scif_uc3c.o
 .debug_info    0x000459c4     0x130d src/asf/avr32/drivers/spi/spi.o
 .debug_info    0x00046cd1     0x11fd src/asf/avr32/drivers/twim/twim.o
 .debug_info    0x00047ece     0x310f src/asf/avr32/drivers/usart/usart.o
 .debug_info    0x0004afdd      0x288 src/asf/avr32/services/delay/delay.o
 .debug_info    0x0004b265       0x82 src/asf/avr32/utils/startup/startup_uc3.o
 .debug_info    0x0004b2e7       0x89 src/asf/avr32/utils/startup/trampoline_uc3.o
 .debug_info    0x0004b370       0xa0 src/asf/common/boards/user_board/init.o
 .debug_info    0x0004b410     0x12ea src/asf/common/services/clock/uc3c/osc.o
 .debug_info    0x0004c6fa     0x1262 src/asf/common/services/clock/uc3c/pll.o
 .debug_info    0x0004d95c     0x2315 src/asf/common/services/clock/uc3c/sysclk.o
 .debug_info    0x0004fc71       0xf5 src/asf/common/services/sleepmgr/uc3/sleepmgr.o
 .debug_info    0x0004fd66     0x1270 src/asf/common/services/spi/uc3_spi/spi_master.o
 .debug_info    0x00050fd6     0x3f08 src/boardsupport.o
 .debug_info    0x00054ede     0x3fbb src/main.o
 .debug_info    0x00058e99      0x176 c:/program files (x86)/atmel/atmel toolchain/avr32 gcc/native/3.4.2.1002/avr32-gnu-toolchain/bin/../lib/gcc/avr32/4.4.7/../../../../avr32/lib/ucr3fp\libm.a(lib_a-s_cos.o)
 .debug_info    0x0005900f      0x176 c:/program files (x86)/atmel/atmel toolchain/avr32 gcc/native/3.4.2.1002/avr32-gnu-toolchain/bin/../lib/gcc/avr32/4.4.7/../../../../avr32/lib/ucr3fp\libm.a(lib_a-s_sin.o)
 .debug_info    0x00059185      0x189 c:/program files (x86)/atmel/atmel toolchain/avr32 gcc/native/3.4.2.1002/avr32-gnu-toolchain/bin/../lib/gcc/avr32/4.4.7/../../../../avr32/lib/ucr3fp\libm.a(lib_a-w_asin.o)
 .debug_info    0x0005930e       0xbf c:/program files (x86)/atmel/atmel toolchain/avr32 gcc/native/3.4.2.1002/avr32-gnu-toolchain/bin/../lib/gcc/avr32/4.4.7/../../../../avr32/lib/ucr3fp\libm.a(lib_a-w_atan2.o)
 .debug_info    0x000593cd      0x1c8 c:/program files (x86)/atmel/atmel toolchain/avr32 gcc/native/3.4.2.1002/avr32-gnu-toolchain/bin/../lib/gcc/avr32/4.4.7/../../../../avr32/lib/ucr3fp\libm.a(lib_a-w_pow.o)
 .debug_info    0x00059595      0x189 c:/program files (x86)/atmel/atmel toolchain/avr32 gcc/native/3.4.2.1002/avr32-gnu-toolchain/bin/../lib/gcc/avr32/4.4.7/../../../../avr32/lib/ucr3fp\libm.a(lib_a-w_sqrt.o)
 .debug_info    0x0005971e      0x308 c:/program files (x86)/atmel/atmel toolchain/avr32 gcc/native/3.4.2.1002/avr32-gnu-toolchain/bin/../lib/gcc/avr32/4.4.7/../../../../avr32/lib/ucr3fp\libm.a(lib_a-e_asin.o)
 .debug_info    0x00059a26      0x289 c:/program files (x86)/atmel/atmel toolchain/avr32 gcc/native/3.4.2.1002/avr32-gnu-toolchain/bin/../lib/gcc/avr32/4.4.7/../../../../avr32/lib/ucr3fp\libm.a(lib_a-e_atan2.o)
 .debug_info    0x00059caf      0x6b9 c:/program files (x86)/atmel/atmel toolchain/avr32 gcc/native/3.4.2.1002/avr32-gnu-toolchain/bin/../lib/gcc/avr32/4.4.7/../../../../avr32/lib/ucr3fp\libm.a(lib_a-e_pow.o)
 .debug_info    0x0005a368      0x356 c:/program files (x86)/atmel/atmel toolchain/avr32 gcc/native/3.4.2.1002/avr32-gnu-toolchain/bin/../lib/gcc/avr32/4.4.7/../../../../avr32/lib/ucr3fp\libm.a(lib_a-e_rem_pio2.o)
 .debug_info    0x0005a6be      0x229 c:/program files (x86)/atmel/atmel toolchain/avr32 gcc/native/3.4.2.1002/avr32-gnu-toolchain/bin/../lib/gcc/avr32/4.4.7/../../../../avr32/lib/ucr3fp\libm.a(lib_a-e_sqrt.o)
 .debug_info    0x0005a8e7      0x23e c:/program files (x86)/atmel/atmel toolchain/avr32 gcc/native/3.4.2.1002/avr32-gnu-toolchain/bin/../lib/gcc/avr32/4.4.7/../../../../avr32/lib/ucr3fp\libm.a(lib_a-k_cos.o)
 .debug_info    0x0005ab25      0x2d9 c:/program files (x86)/atmel/atmel toolchain/avr32 gcc/native/3.4.2.1002/avr32-gnu-toolchain/bin/../lib/gcc/avr32/4.4.7/../../../../avr32/lib/ucr3fp\libm.a(lib_a-k_rem_pio2.o)
 .debug_info    0x0005adfe      0x18c c:/program files (x86)/atmel/atmel toolchain/avr32 gcc/native/3.4.2.1002/avr32-gnu-toolchain/bin/../lib/gcc/avr32/4.4.7/../../../../avr32/lib/ucr3fp\libm.a(lib_a-k_sin.o)
 .debug_info    0x0005af8a      0x28b c:/program files (x86)/atmel/atmel toolchain/avr32 gcc/native/3.4.2.1002/avr32-gnu-toolchain/bin/../lib/gcc/avr32/4.4.7/../../../../avr32/lib/ucr3fp\libm.a(lib_a-s_atan.o)
 .debug_info    0x0005b215      0x138 c:/program files (x86)/atmel/atmel toolchain/avr32 gcc/native/3.4.2.1002/avr32-gnu-toolchain/bin/../lib/gcc/avr32/4.4.7/../../../../avr32/lib/ucr3fp\libm.a(lib_a-s_fabs.o)
 .debug_info    0x0005b34d      0x13b c:/program files (x86)/atmel/atmel toolchain/avr32 gcc/native/3.4.2.1002/avr32-gnu-toolchain/bin/../lib/gcc/avr32/4.4.7/../../../../avr32/lib/ucr3fp\libm.a(lib_a-s_finite.o)
 .debug_info    0x0005b488      0x1b4 c:/program files (x86)/atmel/atmel toolchain/avr32 gcc/native/3.4.2.1002/avr32-gnu-toolchain/bin/../lib/gcc/avr32/4.4.7/../../../../avr32/lib/ucr3fp\libm.a(lib_a-s_floor.o)
 .debug_info    0x0005b63c      0x14c c:/program files (x86)/atmel/atmel toolchain/avr32 gcc/native/3.4.2.1002/avr32-gnu-toolchain/bin/../lib/gcc/avr32/4.4.7/../../../../avr32/lib/ucr3fp\libm.a(lib_a-s_isnand.o)
 .debug_info    0x0005b788       0xc0 c:/program files (x86)/atmel/atmel toolchain/avr32 gcc/native/3.4.2.1002/avr32-gnu-toolchain/bin/../lib/gcc/avr32/4.4.7/../../../../avr32/lib/ucr3fp\libm.a(lib_a-s_lib_ver.o)
 .debug_info    0x0005b848      0x132 c:/program files (x86)/atmel/atmel toolchain/avr32 gcc/native/3.4.2.1002/avr32-gnu-toolchain/bin/../lib/gcc/avr32/4.4.7/../../../../avr32/lib/ucr3fp\libm.a(lib_a-s_matherr.o)
 .debug_info    0x0005b97a       0xc4 c:/program files (x86)/atmel/atmel toolchain/avr32 gcc/native/3.4.2.1002/avr32-gnu-toolchain/bin/../lib/gcc/avr32/4.4.7/../../../../avr32/lib/ucr3fp\libm.a(lib_a-s_nan.o)
 .debug_info    0x0005ba3e      0x201 c:/program files (x86)/atmel/atmel toolchain/avr32 gcc/native/3.4.2.1002/avr32-gnu-toolchain/bin/../lib/gcc/avr32/4.4.7/../../../../avr32/lib/ucr3fp\libm.a(lib_a-s_rint.o)
 .debug_info    0x0005bc3f      0x21b c:/program files (x86)/atmel/atmel toolchain/avr32 gcc/native/3.4.2.1002/avr32-gnu-toolchain/bin/../lib/gcc/avr32/4.4.7/../../../../avr32/lib/ucr3fp\libm.a(lib_a-s_scalbn.o)
 .debug_info    0x0005be5a      0x150 c:/program files (x86)/atmel/atmel toolchain/avr32 gcc/native/3.4.2.1002/avr32-gnu-toolchain/bin/../lib/gcc/avr32/4.4.7/../../../../avr32/lib/ucr3fp\libm.a(lib_a-s_copysign.o)
 .debug_info    0x0005bfaa      0x57b c:/program files (x86)/atmel/atmel toolchain/avr32 gcc/native/3.4.2.1002/avr32-gnu-toolchain/bin/../lib/gcc/avr32/4.4.7/ucr3fp\libgcc.a(_udivdi3.o)
 .debug_info    0x0005c525      0x8a6 c:/program files (x86)/atmel/atmel toolchain/avr32 gcc/native/3.4.2.1002/avr32-gnu-toolchain/bin/../lib/gcc/avr32/4.4.7/../../../../avr32/lib/ucr3fp\libc.a(lib_a-errno.o)
 .debug_info    0x0005cdcb      0x960 c:/program files (x86)/atmel/atmel toolchain/avr32 gcc/native/3.4.2.1002/avr32-gnu-toolchain/bin/../lib/gcc/avr32/4.4.7/../../../../avr32/lib/ucr3fp\libc.a(lib_a-impure.o)
 .debug_info    0x0005d72b       0xcd c:/program files (x86)/atmel/atmel toolchain/avr32 gcc/native/3.4.2.1002/avr32-gnu-toolchain/bin/../lib/gcc/avr32/4.4.7/../../../../avr32/lib/ucr3fp\libc.a(lib_a-memset.o)
 .debug_info    0x0005d7f8       0xc2 c:/program files (x86)/atmel/atmel toolchain/avr32 gcc/native/3.4.2.1002/avr32-gnu-toolchain/bin/../lib/gcc/avr32/4.4.7/../../../../avr32/lib/ucr3fp\libc.a(lib_a-strcpy.o)
 .debug_info    0x0005d8ba       0xbe c:/program files (x86)/atmel/atmel toolchain/avr32 gcc/native/3.4.2.1002/avr32-gnu-toolchain/bin/../lib/gcc/avr32/4.4.7/../../../../avr32/lib/ucr3fp\libc.a(lib_a-strlen.o)
 .debug_info    0x0005d978      0xc2a c:/program files (x86)/atmel/atmel toolchain/avr32 gcc/native/3.4.2.1002/avr32-gnu-toolchain/bin/../lib/gcc/avr32/4.4.7/../../../../avr32/lib/ucr3fp\libc.a(lib_a-findfp.o)

.debug_abbrev   0x00000000     0x9319
 *(.debug_abbrev)
 .debug_abbrev  0x00000000      0x304 Library/communication/mavlink_waypoint_handler.o
 .debug_abbrev  0x00000304      0x285 Library/control/orca.o
 .debug_abbrev  0x00000589      0x12e Library/control/pid_control.o
 .debug_abbrev  0x000006b7      0x1e2 Library/control/stabilisation_copter.o
 .debug_abbrev  0x00000899       0xc2 Library/hal/analog_monitor.o
 .debug_abbrev  0x0000095b      0x1ed Library/hal/i2c_driver_int.o
 .debug_abbrev  0x00000b48      0x12d Library/hal/time_keeper.o
 .debug_abbrev  0x00000c75      0x25b Library/sensing/estimator.o
 .debug_abbrev  0x00000ed0      0x25b Library/sensing/neighbor_selection.o
 .debug_abbrev  0x0000112b      0x181 Library/sensing/position_estimation.o
 .debug_abbrev  0x000012ac      0x141 Library/sensing/qfilter.o
 .debug_abbrev  0x000013ed      0x20c src/central_data.o
 .debug_abbrev  0x000015f9      0x2f9 src/mavlink_actions.o
 .debug_abbrev  0x000018f2      0x2bf src/tasks.o
 .debug_abbrev  0x00001bb1      0x286 Library/communication/ishtar_stream.o
 .debug_abbrev  0x00001e37      0x2a0 Library/communication/mavlink_stream.o
 .debug_abbrev  0x000020d7      0x22e Library/communication/onboard_parameters.o
 .debug_abbrev  0x00002305      0x21d Library/control/navigation.o
 .debug_abbrev  0x00002522      0x151 Library/control/stabilisation.o
 .debug_abbrev  0x00002673      0x1e3 Library/hal/adc_int.o
 .debug_abbrev  0x00002856      0x264 Library/hal/ads1274.o
 .debug_abbrev  0x00002aba      0x1ae Library/hal/adxl345_driver.o
 .debug_abbrev  0x00002c68      0x1d8 Library/hal/bmp085.o
 .debug_abbrev  0x00002e40      0x16a Library/hal/compass_hmc5883l.o
 .debug_abbrev  0x00002faa      0x229 Library/hal/dac_dma.o
 .debug_abbrev  0x000031d3      0x198 Library/hal/itg3200_driver.o
 .debug_abbrev  0x0000336b      0x206 Library/hal/led.o
 .debug_abbrev  0x00003571      0x17d Library/hal/radar_module_driver.o
 .debug_abbrev  0x000036ee      0x174 Library/hal/servo_pwm.o
 .debug_abbrev  0x00003862      0x2b3 Library/hal/remote_dsm2.o
 .debug_abbrev  0x00003b15      0x25c Library/hal/spi_buffered.o
 .debug_abbrev  0x00003d71      0x23f Library/hal/uart_int.o
 .debug_abbrev  0x00003fb0      0x129 Library/runtime/scheduler.o
 .debug_abbrev  0x000040d9      0x2a5 Library/sensing/gps_ublox.o
 .debug_abbrev  0x0000437e      0x1b9 Library/sensing/imu.o
 .debug_abbrev  0x00004537      0x1e2 Library/sensing/simulation.o
 .debug_abbrev  0x00004719      0x11f Library/util/buffer.o
 .debug_abbrev  0x00004838      0x118 Library/util/coord_conventions.o
 .debug_abbrev  0x00004950      0x149 Library/util/print_util.o
 .debug_abbrev  0x00004a99      0x1d1 src/asf/avr32/drivers/adcifa/adcifa.o
 .debug_abbrev  0x00004c6a      0x1b9 src/asf/avr32/drivers/ast/ast.o
 .debug_abbrev  0x00004e23      0x24f src/asf/avr32/drivers/dacifb/dacifb.o
 .debug_abbrev  0x00005072      0x1a7 src/asf/avr32/drivers/eic/eic.o
 .debug_abbrev  0x00005219      0x281 src/asf/avr32/drivers/flashc/flashc.o
 .debug_abbrev  0x0000549a      0x23b src/asf/avr32/drivers/gpio/gpio.o
 .debug_abbrev  0x000056d5       0x14 src/asf/avr32/drivers/intc/exception.o
 .debug_abbrev  0x000056e9      0x18e src/asf/avr32/drivers/intc/intc.o
 .debug_abbrev  0x00005877      0x1fc src/asf/avr32/drivers/pdca/pdca.o
 .debug_abbrev  0x00005a73      0x1a4 src/asf/avr32/drivers/pevc/pevc.o
 .debug_abbrev  0x00005c17      0x26f src/asf/avr32/drivers/scif/scif_uc3c.o
 .debug_abbrev  0x00005e86      0x200 src/asf/avr32/drivers/spi/spi.o
 .debug_abbrev  0x00006086      0x1e9 src/asf/avr32/drivers/twim/twim.o
 .debug_abbrev  0x0000626f      0x262 src/asf/avr32/drivers/usart/usart.o
 .debug_abbrev  0x000064d1      0x15a src/asf/avr32/services/delay/delay.o
 .debug_abbrev  0x0000662b       0x12 src/asf/avr32/utils/startup/startup_uc3.o
 .debug_abbrev  0x0000663d       0x14 src/asf/avr32/utils/startup/trampoline_uc3.o
 .debug_abbrev  0x00006651       0x48 src/asf/common/boards/user_board/init.o
 .debug_abbrev  0x00006699      0x16c src/asf/common/services/clock/uc3c/osc.o
 .debug_abbrev  0x00006805      0x1a2 src/asf/common/services/clock/uc3c/pll.o
 .debug_abbrev  0x000069a7      0x246 src/asf/common/services/clock/uc3c/sysclk.o
 .debug_abbrev  0x00006bed       0x7b src/asf/common/services/sleepmgr/uc3/sleepmgr.o
 .debug_abbrev  0x00006c68      0x1f2 src/asf/common/services/spi/uc3_spi/spi_master.o
 .debug_abbrev  0x00006e5a      0x2ba src/boardsupport.o
 .debug_abbrev  0x00007114      0x2ad src/main.o
 .debug_abbrev  0x000073c1       0xfe c:/program files (x86)/atmel/atmel toolchain/avr32 gcc/native/3.4.2.1002/avr32-gnu-toolchain/bin/../lib/gcc/avr32/4.4.7/../../../../avr32/lib/ucr3fp\libm.a(lib_a-s_cos.o)
 .debug_abbrev  0x000074bf       0xfe c:/program files (x86)/atmel/atmel toolchain/avr32 gcc/native/3.4.2.1002/avr32-gnu-toolchain/bin/../lib/gcc/avr32/4.4.7/../../../../avr32/lib/ucr3fp\libm.a(lib_a-s_sin.o)
 .debug_abbrev  0x000075bd       0xee c:/program files (x86)/atmel/atmel toolchain/avr32 gcc/native/3.4.2.1002/avr32-gnu-toolchain/bin/../lib/gcc/avr32/4.4.7/../../../../avr32/lib/ucr3fp\libm.a(lib_a-w_asin.o)
 .debug_abbrev  0x000076ab       0x59 c:/program files (x86)/atmel/atmel toolchain/avr32 gcc/native/3.4.2.1002/avr32-gnu-toolchain/bin/../lib/gcc/avr32/4.4.7/../../../../avr32/lib/ucr3fp\libm.a(lib_a-w_atan2.o)
 .debug_abbrev  0x00007704       0xf9 c:/program files (x86)/atmel/atmel toolchain/avr32 gcc/native/3.4.2.1002/avr32-gnu-toolchain/bin/../lib/gcc/avr32/4.4.7/../../../../avr32/lib/ucr3fp\libm.a(lib_a-w_pow.o)
 .debug_abbrev  0x000077fd       0xee c:/program files (x86)/atmel/atmel toolchain/avr32 gcc/native/3.4.2.1002/avr32-gnu-toolchain/bin/../lib/gcc/avr32/4.4.7/../../../../avr32/lib/ucr3fp\libm.a(lib_a-w_sqrt.o)
 .debug_abbrev  0x000078eb      0x11c c:/program files (x86)/atmel/atmel toolchain/avr32 gcc/native/3.4.2.1002/avr32-gnu-toolchain/bin/../lib/gcc/avr32/4.4.7/../../../../avr32/lib/ucr3fp\libm.a(lib_a-e_asin.o)
 .debug_abbrev  0x00007a07      0x12b c:/program files (x86)/atmel/atmel toolchain/avr32 gcc/native/3.4.2.1002/avr32-gnu-toolchain/bin/../lib/gcc/avr32/4.4.7/../../../../avr32/lib/ucr3fp\libm.a(lib_a-e_atan2.o)
 .debug_abbrev  0x00007b32      0x166 c:/program files (x86)/atmel/atmel toolchain/avr32 gcc/native/3.4.2.1002/avr32-gnu-toolchain/bin/../lib/gcc/avr32/4.4.7/../../../../avr32/lib/ucr3fp\libm.a(lib_a-e_pow.o)
 .debug_abbrev  0x00007c98      0x14f c:/program files (x86)/atmel/atmel toolchain/avr32 gcc/native/3.4.2.1002/avr32-gnu-toolchain/bin/../lib/gcc/avr32/4.4.7/../../../../avr32/lib/ucr3fp\libm.a(lib_a-e_rem_pio2.o)
 .debug_abbrev  0x00007de7      0x138 c:/program files (x86)/atmel/atmel toolchain/avr32 gcc/native/3.4.2.1002/avr32-gnu-toolchain/bin/../lib/gcc/avr32/4.4.7/../../../../avr32/lib/ucr3fp\libm.a(lib_a-e_sqrt.o)
 .debug_abbrev  0x00007f1f      0x11e c:/program files (x86)/atmel/atmel toolchain/avr32 gcc/native/3.4.2.1002/avr32-gnu-toolchain/bin/../lib/gcc/avr32/4.4.7/../../../../avr32/lib/ucr3fp\libm.a(lib_a-k_cos.o)
 .debug_abbrev  0x0000803d      0x11a c:/program files (x86)/atmel/atmel toolchain/avr32 gcc/native/3.4.2.1002/avr32-gnu-toolchain/bin/../lib/gcc/avr32/4.4.7/../../../../avr32/lib/ucr3fp\libm.a(lib_a-k_rem_pio2.o)
 .debug_abbrev  0x00008157       0x9a c:/program files (x86)/atmel/atmel toolchain/avr32 gcc/native/3.4.2.1002/avr32-gnu-toolchain/bin/../lib/gcc/avr32/4.4.7/../../../../avr32/lib/ucr3fp\libm.a(lib_a-k_sin.o)
 .debug_abbrev  0x000081f1      0x130 c:/program files (x86)/atmel/atmel toolchain/avr32 gcc/native/3.4.2.1002/avr32-gnu-toolchain/bin/../lib/gcc/avr32/4.4.7/../../../../avr32/lib/ucr3fp\libm.a(lib_a-s_atan.o)
 .debug_abbrev  0x00008321       0xce c:/program files (x86)/atmel/atmel toolchain/avr32 gcc/native/3.4.2.1002/avr32-gnu-toolchain/bin/../lib/gcc/avr32/4.4.7/../../../../avr32/lib/ucr3fp\libm.a(lib_a-s_fabs.o)
 .debug_abbrev  0x000083ef       0xcc c:/program files (x86)/atmel/atmel toolchain/avr32 gcc/native/3.4.2.1002/avr32-gnu-toolchain/bin/../lib/gcc/avr32/4.4.7/../../../../avr32/lib/ucr3fp\libm.a(lib_a-s_finite.o)
 .debug_abbrev  0x000084bb      0x10f c:/program files (x86)/atmel/atmel toolchain/avr32 gcc/native/3.4.2.1002/avr32-gnu-toolchain/bin/../lib/gcc/avr32/4.4.7/../../../../avr32/lib/ucr3fp\libm.a(lib_a-s_floor.o)
 .debug_abbrev  0x000085ca       0xce c:/program files (x86)/atmel/atmel toolchain/avr32 gcc/native/3.4.2.1002/avr32-gnu-toolchain/bin/../lib/gcc/avr32/4.4.7/../../../../avr32/lib/ucr3fp\libm.a(lib_a-s_isnand.o)
 .debug_abbrev  0x00008698       0x5a c:/program files (x86)/atmel/atmel toolchain/avr32 gcc/native/3.4.2.1002/avr32-gnu-toolchain/bin/../lib/gcc/avr32/4.4.7/../../../../avr32/lib/ucr3fp\libm.a(lib_a-s_lib_ver.o)
 .debug_abbrev  0x000086f2       0x9e c:/program files (x86)/atmel/atmel toolchain/avr32 gcc/native/3.4.2.1002/avr32-gnu-toolchain/bin/../lib/gcc/avr32/4.4.7/../../../../avr32/lib/ucr3fp\libm.a(lib_a-s_matherr.o)
 .debug_abbrev  0x00008790       0x76 c:/program files (x86)/atmel/atmel toolchain/avr32 gcc/native/3.4.2.1002/avr32-gnu-toolchain/bin/../lib/gcc/avr32/4.4.7/../../../../avr32/lib/ucr3fp\libm.a(lib_a-s_nan.o)
 .debug_abbrev  0x00008806      0x119 c:/program files (x86)/atmel/atmel toolchain/avr32 gcc/native/3.4.2.1002/avr32-gnu-toolchain/bin/../lib/gcc/avr32/4.4.7/../../../../avr32/lib/ucr3fp\libm.a(lib_a-s_rint.o)
 .debug_abbrev  0x0000891f      0x118 c:/program files (x86)/atmel/atmel toolchain/avr32 gcc/native/3.4.2.1002/avr32-gnu-toolchain/bin/../lib/gcc/avr32/4.4.7/../../../../avr32/lib/ucr3fp\libm.a(lib_a-s_scalbn.o)
 .debug_abbrev  0x00008a37       0xce c:/program files (x86)/atmel/atmel toolchain/avr32 gcc/native/3.4.2.1002/avr32-gnu-toolchain/bin/../lib/gcc/avr32/4.4.7/../../../../avr32/lib/ucr3fp\libm.a(lib_a-s_copysign.o)
 .debug_abbrev  0x00008b05      0x15a c:/program files (x86)/atmel/atmel toolchain/avr32 gcc/native/3.4.2.1002/avr32-gnu-toolchain/bin/../lib/gcc/avr32/4.4.7/ucr3fp\libgcc.a(_udivdi3.o)
 .debug_abbrev  0x00008c5f      0x150 c:/program files (x86)/atmel/atmel toolchain/avr32 gcc/native/3.4.2.1002/avr32-gnu-toolchain/bin/../lib/gcc/avr32/4.4.7/../../../../avr32/lib/ucr3fp\libc.a(lib_a-errno.o)
 .debug_abbrev  0x00008daf      0x160 c:/program files (x86)/atmel/atmel toolchain/avr32 gcc/native/3.4.2.1002/avr32-gnu-toolchain/bin/../lib/gcc/avr32/4.4.7/../../../../avr32/lib/ucr3fp\libc.a(lib_a-impure.o)
 .debug_abbrev  0x00008f0f       0x85 c:/program files (x86)/atmel/atmel toolchain/avr32 gcc/native/3.4.2.1002/avr32-gnu-toolchain/bin/../lib/gcc/avr32/4.4.7/../../../../avr32/lib/ucr3fp\libc.a(lib_a-memset.o)
 .debug_abbrev  0x00008f94       0x76 c:/program files (x86)/atmel/atmel toolchain/avr32 gcc/native/3.4.2.1002/avr32-gnu-toolchain/bin/../lib/gcc/avr32/4.4.7/../../../../avr32/lib/ucr3fp\libc.a(lib_a-strcpy.o)
 .debug_abbrev  0x0000900a       0x83 c:/program files (x86)/atmel/atmel toolchain/avr32 gcc/native/3.4.2.1002/avr32-gnu-toolchain/bin/../lib/gcc/avr32/4.4.7/../../../../avr32/lib/ucr3fp\libc.a(lib_a-strlen.o)
 .debug_abbrev  0x0000908d      0x28c c:/program files (x86)/atmel/atmel toolchain/avr32 gcc/native/3.4.2.1002/avr32-gnu-toolchain/bin/../lib/gcc/avr32/4.4.7/../../../../avr32/lib/ucr3fp\libc.a(lib_a-findfp.o)

.debug_line     0x00000000    0x119ea
 *(.debug_line)
 .debug_line    0x00000000      0xa37 Library/communication/mavlink_waypoint_handler.o
 .debug_line    0x00000a37      0x687 Library/control/orca.o
 .debug_line    0x000010be      0x190 Library/control/pid_control.o
 .debug_line    0x0000124e      0x499 Library/control/stabilisation_copter.o
 .debug_line    0x000016e7      0x116 Library/hal/analog_monitor.o
 .debug_line    0x000017fd      0x325 Library/hal/i2c_driver_int.o
 .debug_line    0x00001b22      0x1a5 Library/hal/time_keeper.o
 .debug_line    0x00001cc7      0x6e4 Library/sensing/estimator.o
 .debug_line    0x000023ab      0x4ca Library/sensing/neighbor_selection.o
 .debug_line    0x00002875      0x2c7 Library/sensing/position_estimation.o
 .debug_line    0x00002b3c      0x25a Library/sensing/qfilter.o
 .debug_line    0x00002d96      0x3fe src/central_data.o
 .debug_line    0x00003194      0xcfb src/mavlink_actions.o
 .debug_line    0x00003e8f      0x5cf src/tasks.o
 .debug_line    0x0000445e      0x450 Library/communication/ishtar_stream.o
 .debug_line    0x000048ae      0x678 Library/communication/mavlink_stream.o
 .debug_line    0x00004f26      0x4d5 Library/communication/onboard_parameters.o
 .debug_line    0x000053fb      0x49a Library/control/navigation.o
 .debug_line    0x00005895      0x174 Library/control/stabilisation.o
 .debug_line    0x00005a09      0x28d Library/hal/adc_int.o
 .debug_line    0x00005c96      0x2dd Library/hal/ads1274.o
 .debug_line    0x00005f73      0x20d Library/hal/adxl345_driver.o
 .debug_line    0x00006180      0x2da Library/hal/bmp085.o
 .debug_line    0x0000645a      0x1e3 Library/hal/compass_hmc5883l.o
 .debug_line    0x0000663d      0x31a Library/hal/dac_dma.o
 .debug_line    0x00006957      0x205 Library/hal/itg3200_driver.o
 .debug_line    0x00006b5c      0x233 Library/hal/led.o
 .debug_line    0x00006d8f      0x215 Library/hal/radar_module_driver.o
 .debug_line    0x00006fa4      0x158 Library/hal/servo_pwm.o
 .debug_line    0x000070fc      0x329 Library/hal/remote_dsm2.o
 .debug_line    0x00007425      0x3a4 Library/hal/spi_buffered.o
 .debug_line    0x000077c9      0x2de Library/hal/uart_int.o
 .debug_line    0x00007aa7      0x1bb Library/runtime/scheduler.o
 .debug_line    0x00007c62      0x7c3 Library/sensing/gps_ublox.o
 .debug_line    0x00008425      0x233 Library/sensing/imu.o
 .debug_line    0x00008658      0x55d Library/sensing/simulation.o
 .debug_line    0x00008bb5      0x14b Library/util/buffer.o
 .debug_line    0x00008d00      0x159 Library/util/coord_conventions.o
 .debug_line    0x00008e59      0x1cc Library/util/print_util.o
 .debug_line    0x00009025      0x289 src/asf/avr32/drivers/adcifa/adcifa.o
 .debug_line    0x000092ae      0x22f src/asf/avr32/drivers/ast/ast.o
 .debug_line    0x000094dd      0x30e src/asf/avr32/drivers/dacifb/dacifb.o
 .debug_line    0x000097eb      0x25a src/asf/avr32/drivers/eic/eic.o
 .debug_line    0x00009a45      0x4e9 src/asf/avr32/drivers/flashc/flashc.o
 .debug_line    0x00009f2e      0x328 src/asf/avr32/drivers/gpio/gpio.o
 .debug_line    0x0000a256       0xdf src/asf/avr32/drivers/intc/exception.o
 .debug_line    0x0000a335      0x15f src/asf/avr32/drivers/intc/intc.o
 .debug_line    0x0000a494      0x261 src/asf/avr32/drivers/pdca/pdca.o
 .debug_line    0x0000a6f5      0x19e src/asf/avr32/drivers/pevc/pevc.o
 .debug_line    0x0000a893      0x373 src/asf/avr32/drivers/scif/scif_uc3c.o
 .debug_line    0x0000ac06      0x260 src/asf/avr32/drivers/spi/spi.o
 .debug_line    0x0000ae66      0x3d1 src/asf/avr32/drivers/twim/twim.o
 .debug_line    0x0000b237      0x3fc src/asf/avr32/drivers/usart/usart.o
 .debug_line    0x0000b633      0x167 src/asf/avr32/services/delay/delay.o
 .debug_line    0x0000b79a       0xf2 src/asf/avr32/utils/startup/startup_uc3.o
 .debug_line    0x0000b88c       0x67 src/asf/avr32/utils/startup/trampoline_uc3.o
 .debug_line    0x0000b8f3       0x61 src/asf/common/boards/user_board/init.o
 .debug_line    0x0000b954      0x220 src/asf/common/services/clock/uc3c/osc.o
 .debug_line    0x0000bb74      0x208 src/asf/common/services/clock/uc3c/pll.o
 .debug_line    0x0000bd7c      0x34a src/asf/common/services/clock/uc3c/sysclk.o
 .debug_line    0x0000c0c6       0xff src/asf/common/services/sleepmgr/uc3/sleepmgr.o
 .debug_line    0x0000c1c5      0x3c7 src/asf/common/services/spi/uc3_spi/spi_master.o
 .debug_line    0x0000c58c      0x5f0 src/boardsupport.o
 .debug_line    0x0000cb7c      0x5d4 src/main.o
 .debug_line    0x0000d150      0x244 c:/program files (x86)/atmel/atmel toolchain/avr32 gcc/native/3.4.2.1002/avr32-gnu-toolchain/bin/../lib/gcc/avr32/4.4.7/../../../../avr32/lib/ucr3fp\libm.a(lib_a-s_cos.o)
 .debug_line    0x0000d394      0x245 c:/program files (x86)/atmel/atmel toolchain/avr32 gcc/native/3.4.2.1002/avr32-gnu-toolchain/bin/../lib/gcc/avr32/4.4.7/../../../../avr32/lib/ucr3fp\libm.a(lib_a-s_sin.o)
 .debug_line    0x0000d5d9      0x17d c:/program files (x86)/atmel/atmel toolchain/avr32 gcc/native/3.4.2.1002/avr32-gnu-toolchain/bin/../lib/gcc/avr32/4.4.7/../../../../avr32/lib/ucr3fp\libm.a(lib_a-w_asin.o)
 .debug_line    0x0000d756      0x112 c:/program files (x86)/atmel/atmel toolchain/avr32 gcc/native/3.4.2.1002/avr32-gnu-toolchain/bin/../lib/gcc/avr32/4.4.7/../../../../avr32/lib/ucr3fp\libm.a(lib_a-w_atan2.o)
 .debug_line    0x0000d868      0x31a c:/program files (x86)/atmel/atmel toolchain/avr32 gcc/native/3.4.2.1002/avr32-gnu-toolchain/bin/../lib/gcc/avr32/4.4.7/../../../../avr32/lib/ucr3fp\libm.a(lib_a-w_pow.o)
 .debug_line    0x0000db82      0x194 c:/program files (x86)/atmel/atmel toolchain/avr32 gcc/native/3.4.2.1002/avr32-gnu-toolchain/bin/../lib/gcc/avr32/4.4.7/../../../../avr32/lib/ucr3fp\libm.a(lib_a-w_sqrt.o)
 .debug_line    0x0000dd16      0x270 c:/program files (x86)/atmel/atmel toolchain/avr32 gcc/native/3.4.2.1002/avr32-gnu-toolchain/bin/../lib/gcc/avr32/4.4.7/../../../../avr32/lib/ucr3fp\libm.a(lib_a-e_asin.o)
 .debug_line    0x0000df86      0x27c c:/program files (x86)/atmel/atmel toolchain/avr32 gcc/native/3.4.2.1002/avr32-gnu-toolchain/bin/../lib/gcc/avr32/4.4.7/../../../../avr32/lib/ucr3fp\libm.a(lib_a-e_atan2.o)
 .debug_line    0x0000e202      0x5e7 c:/program files (x86)/atmel/atmel toolchain/avr32 gcc/native/3.4.2.1002/avr32-gnu-toolchain/bin/../lib/gcc/avr32/4.4.7/../../../../avr32/lib/ucr3fp\libm.a(lib_a-e_pow.o)
 .debug_line    0x0000e7e9      0x3ac c:/program files (x86)/atmel/atmel toolchain/avr32 gcc/native/3.4.2.1002/avr32-gnu-toolchain/bin/../lib/gcc/avr32/4.4.7/../../../../avr32/lib/ucr3fp\libm.a(lib_a-e_rem_pio2.o)
 .debug_line    0x0000eb95      0x34e c:/program files (x86)/atmel/atmel toolchain/avr32 gcc/native/3.4.2.1002/avr32-gnu-toolchain/bin/../lib/gcc/avr32/4.4.7/../../../../avr32/lib/ucr3fp\libm.a(lib_a-e_sqrt.o)
 .debug_line    0x0000eee3      0x1e5 c:/program files (x86)/atmel/atmel toolchain/avr32 gcc/native/3.4.2.1002/avr32-gnu-toolchain/bin/../lib/gcc/avr32/4.4.7/../../../../avr32/lib/ucr3fp\libm.a(lib_a-k_cos.o)
 .debug_line    0x0000f0c8      0x4db c:/program files (x86)/atmel/atmel toolchain/avr32 gcc/native/3.4.2.1002/avr32-gnu-toolchain/bin/../lib/gcc/avr32/4.4.7/../../../../avr32/lib/ucr3fp\libm.a(lib_a-k_rem_pio2.o)
 .debug_line    0x0000f5a3      0x170 c:/program files (x86)/atmel/atmel toolchain/avr32 gcc/native/3.4.2.1002/avr32-gnu-toolchain/bin/../lib/gcc/avr32/4.4.7/../../../../avr32/lib/ucr3fp\libm.a(lib_a-k_sin.o)
 .debug_line    0x0000f713      0x2c4 c:/program files (x86)/atmel/atmel toolchain/avr32 gcc/native/3.4.2.1002/avr32-gnu-toolchain/bin/../lib/gcc/avr32/4.4.7/../../../../avr32/lib/ucr3fp\libm.a(lib_a-s_atan.o)
 .debug_line    0x0000f9d7      0x204 c:/program files (x86)/atmel/atmel toolchain/avr32 gcc/native/3.4.2.1002/avr32-gnu-toolchain/bin/../lib/gcc/avr32/4.4.7/../../../../avr32/lib/ucr3fp\libm.a(lib_a-s_fabs.o)
 .debug_line    0x0000fbdb      0x19e c:/program files (x86)/atmel/atmel toolchain/avr32 gcc/native/3.4.2.1002/avr32-gnu-toolchain/bin/../lib/gcc/avr32/4.4.7/../../../../avr32/lib/ucr3fp\libm.a(lib_a-s_finite.o)
 .debug_line    0x0000fd79      0x295 c:/program files (x86)/atmel/atmel toolchain/avr32 gcc/native/3.4.2.1002/avr32-gnu-toolchain/bin/../lib/gcc/avr32/4.4.7/../../../../avr32/lib/ucr3fp\libm.a(lib_a-s_floor.o)
 .debug_line    0x0001000e      0x1a5 c:/program files (x86)/atmel/atmel toolchain/avr32 gcc/native/3.4.2.1002/avr32-gnu-toolchain/bin/../lib/gcc/avr32/4.4.7/../../../../avr32/lib/ucr3fp\libm.a(lib_a-s_isnand.o)
 .debug_line    0x000101b3       0x89 c:/program files (x86)/atmel/atmel toolchain/avr32 gcc/native/3.4.2.1002/avr32-gnu-toolchain/bin/../lib/gcc/avr32/4.4.7/../../../../avr32/lib/ucr3fp\libm.a(lib_a-s_lib_ver.o)
 .debug_line    0x0001023c      0x110 c:/program files (x86)/atmel/atmel toolchain/avr32 gcc/native/3.4.2.1002/avr32-gnu-toolchain/bin/../lib/gcc/avr32/4.4.7/../../../../avr32/lib/ucr3fp\libm.a(lib_a-s_matherr.o)
 .debug_line    0x0001034c      0x10b c:/program files (x86)/atmel/atmel toolchain/avr32 gcc/native/3.4.2.1002/avr32-gnu-toolchain/bin/../lib/gcc/avr32/4.4.7/../../../../avr32/lib/ucr3fp\libm.a(lib_a-s_nan.o)
 .debug_line    0x00010457      0x262 c:/program files (x86)/atmel/atmel toolchain/avr32 gcc/native/3.4.2.1002/avr32-gnu-toolchain/bin/../lib/gcc/avr32/4.4.7/../../../../avr32/lib/ucr3fp\libm.a(lib_a-s_rint.o)
 .debug_line    0x000106b9      0x21d c:/program files (x86)/atmel/atmel toolchain/avr32 gcc/native/3.4.2.1002/avr32-gnu-toolchain/bin/../lib/gcc/avr32/4.4.7/../../../../avr32/lib/ucr3fp\libm.a(lib_a-s_scalbn.o)
 .debug_line    0x000108d6      0x1a1 c:/program files (x86)/atmel/atmel toolchain/avr32 gcc/native/3.4.2.1002/avr32-gnu-toolchain/bin/../lib/gcc/avr32/4.4.7/../../../../avr32/lib/ucr3fp\libm.a(lib_a-s_copysign.o)
 .debug_line    0x00010a77      0x1d1 c:/program files (x86)/atmel/atmel toolchain/avr32 gcc/native/3.4.2.1002/avr32-gnu-toolchain/bin/../lib/gcc/avr32/4.4.7/ucr3fp\libgcc.a(_udivdi3.o)
 .debug_line    0x00010c48      0x1c9 c:/program files (x86)/atmel/atmel toolchain/avr32 gcc/native/3.4.2.1002/avr32-gnu-toolchain/bin/../lib/gcc/avr32/4.4.7/../../../../avr32/lib/ucr3fp\libc.a(lib_a-errno.o)
 .debug_line    0x00010e11      0x1a3 c:/program files (x86)/atmel/atmel toolchain/avr32 gcc/native/3.4.2.1002/avr32-gnu-toolchain/bin/../lib/gcc/avr32/4.4.7/../../../../avr32/lib/ucr3fp\libc.a(lib_a-impure.o)
 .debug_line    0x00010fb4      0x1b9 c:/program files (x86)/atmel/atmel toolchain/avr32 gcc/native/3.4.2.1002/avr32-gnu-toolchain/bin/../lib/gcc/avr32/4.4.7/../../../../avr32/lib/ucr3fp\libc.a(lib_a-memset.o)
 .debug_line    0x0001116d      0x11a c:/program files (x86)/atmel/atmel toolchain/avr32 gcc/native/3.4.2.1002/avr32-gnu-toolchain/bin/../lib/gcc/avr32/4.4.7/../../../../avr32/lib/ucr3fp\libc.a(lib_a-strcpy.o)
 .debug_line    0x00011287      0x1bf c:/program files (x86)/atmel/atmel toolchain/avr32 gcc/native/3.4.2.1002/avr32-gnu-toolchain/bin/../lib/gcc/avr32/4.4.7/../../../../avr32/lib/ucr3fp\libc.a(lib_a-strlen.o)
 .debug_line    0x00011446      0x5a4 c:/program files (x86)/atmel/atmel toolchain/avr32 gcc/native/3.4.2.1002/avr32-gnu-toolchain/bin/../lib/gcc/avr32/4.4.7/../../../../avr32/lib/ucr3fp\libc.a(lib_a-findfp.o)

.debug_frame    0x00000000     0x88e4
 *(.debug_frame)
 .debug_frame   0x00000000      0xa40 Library/communication/mavlink_waypoint_handler.o
 .debug_frame   0x00000a40      0x280 Library/control/orca.o
 .debug_frame   0x00000cc0      0x17c Library/control/pid_control.o
 .debug_frame   0x00000e3c      0x144 Library/control/stabilisation_copter.o
 .debug_frame   0x00000f80       0xf0 Library/hal/analog_monitor.o
 .debug_frame   0x00001070      0x128 Library/hal/i2c_driver_int.o
 .debug_frame   0x00001198       0xd0 Library/hal/time_keeper.o
 .debug_frame   0x00001268      0x23c Library/sensing/estimator.o
 .debug_frame   0x000014a4      0x298 Library/sensing/neighbor_selection.o
 .debug_frame   0x0000173c      0x1d4 Library/sensing/position_estimation.o
 .debug_frame   0x00001910      0x190 Library/sensing/qfilter.o
 .debug_frame   0x00001aa0      0x130 src/central_data.o
 .debug_frame   0x00001bd0      0xad4 src/mavlink_actions.o
 .debug_frame   0x000026a4      0x260 src/tasks.o
 .debug_frame   0x00002904       0xf0 Library/communication/ishtar_stream.o
 .debug_frame   0x000029f4      0x464 Library/communication/mavlink_stream.o
 .debug_frame   0x00002e58      0x434 Library/communication/onboard_parameters.o
 .debug_frame   0x0000328c      0x258 Library/control/navigation.o
 .debug_frame   0x000034e4       0x54 Library/control/stabilisation.o
 .debug_frame   0x00003538      0x150 Library/hal/adc_int.o
 .debug_frame   0x00003688      0x21c Library/hal/ads1274.o
 .debug_frame   0x000038a4       0x70 Library/hal/adxl345_driver.o
 .debug_frame   0x00003914      0x110 Library/hal/bmp085.o
 .debug_frame   0x00003a24       0x50 Library/hal/compass_hmc5883l.o
 .debug_frame   0x00003a74      0x164 Library/hal/dac_dma.o
 .debug_frame   0x00003bd8       0x70 Library/hal/itg3200_driver.o
 .debug_frame   0x00003c48      0x188 Library/hal/led.o
 .debug_frame   0x00003dd0       0x90 Library/hal/radar_module_driver.o
 .debug_frame   0x00003e60       0x6c Library/hal/servo_pwm.o
 .debug_frame   0x00003ecc      0x194 Library/hal/remote_dsm2.o
 .debug_frame   0x00004060      0x470 Library/hal/spi_buffered.o
 .debug_frame   0x000044d0      0x248 Library/hal/uart_int.o
 .debug_frame   0x00004718      0x164 Library/runtime/scheduler.o
 .debug_frame   0x0000487c      0x394 Library/sensing/gps_ublox.o
 .debug_frame   0x00004c10       0xb8 Library/sensing/imu.o
 .debug_frame   0x00004cc8      0x29c Library/sensing/simulation.o
 .debug_frame   0x00004f64      0x138 Library/util/buffer.o
 .debug_frame   0x0000509c       0xdc Library/util/coord_conventions.o
 .debug_frame   0x00005178      0x1ec Library/util/print_util.o
 .debug_frame   0x00005364      0x180 src/asf/avr32/drivers/adcifa/adcifa.o
 .debug_frame   0x000054e4      0x290 src/asf/avr32/drivers/ast/ast.o
 .debug_frame   0x00005774      0x100 src/asf/avr32/drivers/dacifb/dacifb.o
 .debug_frame   0x00005874      0x1e0 src/asf/avr32/drivers/eic/eic.o
 .debug_frame   0x00005a54      0x858 src/asf/avr32/drivers/flashc/flashc.o
 .debug_frame   0x000062ac      0x3d8 src/asf/avr32/drivers/gpio/gpio.o
 .debug_frame   0x00006684       0xb0 src/asf/avr32/drivers/intc/intc.o
 .debug_frame   0x00006734      0x2a8 src/asf/avr32/drivers/pdca/pdca.o
 .debug_frame   0x000069dc      0x224 src/asf/avr32/drivers/pevc/pevc.o
 .debug_frame   0x00006c00      0x510 src/asf/avr32/drivers/scif/scif_uc3c.o
 .debug_frame   0x00007110      0x20c src/asf/avr32/drivers/spi/spi.o
 .debug_frame   0x0000731c      0x1e0 src/asf/avr32/drivers/twim/twim.o
 .debug_frame   0x000074fc      0x3a4 src/asf/avr32/drivers/usart/usart.o
 .debug_frame   0x000078a0       0x50 src/asf/avr32/services/delay/delay.o
 .debug_frame   0x000078f0       0x30 src/asf/common/boards/user_board/init.o
 .debug_frame   0x00007920      0x148 src/asf/common/services/clock/uc3c/osc.o
 .debug_frame   0x00007a68       0xa8 src/asf/common/services/clock/uc3c/pll.o
 .debug_frame   0x00007b10      0x2e4 src/asf/common/services/clock/uc3c/sysclk.o
 .debug_frame   0x00007df4      0x224 src/asf/common/services/spi/uc3_spi/spi_master.o
 .debug_frame   0x00008018       0xf0 src/boardsupport.o
 .debug_frame   0x00008108       0x90 src/main.o
 .debug_frame   0x00008198       0x38 c:/program files (x86)/atmel/atmel toolchain/avr32 gcc/native/3.4.2.1002/avr32-gnu-toolchain/bin/../lib/gcc/avr32/4.4.7/../../../../avr32/lib/ucr3fp\libm.a(lib_a-s_cos.o)
 .debug_frame   0x000081d0       0x38 c:/program files (x86)/atmel/atmel toolchain/avr32 gcc/native/3.4.2.1002/avr32-gnu-toolchain/bin/../lib/gcc/avr32/4.4.7/../../../../avr32/lib/ucr3fp\libm.a(lib_a-s_sin.o)
 .debug_frame   0x00008208       0x44 c:/program files (x86)/atmel/atmel toolchain/avr32 gcc/native/3.4.2.1002/avr32-gnu-toolchain/bin/../lib/gcc/avr32/4.4.7/../../../../avr32/lib/ucr3fp\libm.a(lib_a-w_asin.o)
 .debug_frame   0x0000824c       0x28 c:/program files (x86)/atmel/atmel toolchain/avr32 gcc/native/3.4.2.1002/avr32-gnu-toolchain/bin/../lib/gcc/avr32/4.4.7/../../../../avr32/lib/ucr3fp\libm.a(lib_a-w_atan2.o)
 .debug_frame   0x00008274       0x44 c:/program files (x86)/atmel/atmel toolchain/avr32 gcc/native/3.4.2.1002/avr32-gnu-toolchain/bin/../lib/gcc/avr32/4.4.7/../../../../avr32/lib/ucr3fp\libm.a(lib_a-w_pow.o)
 .debug_frame   0x000082b8       0x44 c:/program files (x86)/atmel/atmel toolchain/avr32 gcc/native/3.4.2.1002/avr32-gnu-toolchain/bin/../lib/gcc/avr32/4.4.7/../../../../avr32/lib/ucr3fp\libm.a(lib_a-w_sqrt.o)
 .debug_frame   0x000082fc       0x44 c:/program files (x86)/atmel/atmel toolchain/avr32 gcc/native/3.4.2.1002/avr32-gnu-toolchain/bin/../lib/gcc/avr32/4.4.7/../../../../avr32/lib/ucr3fp\libm.a(lib_a-e_asin.o)
 .debug_frame   0x00008340       0x44 c:/program files (x86)/atmel/atmel toolchain/avr32 gcc/native/3.4.2.1002/avr32-gnu-toolchain/bin/../lib/gcc/avr32/4.4.7/../../../../avr32/lib/ucr3fp\libm.a(lib_a-e_atan2.o)
 .debug_frame   0x00008384       0x44 c:/program files (x86)/atmel/atmel toolchain/avr32 gcc/native/3.4.2.1002/avr32-gnu-toolchain/bin/../lib/gcc/avr32/4.4.7/../../../../avr32/lib/ucr3fp\libm.a(lib_a-e_pow.o)
 .debug_frame   0x000083c8       0x4c c:/program files (x86)/atmel/atmel toolchain/avr32 gcc/native/3.4.2.1002/avr32-gnu-toolchain/bin/../lib/gcc/avr32/4.4.7/../../../../avr32/lib/ucr3fp\libm.a(lib_a-e_rem_pio2.o)
 .debug_frame   0x00008414       0x40 c:/program files (x86)/atmel/atmel toolchain/avr32 gcc/native/3.4.2.1002/avr32-gnu-toolchain/bin/../lib/gcc/avr32/4.4.7/../../../../avr32/lib/ucr3fp\libm.a(lib_a-e_sqrt.o)
 .debug_frame   0x00008454       0x44 c:/program files (x86)/atmel/atmel toolchain/avr32 gcc/native/3.4.2.1002/avr32-gnu-toolchain/bin/../lib/gcc/avr32/4.4.7/../../../../avr32/lib/ucr3fp\libm.a(lib_a-k_cos.o)
 .debug_frame   0x00008498       0x44 c:/program files (x86)/atmel/atmel toolchain/avr32 gcc/native/3.4.2.1002/avr32-gnu-toolchain/bin/../lib/gcc/avr32/4.4.7/../../../../avr32/lib/ucr3fp\libm.a(lib_a-k_rem_pio2.o)
 .debug_frame   0x000084dc       0x44 c:/program files (x86)/atmel/atmel toolchain/avr32 gcc/native/3.4.2.1002/avr32-gnu-toolchain/bin/../lib/gcc/avr32/4.4.7/../../../../avr32/lib/ucr3fp\libm.a(lib_a-k_sin.o)
 .debug_frame   0x00008520       0x44 c:/program files (x86)/atmel/atmel toolchain/avr32 gcc/native/3.4.2.1002/avr32-gnu-toolchain/bin/../lib/gcc/avr32/4.4.7/../../../../avr32/lib/ucr3fp\libm.a(lib_a-s_atan.o)
 .debug_frame   0x00008564       0x20 c:/program files (x86)/atmel/atmel toolchain/avr32 gcc/native/3.4.2.1002/avr32-gnu-toolchain/bin/../lib/gcc/avr32/4.4.7/../../../../avr32/lib/ucr3fp\libm.a(lib_a-s_fabs.o)
 .debug_frame   0x00008584       0x20 c:/program files (x86)/atmel/atmel toolchain/avr32 gcc/native/3.4.2.1002/avr32-gnu-toolchain/bin/../lib/gcc/avr32/4.4.7/../../../../avr32/lib/ucr3fp\libm.a(lib_a-s_finite.o)
 .debug_frame   0x000085a4       0x40 c:/program files (x86)/atmel/atmel toolchain/avr32 gcc/native/3.4.2.1002/avr32-gnu-toolchain/bin/../lib/gcc/avr32/4.4.7/../../../../avr32/lib/ucr3fp\libm.a(lib_a-s_floor.o)
 .debug_frame   0x000085e4       0x20 c:/program files (x86)/atmel/atmel toolchain/avr32 gcc/native/3.4.2.1002/avr32-gnu-toolchain/bin/../lib/gcc/avr32/4.4.7/../../../../avr32/lib/ucr3fp\libm.a(lib_a-s_isnand.o)
 .debug_frame   0x00008604       0x20 c:/program files (x86)/atmel/atmel toolchain/avr32 gcc/native/3.4.2.1002/avr32-gnu-toolchain/bin/../lib/gcc/avr32/4.4.7/../../../../avr32/lib/ucr3fp\libm.a(lib_a-s_matherr.o)
 .debug_frame   0x00008624       0x20 c:/program files (x86)/atmel/atmel toolchain/avr32 gcc/native/3.4.2.1002/avr32-gnu-toolchain/bin/../lib/gcc/avr32/4.4.7/../../../../avr32/lib/ucr3fp\libm.a(lib_a-s_nan.o)
 .debug_frame   0x00008644       0x38 c:/program files (x86)/atmel/atmel toolchain/avr32 gcc/native/3.4.2.1002/avr32-gnu-toolchain/bin/../lib/gcc/avr32/4.4.7/../../../../avr32/lib/ucr3fp\libm.a(lib_a-s_rint.o)
 .debug_frame   0x0000867c       0x34 c:/program files (x86)/atmel/atmel toolchain/avr32 gcc/native/3.4.2.1002/avr32-gnu-toolchain/bin/../lib/gcc/avr32/4.4.7/../../../../avr32/lib/ucr3fp\libm.a(lib_a-s_scalbn.o)
 .debug_frame   0x000086b0       0x34 c:/program files (x86)/atmel/atmel toolchain/avr32 gcc/native/3.4.2.1002/avr32-gnu-toolchain/bin/../lib/gcc/avr32/4.4.7/../../../../avr32/lib/ucr3fp\libm.a(lib_a-s_copysign.o)
 .debug_frame   0x000086e4       0x44 c:/program files (x86)/atmel/atmel toolchain/avr32 gcc/native/3.4.2.1002/avr32-gnu-toolchain/bin/../lib/gcc/avr32/4.4.7/ucr3fp\libgcc.a(_udivdi3.o)
 .debug_frame   0x00008728       0x20 c:/program files (x86)/atmel/atmel toolchain/avr32 gcc/native/3.4.2.1002/avr32-gnu-toolchain/bin/../lib/gcc/avr32/4.4.7/../../../../avr32/lib/ucr3fp\libc.a(lib_a-errno.o)
 .debug_frame   0x00008748       0x20 c:/program files (x86)/atmel/atmel toolchain/avr32 gcc/native/3.4.2.1002/avr32-gnu-toolchain/bin/../lib/gcc/avr32/4.4.7/../../../../avr32/lib/ucr3fp\libc.a(lib_a-memset.o)
 .debug_frame   0x00008768       0x20 c:/program files (x86)/atmel/atmel toolchain/avr32 gcc/native/3.4.2.1002/avr32-gnu-toolchain/bin/../lib/gcc/avr32/4.4.7/../../../../avr32/lib/ucr3fp\libc.a(lib_a-strcpy.o)
 .debug_frame   0x00008788       0x20 c:/program files (x86)/atmel/atmel toolchain/avr32 gcc/native/3.4.2.1002/avr32-gnu-toolchain/bin/../lib/gcc/avr32/4.4.7/../../../../avr32/lib/ucr3fp\libc.a(lib_a-strlen.o)
 .debug_frame   0x000087a8      0x13c c:/program files (x86)/atmel/atmel toolchain/avr32 gcc/native/3.4.2.1002/avr32-gnu-toolchain/bin/../lib/gcc/avr32/4.4.7/../../../../avr32/lib/ucr3fp\libc.a(lib_a-findfp.o)

.debug_str      0x00000000     0xecb6
 *(.debug_str)
 .debug_str     0x00000000     0x2326 Library/communication/mavlink_waypoint_handler.o
                               0x2678 (size before relaxing)
 .debug_str     0x00002326      0x3c9 Library/control/orca.o
                               0x143b (size before relaxing)
 .debug_str     0x000026ef       0xac Library/control/pid_control.o
                                0x281 (size before relaxing)
 .debug_str     0x0000279b      0x115 Library/control/stabilisation_copter.o
                               0x1145 (size before relaxing)
 .debug_str     0x000028b0       0xb5 Library/hal/analog_monitor.o
                                0x19e (size before relaxing)
 .debug_str     0x00002965      0x421 Library/hal/i2c_driver_int.o
                                0x57a (size before relaxing)
 .debug_str     0x00002d86      0x237 Library/hal/time_keeper.o
                                0x37a (size before relaxing)
 .debug_str     0x00002fbd      0x20c Library/sensing/estimator.o
                               0x1234 (size before relaxing)
 .debug_str     0x000031c9      0x284 Library/sensing/neighbor_selection.o
                               0x155c (size before relaxing)
 .debug_str     0x0000344d      0x14b Library/sensing/position_estimation.o
                                0x8bc (size before relaxing)
 .debug_str     0x00003598       0xf4 Library/sensing/qfilter.o
                                0x309 (size before relaxing)
 .debug_str     0x0000368c       0xa5 src/central_data.o
                               0x10b0 (size before relaxing)
 .debug_str     0x00003731      0xef7 src/mavlink_actions.o
                               0x26b7 (size before relaxing)
 .debug_str     0x00004628      0x16a src/tasks.o
                               0x1523 (size before relaxing)
 .debug_str     0x00004792      0x74b Library/communication/ishtar_stream.o
                                0xf3d (size before relaxing)
 .debug_str     0x00004edd      0x763 Library/communication/mavlink_stream.o
                               0x1ea2 (size before relaxing)
 .debug_str     0x00005640      0x404 Library/communication/onboard_parameters.o
                                0xcea (size before relaxing)
 .debug_str     0x00005a44      0x135 Library/control/navigation.o
                               0x11d4 (size before relaxing)
 .debug_str     0x00005b79       0x2d Library/control/stabilisation.o
                                0x5c3 (size before relaxing)
 .debug_str     0x00005ba6      0x8a6 Library/hal/adc_int.o
                                0xaa4 (size before relaxing)
 .debug_str     0x0000644c      0xc58 Library/hal/ads1274.o
                                0xf16 (size before relaxing)
 .debug_str     0x000070a4       0xb8 Library/hal/adxl345_driver.o
                                0x405 (size before relaxing)
 .debug_str     0x0000715c      0x109 Library/hal/bmp085.o
                                0x5f8 (size before relaxing)
 .debug_str     0x00007265      0x1dd Library/hal/compass_hmc5883l.o
                                0x518 (size before relaxing)
 .debug_str     0x00007442      0x81d Library/hal/dac_dma.o
                                0x9fd (size before relaxing)
 .debug_str     0x00007c5f       0x8f Library/hal/itg3200_driver.o
                                0x41f (size before relaxing)
 .debug_str     0x00007cee      0x33e Library/hal/led.o
                                0x496 (size before relaxing)
 .debug_str     0x0000802c       0x59 Library/hal/radar_module_driver.o
                                0x3c5 (size before relaxing)
 .debug_str     0x00008085      0x8d7 Library/hal/servo_pwm.o
                                0xa6d (size before relaxing)
 .debug_str     0x0000895c      0x121 Library/hal/remote_dsm2.o
                                0xb9f (size before relaxing)
 .debug_str     0x00008a7d      0x3aa Library/hal/spi_buffered.o
                                0x9f5 (size before relaxing)
 .debug_str     0x00008e27      0x127 Library/hal/uart_int.o
                                0xa09 (size before relaxing)
 .debug_str     0x00008f4e      0x14c Library/runtime/scheduler.o
                                0x40a (size before relaxing)
 .debug_str     0x0000909a      0xaa8 Library/sensing/gps_ublox.o
                               0x1b1c (size before relaxing)
 .debug_str     0x00009b42       0xe7 Library/sensing/imu.o
                                0x899 (size before relaxing)
 .debug_str     0x00009c29      0x177 Library/sensing/simulation.o
                               0x1253 (size before relaxing)
 .debug_str     0x00009da0       0xac Library/util/buffer.o
                                0x216 (size before relaxing)
 .debug_str     0x00009e4c       0x7d Library/util/coord_conventions.o
                                0x209 (size before relaxing)
 .debug_str     0x00009ec9       0xdf Library/util/print_util.o
                                0x298 (size before relaxing)
 .debug_str     0x00009fa8      0x253 src/asf/avr32/drivers/adcifa/adcifa.o
                                0xa7f (size before relaxing)
 .debug_str     0x0000a1fb      0x203 src/asf/avr32/drivers/ast/ast.o
                                0x50a (size before relaxing)
 .debug_str     0x0000a3fe      0x1de src/asf/avr32/drivers/dacifb/dacifb.o
                                0x59c (size before relaxing)
 .debug_str     0x0000a5dc      0x19c src/asf/avr32/drivers/eic/eic.o
                                0x497 (size before relaxing)
 .debug_str     0x0000a778      0xa8c src/asf/avr32/drivers/flashc/flashc.o
                                0xc6a (size before relaxing)
 .debug_str     0x0000b204      0x35e src/asf/avr32/drivers/gpio/gpio.o
                                0x6cc (size before relaxing)
 .debug_str     0x0000b562      0x646 src/asf/avr32/drivers/intc/intc.o
                                0x733 (size before relaxing)
 .debug_str     0x0000bba8      0x254 src/asf/avr32/drivers/pdca/pdca.o
                                0x5f7 (size before relaxing)
 .debug_str     0x0000bdfc      0x2a0 src/asf/avr32/drivers/pevc/pevc.o
                                0x52d (size before relaxing)
 .debug_str     0x0000c09c      0x580 src/asf/avr32/drivers/scif/scif_uc3c.o
                                0xc24 (size before relaxing)
 .debug_str     0x0000c61c      0x22d src/asf/avr32/drivers/spi/spi.o
                                0x64b (size before relaxing)
 .debug_str     0x0000c849      0x27c src/asf/avr32/drivers/twim/twim.o
                                0x6e7 (size before relaxing)
 .debug_str     0x0000cac5      0x398 src/asf/avr32/drivers/usart/usart.o
                                0xad8 (size before relaxing)
 .debug_str     0x0000ce5d       0x56 src/asf/avr32/services/delay/delay.o
                                0x1ca (size before relaxing)
 .debug_str     0x0000ceb3       0x36 src/asf/common/boards/user_board/init.o
                                0x10f (size before relaxing)
 .debug_str     0x0000cee9       0xde src/asf/common/services/clock/uc3c/osc.o
                                0x666 (size before relaxing)
 .debug_str     0x0000cfc7       0x4f src/asf/common/services/clock/uc3c/pll.o
                                0x5dd (size before relaxing)
 .debug_str     0x0000d016      0x4d4 src/asf/common/services/clock/uc3c/sysclk.o
                                0xc51 (size before relaxing)
 .debug_str     0x0000d4ea       0xd2 src/asf/common/services/sleepmgr/uc3/sleepmgr.o
                                0x1b3 (size before relaxing)
 .debug_str     0x0000d5bc      0x16c src/asf/common/services/spi/uc3_spi/spi_master.o
                                0x6b5 (size before relaxing)
 .debug_str     0x0000d728       0x49 src/boardsupport.o
                               0x1928 (size before relaxing)
 .debug_str     0x0000d771       0x3d src/main.o
                               0x19af (size before relaxing)
 .debug_str     0x0000d7ae       0x9e c:/program files (x86)/atmel/atmel toolchain/avr32 gcc/native/3.4.2.1002/avr32-gnu-toolchain/bin/../lib/gcc/avr32/4.4.7/../../../../avr32/lib/ucr3fp\libm.a(lib_a-s_cos.o)
                                0x152 (size before relaxing)
 .debug_str     0x0000d84c       0x67 c:/program files (x86)/atmel/atmel toolchain/avr32 gcc/native/3.4.2.1002/avr32-gnu-toolchain/bin/../lib/gcc/avr32/4.4.7/../../../../avr32/lib/ucr3fp\libm.a(lib_a-s_sin.o)
                                0x152 (size before relaxing)
 .debug_str     0x0000d8b3       0xd7 c:/program files (x86)/atmel/atmel toolchain/avr32 gcc/native/3.4.2.1002/avr32-gnu-toolchain/bin/../lib/gcc/avr32/4.4.7/../../../../avr32/lib/ucr3fp\libm.a(lib_a-w_asin.o)
                                0x19b (size before relaxing)
 .debug_str     0x0000d98a       0x69 c:/program files (x86)/atmel/atmel toolchain/avr32 gcc/native/3.4.2.1002/avr32-gnu-toolchain/bin/../lib/gcc/avr32/4.4.7/../../../../avr32/lib/ucr3fp\libm.a(lib_a-w_atan2.o)
                                0x11d (size before relaxing)
 .debug_str     0x0000d9f3       0x67 c:/program files (x86)/atmel/atmel toolchain/avr32 gcc/native/3.4.2.1002/avr32-gnu-toolchain/bin/../lib/gcc/avr32/4.4.7/../../../../avr32/lib/ucr3fp\libm.a(lib_a-w_pow.o)
                                0x195 (size before relaxing)
 .debug_str     0x0000da5a       0x68 c:/program files (x86)/atmel/atmel toolchain/avr32 gcc/native/3.4.2.1002/avr32-gnu-toolchain/bin/../lib/gcc/avr32/4.4.7/../../../../avr32/lib/ucr3fp\libm.a(lib_a-w_sqrt.o)
                                0x19b (size before relaxing)
 .debug_str     0x0000dac2       0x99 c:/program files (x86)/atmel/atmel toolchain/avr32 gcc/native/3.4.2.1002/avr32-gnu-toolchain/bin/../lib/gcc/avr32/4.4.7/../../../../avr32/lib/ucr3fp\libm.a(lib_a-e_asin.o)
                                0x184 (size before relaxing)
 .debug_str     0x0000db5b       0x9c c:/program files (x86)/atmel/atmel toolchain/avr32 gcc/native/3.4.2.1002/avr32-gnu-toolchain/bin/../lib/gcc/avr32/4.4.7/../../../../avr32/lib/ucr3fp\libm.a(lib_a-e_atan2.o)
                                0x187 (size before relaxing)
 .debug_str     0x0000dbf7       0xb8 c:/program files (x86)/atmel/atmel toolchain/avr32 gcc/native/3.4.2.1002/avr32-gnu-toolchain/bin/../lib/gcc/avr32/4.4.7/../../../../avr32/lib/ucr3fp\libm.a(lib_a-e_pow.o)
                                0x1c1 (size before relaxing)
 .debug_str     0x0000dcaf       0xd4 c:/program files (x86)/atmel/atmel toolchain/avr32 gcc/native/3.4.2.1002/avr32-gnu-toolchain/bin/../lib/gcc/avr32/4.4.7/../../../../avr32/lib/ucr3fp\libm.a(lib_a-e_rem_pio2.o)
                                0x1ce (size before relaxing)
 .debug_str     0x0000dd83       0x7c c:/program files (x86)/atmel/atmel toolchain/avr32 gcc/native/3.4.2.1002/avr32-gnu-toolchain/bin/../lib/gcc/avr32/4.4.7/../../../../avr32/lib/ucr3fp\libm.a(lib_a-e_sqrt.o)
                                0x171 (size before relaxing)
 .debug_str     0x0000ddff       0x74 c:/program files (x86)/atmel/atmel toolchain/avr32 gcc/native/3.4.2.1002/avr32-gnu-toolchain/bin/../lib/gcc/avr32/4.4.7/../../../../avr32/lib/ucr3fp\libm.a(lib_a-k_cos.o)
                                0x164 (size before relaxing)
 .debug_str     0x0000de73       0xa8 c:/program files (x86)/atmel/atmel toolchain/avr32 gcc/native/3.4.2.1002/avr32-gnu-toolchain/bin/../lib/gcc/avr32/4.4.7/../../../../avr32/lib/ucr3fp\libm.a(lib_a-k_rem_pio2.o)
                                0x170 (size before relaxing)
 .debug_str     0x0000df1b       0x74 c:/program files (x86)/atmel/atmel toolchain/avr32 gcc/native/3.4.2.1002/avr32-gnu-toolchain/bin/../lib/gcc/avr32/4.4.7/../../../../avr32/lib/ucr3fp\libm.a(lib_a-k_sin.o)
                                0x131 (size before relaxing)
 .debug_str     0x0000df8f       0x7b c:/program files (x86)/atmel/atmel toolchain/avr32 gcc/native/3.4.2.1002/avr32-gnu-toolchain/bin/../lib/gcc/avr32/4.4.7/../../../../avr32/lib/ucr3fp\libm.a(lib_a-s_atan.o)
                                0x16b (size before relaxing)
 .debug_str     0x0000e00a       0x6d c:/program files (x86)/atmel/atmel toolchain/avr32 gcc/native/3.4.2.1002/avr32-gnu-toolchain/bin/../lib/gcc/avr32/4.4.7/../../../../avr32/lib/ucr3fp\libm.a(lib_a-s_fabs.o)
                                0x153 (size before relaxing)
 .debug_str     0x0000e077       0x73 c:/program files (x86)/atmel/atmel toolchain/avr32 gcc/native/3.4.2.1002/avr32-gnu-toolchain/bin/../lib/gcc/avr32/4.4.7/../../../../avr32/lib/ucr3fp\libm.a(lib_a-s_finite.o)
                                0x15e (size before relaxing)
 .debug_str     0x0000e0ea       0x6f c:/program files (x86)/atmel/atmel toolchain/avr32 gcc/native/3.4.2.1002/avr32-gnu-toolchain/bin/../lib/gcc/avr32/4.4.7/../../../../avr32/lib/ucr3fp\libm.a(lib_a-s_floor.o)
                                0x164 (size before relaxing)
 .debug_str     0x0000e159       0x75 c:/program files (x86)/atmel/atmel toolchain/avr32 gcc/native/3.4.2.1002/avr32-gnu-toolchain/bin/../lib/gcc/avr32/4.4.7/../../../../avr32/lib/ucr3fp\libm.a(lib_a-s_isnand.o)
                                0x160 (size before relaxing)
 .debug_str     0x0000e1ce       0x6d c:/program files (x86)/atmel/atmel toolchain/avr32 gcc/native/3.4.2.1002/avr32-gnu-toolchain/bin/../lib/gcc/avr32/4.4.7/../../../../avr32/lib/ucr3fp\libm.a(lib_a-s_lib_ver.o)
                                0x176 (size before relaxing)
 .debug_str     0x0000e23b       0x75 c:/program files (x86)/atmel/atmel toolchain/avr32 gcc/native/3.4.2.1002/avr32-gnu-toolchain/bin/../lib/gcc/avr32/4.4.7/../../../../avr32/lib/ucr3fp\libm.a(lib_a-s_matherr.o)
                                0x148 (size before relaxing)
 .debug_str     0x0000e2b0       0x70 c:/program files (x86)/atmel/atmel toolchain/avr32 gcc/native/3.4.2.1002/avr32-gnu-toolchain/bin/../lib/gcc/avr32/4.4.7/../../../../avr32/lib/ucr3fp\libm.a(lib_a-s_nan.o)
                                0x11e (size before relaxing)
 .debug_str     0x0000e320       0x70 c:/program files (x86)/atmel/atmel toolchain/avr32 gcc/native/3.4.2.1002/avr32-gnu-toolchain/bin/../lib/gcc/avr32/4.4.7/../../../../avr32/lib/ucr3fp\libm.a(lib_a-s_rint.o)
                                0x165 (size before relaxing)
 .debug_str     0x0000e390       0x80 c:/program files (x86)/atmel/atmel toolchain/avr32 gcc/native/3.4.2.1002/avr32-gnu-toolchain/bin/../lib/gcc/avr32/4.4.7/../../../../avr32/lib/ucr3fp\libm.a(lib_a-s_scalbn.o)
                                0x17f (size before relaxing)
 .debug_str     0x0000e410       0x77 c:/program files (x86)/atmel/atmel toolchain/avr32 gcc/native/3.4.2.1002/avr32-gnu-toolchain/bin/../lib/gcc/avr32/4.4.7/../../../../avr32/lib/ucr3fp\libm.a(lib_a-s_copysign.o)
                                0x158 (size before relaxing)
 .debug_str     0x0000e487      0x146 c:/program files (x86)/atmel/atmel toolchain/avr32 gcc/native/3.4.2.1002/avr32-gnu-toolchain/bin/../lib/gcc/avr32/4.4.7/ucr3fp\libgcc.a(_udivdi3.o)
                                0x1fb (size before relaxing)
 .debug_str     0x0000e5cd      0x39a c:/program files (x86)/atmel/atmel toolchain/avr32 gcc/native/3.4.2.1002/avr32-gnu-toolchain/bin/../lib/gcc/avr32/4.4.7/../../../../avr32/lib/ucr3fp\libc.a(lib_a-errno.o)
                                0x4a7 (size before relaxing)
 .debug_str     0x0000e967       0xc7 c:/program files (x86)/atmel/atmel toolchain/avr32 gcc/native/3.4.2.1002/avr32-gnu-toolchain/bin/../lib/gcc/avr32/4.4.7/../../../../avr32/lib/ucr3fp\libc.a(lib_a-impure.o)
                                0x4fe (size before relaxing)
 .debug_str     0x0000ea2e       0x71 c:/program files (x86)/atmel/atmel toolchain/avr32 gcc/native/3.4.2.1002/avr32-gnu-toolchain/bin/../lib/gcc/avr32/4.4.7/../../../../avr32/lib/ucr3fp\libc.a(lib_a-memset.o)
                                0x10d (size before relaxing)
 .debug_str     0x0000ea9f       0x7b c:/program files (x86)/atmel/atmel toolchain/avr32 gcc/native/3.4.2.1002/avr32-gnu-toolchain/bin/../lib/gcc/avr32/4.4.7/../../../../avr32/lib/ucr3fp\libc.a(lib_a-strcpy.o)
                                0x110 (size before relaxing)
 .debug_str     0x0000eb1a       0x71 c:/program files (x86)/atmel/atmel toolchain/avr32 gcc/native/3.4.2.1002/avr32-gnu-toolchain/bin/../lib/gcc/avr32/4.4.7/../../../../avr32/lib/ucr3fp\libc.a(lib_a-strlen.o)
                                0x113 (size before relaxing)
 .debug_str     0x0000eb8b      0x12b c:/program files (x86)/atmel/atmel toolchain/avr32 gcc/native/3.4.2.1002/avr32-gnu-toolchain/bin/../lib/gcc/avr32/4.4.7/../../../../avr32/lib/ucr3fp\libc.a(lib_a-findfp.o)
                                0x5d8 (size before relaxing)

.debug_loc      0x00000000     0xda2d
 *(.debug_loc)
 .debug_loc     0x00000000      0xd9b Library/communication/mavlink_waypoint_handler.o
 .debug_loc     0x00000d9b      0x2db Library/control/orca.o
 .debug_loc     0x00001076      0x1d9 Library/control/pid_control.o
 .debug_loc     0x0000124f      0x183 Library/control/stabilisation_copter.o
 .debug_loc     0x000013d2      0x12d Library/hal/analog_monitor.o
 .debug_loc     0x000014ff      0x183 Library/hal/i2c_driver_int.o
 .debug_loc     0x00001682      0x102 Library/hal/time_keeper.o
 .debug_loc     0x00001784      0x25a Library/sensing/estimator.o
 .debug_loc     0x000019de      0x35c Library/sensing/neighbor_selection.o
 .debug_loc     0x00001d3a      0x204 Library/sensing/position_estimation.o
 .debug_loc     0x00001f3e      0x1ae Library/sensing/qfilter.o
 .debug_loc     0x000020ec      0x183 src/central_data.o
 .debug_loc     0x0000226f      0xc18 src/mavlink_actions.o
 .debug_loc     0x00002e87      0x306 src/tasks.o
 .debug_loc     0x0000318d      0x12d Library/communication/ishtar_stream.o
 .debug_loc     0x000032ba      0x60c Library/communication/mavlink_stream.o
 .debug_loc     0x000038c6      0x58b Library/communication/onboard_parameters.o
 .debug_loc     0x00003e51      0x2db Library/control/navigation.o
 .debug_loc     0x0000412c       0x56 Library/control/stabilisation.o
 .debug_loc     0x00004182      0x1ae Library/hal/adc_int.o
 .debug_loc     0x00004330      0x2db Library/hal/ads1274.o
 .debug_loc     0x0000460b       0x81 Library/hal/adxl345_driver.o
 .debug_loc     0x0000468c      0x158 Library/hal/bmp085.o
 .debug_loc     0x000047e4       0x56 Library/hal/compass_hmc5883l.o
 .debug_loc     0x0000483a      0x1d9 Library/hal/dac_dma.o
 .debug_loc     0x00004a13       0x81 Library/hal/itg3200_driver.o
 .debug_loc     0x00004a94      0x204 Library/hal/led.o
 .debug_loc     0x00004c98       0xac Library/hal/radar_module_driver.o
 .debug_loc     0x00004d44       0x81 Library/hal/servo_pwm.o
 .debug_loc     0x00004dc5      0x204 Library/hal/remote_dsm2.o
 .debug_loc     0x00004fc9      0x60c Library/hal/spi_buffered.o
 .debug_loc     0x000055d5      0x306 Library/hal/uart_int.o
 .debug_loc     0x000058db      0x1d9 Library/runtime/scheduler.o
 .debug_loc     0x00005ab4      0x4b4 Library/sensing/gps_ublox.o
 .debug_loc     0x00005f68       0xd7 Library/sensing/imu.o
 .debug_loc     0x0000603f      0x2db Library/sensing/simulation.o
 .debug_loc     0x0000631a      0x1ae Library/util/buffer.o
 .debug_loc     0x000064c8       0xd7 Library/util/coord_conventions.o
 .debug_loc     0x0000659f      0x285 Library/util/print_util.o
 .debug_loc     0x00006824      0x22f src/asf/avr32/drivers/adcifa/adcifa.o
 .debug_loc     0x00006a53      0x387 src/asf/avr32/drivers/ast/ast.o
 .debug_loc     0x00006dda      0x158 src/asf/avr32/drivers/dacifb/dacifb.o
 .debug_loc     0x00006f32      0x2b0 src/asf/avr32/drivers/eic/eic.o
 .debug_loc     0x000071e2      0xb16 src/asf/avr32/drivers/flashc/flashc.o
 .debug_loc     0x00007cf8      0x5b6 src/asf/avr32/drivers/gpio/gpio.o
 .debug_loc     0x000082ae       0xd7 src/asf/avr32/drivers/intc/intc.o
 .debug_loc     0x00008385      0x387 src/asf/avr32/drivers/pdca/pdca.o
 .debug_loc     0x0000870c      0x331 src/asf/avr32/drivers/pevc/pevc.o
 .debug_loc     0x00008a3d      0x739 src/asf/avr32/drivers/scif/scif_uc3c.o
 .debug_loc     0x00009176      0x306 src/asf/avr32/drivers/spi/spi.o
 .debug_loc     0x0000947c      0x285 src/asf/avr32/drivers/twim/twim.o
 .debug_loc     0x00009701      0x50a src/asf/avr32/drivers/usart/usart.o
 .debug_loc     0x00009c0b       0x56 src/asf/avr32/services/delay/delay.o
 .debug_loc     0x00009c61       0x2b src/asf/common/boards/user_board/init.o
 .debug_loc     0x00009c8c      0x1ae src/asf/common/services/clock/uc3c/osc.o
 .debug_loc     0x00009e3a       0xd7 src/asf/common/services/clock/uc3c/pll.o
 .debug_loc     0x00009f11      0x408 src/asf/common/services/clock/uc3c/sysclk.o
 .debug_loc     0x0000a319      0x306 src/asf/common/services/spi/uc3_spi/spi_master.o
 .debug_loc     0x0000a61f      0x12d src/boardsupport.o
 .debug_loc     0x0000a74c       0xac src/main.o
 .debug_loc     0x0000a7f8       0xac c:/program files (x86)/atmel/atmel toolchain/avr32 gcc/native/3.4.2.1002/avr32-gnu-toolchain/bin/../lib/gcc/avr32/4.4.7/../../../../avr32/lib/ucr3fp\libm.a(lib_a-s_cos.o)
 .debug_loc     0x0000a8a4       0xac c:/program files (x86)/atmel/atmel toolchain/avr32 gcc/native/3.4.2.1002/avr32-gnu-toolchain/bin/../lib/gcc/avr32/4.4.7/../../../../avr32/lib/ucr3fp\libm.a(lib_a-s_sin.o)
 .debug_loc     0x0000a950       0x7c c:/program files (x86)/atmel/atmel toolchain/avr32 gcc/native/3.4.2.1002/avr32-gnu-toolchain/bin/../lib/gcc/avr32/4.4.7/../../../../avr32/lib/ucr3fp\libm.a(lib_a-w_asin.o)
 .debug_loc     0x0000a9cc       0x4f c:/program files (x86)/atmel/atmel toolchain/avr32 gcc/native/3.4.2.1002/avr32-gnu-toolchain/bin/../lib/gcc/avr32/4.4.7/../../../../avr32/lib/ucr3fp\libm.a(lib_a-w_atan2.o)
 .debug_loc     0x0000aa1b       0xa4 c:/program files (x86)/atmel/atmel toolchain/avr32 gcc/native/3.4.2.1002/avr32-gnu-toolchain/bin/../lib/gcc/avr32/4.4.7/../../../../avr32/lib/ucr3fp\libm.a(lib_a-w_pow.o)
 .debug_loc     0x0000aabf       0x7c c:/program files (x86)/atmel/atmel toolchain/avr32 gcc/native/3.4.2.1002/avr32-gnu-toolchain/bin/../lib/gcc/avr32/4.4.7/../../../../avr32/lib/ucr3fp\libm.a(lib_a-w_sqrt.o)
 .debug_loc     0x0000ab3b      0x18f c:/program files (x86)/atmel/atmel toolchain/avr32 gcc/native/3.4.2.1002/avr32-gnu-toolchain/bin/../lib/gcc/avr32/4.4.7/../../../../avr32/lib/ucr3fp\libm.a(lib_a-e_asin.o)
 .debug_loc     0x0000acca      0x4e5 c:/program files (x86)/atmel/atmel toolchain/avr32 gcc/native/3.4.2.1002/avr32-gnu-toolchain/bin/../lib/gcc/avr32/4.4.7/../../../../avr32/lib/ucr3fp\libm.a(lib_a-e_atan2.o)
 .debug_loc     0x0000b1af      0x702 c:/program files (x86)/atmel/atmel toolchain/avr32 gcc/native/3.4.2.1002/avr32-gnu-toolchain/bin/../lib/gcc/avr32/4.4.7/../../../../avr32/lib/ucr3fp\libm.a(lib_a-e_pow.o)
 .debug_loc     0x0000b8b1      0x317 c:/program files (x86)/atmel/atmel toolchain/avr32 gcc/native/3.4.2.1002/avr32-gnu-toolchain/bin/../lib/gcc/avr32/4.4.7/../../../../avr32/lib/ucr3fp\libm.a(lib_a-e_rem_pio2.o)
 .debug_loc     0x0000bbc8      0x2fd c:/program files (x86)/atmel/atmel toolchain/avr32 gcc/native/3.4.2.1002/avr32-gnu-toolchain/bin/../lib/gcc/avr32/4.4.7/../../../../avr32/lib/ucr3fp\libm.a(lib_a-e_sqrt.o)
 .debug_loc     0x0000bec5       0xdf c:/program files (x86)/atmel/atmel toolchain/avr32 gcc/native/3.4.2.1002/avr32-gnu-toolchain/bin/../lib/gcc/avr32/4.4.7/../../../../avr32/lib/ucr3fp\libm.a(lib_a-k_cos.o)
 .debug_loc     0x0000bfa4      0x627 c:/program files (x86)/atmel/atmel toolchain/avr32 gcc/native/3.4.2.1002/avr32-gnu-toolchain/bin/../lib/gcc/avr32/4.4.7/../../../../avr32/lib/ucr3fp\libm.a(lib_a-k_rem_pio2.o)
 .debug_loc     0x0000c5cb       0x89 c:/program files (x86)/atmel/atmel toolchain/avr32 gcc/native/3.4.2.1002/avr32-gnu-toolchain/bin/../lib/gcc/avr32/4.4.7/../../../../avr32/lib/ucr3fp\libm.a(lib_a-k_sin.o)
 .debug_loc     0x0000c654      0x243 c:/program files (x86)/atmel/atmel toolchain/avr32 gcc/native/3.4.2.1002/avr32-gnu-toolchain/bin/../lib/gcc/avr32/4.4.7/../../../../avr32/lib/ucr3fp\libm.a(lib_a-s_atan.o)
 .debug_loc     0x0000c897       0x18 c:/program files (x86)/atmel/atmel toolchain/avr32 gcc/native/3.4.2.1002/avr32-gnu-toolchain/bin/../lib/gcc/avr32/4.4.7/../../../../avr32/lib/ucr3fp\libm.a(lib_a-s_fabs.o)
 .debug_loc     0x0000c8af       0x18 c:/program files (x86)/atmel/atmel toolchain/avr32 gcc/native/3.4.2.1002/avr32-gnu-toolchain/bin/../lib/gcc/avr32/4.4.7/../../../../avr32/lib/ucr3fp\libm.a(lib_a-s_finite.o)
 .debug_loc     0x0000c8c7      0x214 c:/program files (x86)/atmel/atmel toolchain/avr32 gcc/native/3.4.2.1002/avr32-gnu-toolchain/bin/../lib/gcc/avr32/4.4.7/../../../../avr32/lib/ucr3fp\libm.a(lib_a-s_floor.o)
 .debug_loc     0x0000cadb       0x18 c:/program files (x86)/atmel/atmel toolchain/avr32 gcc/native/3.4.2.1002/avr32-gnu-toolchain/bin/../lib/gcc/avr32/4.4.7/../../../../avr32/lib/ucr3fp\libm.a(lib_a-s_isnand.o)
 .debug_loc     0x0000caf3       0x13 c:/program files (x86)/atmel/atmel toolchain/avr32 gcc/native/3.4.2.1002/avr32-gnu-toolchain/bin/../lib/gcc/avr32/4.4.7/../../../../avr32/lib/ucr3fp\libm.a(lib_a-s_matherr.o)
 .debug_loc     0x0000cb06      0x26b c:/program files (x86)/atmel/atmel toolchain/avr32 gcc/native/3.4.2.1002/avr32-gnu-toolchain/bin/../lib/gcc/avr32/4.4.7/../../../../avr32/lib/ucr3fp\libm.a(lib_a-s_rint.o)
 .debug_loc     0x0000cd71      0x2f0 c:/program files (x86)/atmel/atmel toolchain/avr32 gcc/native/3.4.2.1002/avr32-gnu-toolchain/bin/../lib/gcc/avr32/4.4.7/../../../../avr32/lib/ucr3fp\libm.a(lib_a-s_scalbn.o)
 .debug_loc     0x0000d061       0x4f c:/program files (x86)/atmel/atmel toolchain/avr32 gcc/native/3.4.2.1002/avr32-gnu-toolchain/bin/../lib/gcc/avr32/4.4.7/../../../../avr32/lib/ucr3fp\libm.a(lib_a-s_copysign.o)
 .debug_loc     0x0000d0b0      0x75d c:/program files (x86)/atmel/atmel toolchain/avr32 gcc/native/3.4.2.1002/avr32-gnu-toolchain/bin/../lib/gcc/avr32/4.4.7/ucr3fp\libgcc.a(_udivdi3.o)
 .debug_loc     0x0000d80d       0x1e c:/program files (x86)/atmel/atmel toolchain/avr32 gcc/native/3.4.2.1002/avr32-gnu-toolchain/bin/../lib/gcc/avr32/4.4.7/../../../../avr32/lib/ucr3fp\libc.a(lib_a-strlen.o)
 .debug_loc     0x0000d82b      0x202 c:/program files (x86)/atmel/atmel toolchain/avr32 gcc/native/3.4.2.1002/avr32-gnu-toolchain/bin/../lib/gcc/avr32/4.4.7/../../../../avr32/lib/ucr3fp\libc.a(lib_a-findfp.o)

.debug_macinfo
 *(.debug_macinfo)

.debug_weaknames
 *(.debug_weaknames)

.debug_funcnames
 *(.debug_funcnames)

.debug_typenames
 *(.debug_typenames)

.debug_varnames
 *(.debug_varnames)

.stack          0x0000f000     0x1000
                0x0000f000                _stack = .
 *(.stack)
                0x00001000                . = _stack_size
 *fill*         0x0000f000     0x1000 
                0x00010000                _estack = .

.userpage
 *(.userpage .userpage.*)

.factorypage
 *(.factorypage .factorypage.*)

.flashvault_flash_size
 *(.flashvault_flash_size .flashvault_flash_size.*)

.flashvault_ram_size
 *(.flashvault_ram_size .flashvault_ram_size.*)

/DISCARD/
 *(.note.GNU-stack)
OUTPUT(MegaFly2.elf elf32-avr32)

.debug_ranges   0x00000000      0x5d8
 .debug_ranges  0x00000000       0x18 Library/communication/onboard_parameters.o
 .debug_ranges  0x00000018       0x20 src/asf/avr32/utils/startup/startup_uc3.o
 .debug_ranges  0x00000038       0x18 c:/program files (x86)/atmel/atmel toolchain/avr32 gcc/native/3.4.2.1002/avr32-gnu-toolchain/bin/../lib/gcc/avr32/4.4.7/../../../../avr32/lib/ucr3fp\libm.a(lib_a-s_cos.o)
 .debug_ranges  0x00000050       0x18 c:/program files (x86)/atmel/atmel toolchain/avr32 gcc/native/3.4.2.1002/avr32-gnu-toolchain/bin/../lib/gcc/avr32/4.4.7/../../../../avr32/lib/ucr3fp\libm.a(lib_a-s_sin.o)
 .debug_ranges  0x00000068       0x18 c:/program files (x86)/atmel/atmel toolchain/avr32 gcc/native/3.4.2.1002/avr32-gnu-toolchain/bin/../lib/gcc/avr32/4.4.7/../../../../avr32/lib/ucr3fp\libm.a(lib_a-w_asin.o)
 .debug_ranges  0x00000080       0x18 c:/program files (x86)/atmel/atmel toolchain/avr32 gcc/native/3.4.2.1002/avr32-gnu-toolchain/bin/../lib/gcc/avr32/4.4.7/../../../../avr32/lib/ucr3fp\libm.a(lib_a-w_atan2.o)
 .debug_ranges  0x00000098       0x18 c:/program files (x86)/atmel/atmel toolchain/avr32 gcc/native/3.4.2.1002/avr32-gnu-toolchain/bin/../lib/gcc/avr32/4.4.7/../../../../avr32/lib/ucr3fp\libm.a(lib_a-w_pow.o)
 .debug_ranges  0x000000b0       0x18 c:/program files (x86)/atmel/atmel toolchain/avr32 gcc/native/3.4.2.1002/avr32-gnu-toolchain/bin/../lib/gcc/avr32/4.4.7/../../../../avr32/lib/ucr3fp\libm.a(lib_a-w_sqrt.o)
 .debug_ranges  0x000000c8       0x30 c:/program files (x86)/atmel/atmel toolchain/avr32 gcc/native/3.4.2.1002/avr32-gnu-toolchain/bin/../lib/gcc/avr32/4.4.7/../../../../avr32/lib/ucr3fp\libm.a(lib_a-e_asin.o)
 .debug_ranges  0x000000f8       0x48 c:/program files (x86)/atmel/atmel toolchain/avr32 gcc/native/3.4.2.1002/avr32-gnu-toolchain/bin/../lib/gcc/avr32/4.4.7/../../../../avr32/lib/ucr3fp\libm.a(lib_a-e_atan2.o)
 .debug_ranges  0x00000140      0x158 c:/program files (x86)/atmel/atmel toolchain/avr32 gcc/native/3.4.2.1002/avr32-gnu-toolchain/bin/../lib/gcc/avr32/4.4.7/../../../../avr32/lib/ucr3fp\libm.a(lib_a-e_pow.o)
 .debug_ranges  0x00000298       0x30 c:/program files (x86)/atmel/atmel toolchain/avr32 gcc/native/3.4.2.1002/avr32-gnu-toolchain/bin/../lib/gcc/avr32/4.4.7/../../../../avr32/lib/ucr3fp\libm.a(lib_a-e_rem_pio2.o)
 .debug_ranges  0x000002c8       0x38 c:/program files (x86)/atmel/atmel toolchain/avr32 gcc/native/3.4.2.1002/avr32-gnu-toolchain/bin/../lib/gcc/avr32/4.4.7/../../../../avr32/lib/ucr3fp\libm.a(lib_a-e_sqrt.o)
 .debug_ranges  0x00000300       0x18 c:/program files (x86)/atmel/atmel toolchain/avr32 gcc/native/3.4.2.1002/avr32-gnu-toolchain/bin/../lib/gcc/avr32/4.4.7/../../../../avr32/lib/ucr3fp\libm.a(lib_a-k_cos.o)
 .debug_ranges  0x00000318       0x18 c:/program files (x86)/atmel/atmel toolchain/avr32 gcc/native/3.4.2.1002/avr32-gnu-toolchain/bin/../lib/gcc/avr32/4.4.7/../../../../avr32/lib/ucr3fp\libm.a(lib_a-k_rem_pio2.o)
 .debug_ranges  0x00000330       0x18 c:/program files (x86)/atmel/atmel toolchain/avr32 gcc/native/3.4.2.1002/avr32-gnu-toolchain/bin/../lib/gcc/avr32/4.4.7/../../../../avr32/lib/ucr3fp\libm.a(lib_a-k_sin.o)
 .debug_ranges  0x00000348       0x18 c:/program files (x86)/atmel/atmel toolchain/avr32 gcc/native/3.4.2.1002/avr32-gnu-toolchain/bin/../lib/gcc/avr32/4.4.7/../../../../avr32/lib/ucr3fp\libm.a(lib_a-s_atan.o)
 .debug_ranges  0x00000360       0x18 c:/program files (x86)/atmel/atmel toolchain/avr32 gcc/native/3.4.2.1002/avr32-gnu-toolchain/bin/../lib/gcc/avr32/4.4.7/../../../../avr32/lib/ucr3fp\libm.a(lib_a-s_fabs.o)
 .debug_ranges  0x00000378       0x18 c:/program files (x86)/atmel/atmel toolchain/avr32 gcc/native/3.4.2.1002/avr32-gnu-toolchain/bin/../lib/gcc/avr32/4.4.7/../../../../avr32/lib/ucr3fp\libm.a(lib_a-s_finite.o)
 .debug_ranges  0x00000390       0x18 c:/program files (x86)/atmel/atmel toolchain/avr32 gcc/native/3.4.2.1002/avr32-gnu-toolchain/bin/../lib/gcc/avr32/4.4.7/../../../../avr32/lib/ucr3fp\libm.a(lib_a-s_floor.o)
 .debug_ranges  0x000003a8       0x18 c:/program files (x86)/atmel/atmel toolchain/avr32 gcc/native/3.4.2.1002/avr32-gnu-toolchain/bin/../lib/gcc/avr32/4.4.7/../../../../avr32/lib/ucr3fp\libm.a(lib_a-s_isnand.o)
 .debug_ranges  0x000003c0       0x18 c:/program files (x86)/atmel/atmel toolchain/avr32 gcc/native/3.4.2.1002/avr32-gnu-toolchain/bin/../lib/gcc/avr32/4.4.7/../../../../avr32/lib/ucr3fp\libm.a(lib_a-s_matherr.o)
 .debug_ranges  0x000003d8       0x18 c:/program files (x86)/atmel/atmel toolchain/avr32 gcc/native/3.4.2.1002/avr32-gnu-toolchain/bin/../lib/gcc/avr32/4.4.7/../../../../avr32/lib/ucr3fp\libm.a(lib_a-s_nan.o)
 .debug_ranges  0x000003f0       0x18 c:/program files (x86)/atmel/atmel toolchain/avr32 gcc/native/3.4.2.1002/avr32-gnu-toolchain/bin/../lib/gcc/avr32/4.4.7/../../../../avr32/lib/ucr3fp\libm.a(lib_a-s_rint.o)
 .debug_ranges  0x00000408       0x30 c:/program files (x86)/atmel/atmel toolchain/avr32 gcc/native/3.4.2.1002/avr32-gnu-toolchain/bin/../lib/gcc/avr32/4.4.7/../../../../avr32/lib/ucr3fp\libm.a(lib_a-s_scalbn.o)
 .debug_ranges  0x00000438       0x18 c:/program files (x86)/atmel/atmel toolchain/avr32 gcc/native/3.4.2.1002/avr32-gnu-toolchain/bin/../lib/gcc/avr32/4.4.7/../../../../avr32/lib/ucr3fp\libm.a(lib_a-s_copysign.o)
 .debug_ranges  0x00000450       0x78 c:/program files (x86)/atmel/atmel toolchain/avr32 gcc/native/3.4.2.1002/avr32-gnu-toolchain/bin/../lib/gcc/avr32/4.4.7/ucr3fp\libgcc.a(_udivdi3.o)
 .debug_ranges  0x000004c8       0x18 c:/program files (x86)/atmel/atmel toolchain/avr32 gcc/native/3.4.2.1002/avr32-gnu-toolchain/bin/../lib/gcc/avr32/4.4.7/../../../../avr32/lib/ucr3fp\libc.a(lib_a-errno.o)
 .debug_ranges  0x000004e0       0x18 c:/program files (x86)/atmel/atmel toolchain/avr32 gcc/native/3.4.2.1002/avr32-gnu-toolchain/bin/../lib/gcc/avr32/4.4.7/../../../../avr32/lib/ucr3fp\libc.a(lib_a-memset.o)
 .debug_ranges  0x000004f8       0x18 c:/program files (x86)/atmel/atmel toolchain/avr32 gcc/native/3.4.2.1002/avr32-gnu-toolchain/bin/../lib/gcc/avr32/4.4.7/../../../../avr32/lib/ucr3fp\libc.a(lib_a-strcpy.o)
 .debug_ranges  0x00000510       0x18 c:/program files (x86)/atmel/atmel toolchain/avr32 gcc/native/3.4.2.1002/avr32-gnu-toolchain/bin/../lib/gcc/avr32/4.4.7/../../../../avr32/lib/ucr3fp\libc.a(lib_a-strlen.o)
 .debug_ranges  0x00000528       0xb0 c:/program files (x86)/atmel/atmel toolchain/avr32 gcc/native/3.4.2.1002/avr32-gnu-toolchain/bin/../lib/gcc/avr32/4.4.7/../../../../avr32/lib/ucr3fp\libc.a(lib_a-findfp.o)
