Archive member included because of file (symbol)

/usr/local/avr32-gnu-toolchain-linux_x86_64/bin/../lib/gcc/avr32/4.4.7/../../../../avr32/lib/ucr3fp/libm.a(lib_a-s_cos.o)
                              ./Debug_Linux/obj/communication_mavlink_waypoint_handler.c.o (cos)
/usr/local/avr32-gnu-toolchain-linux_x86_64/bin/../lib/gcc/avr32/4.4.7/../../../../avr32/lib/ucr3fp/libm.a(lib_a-s_floor.o)
                              ./Debug_Linux/obj/communication_data_logging.c.o (floor)
/usr/local/avr32-gnu-toolchain-linux_x86_64/bin/../lib/gcc/avr32/4.4.7/../../../../avr32/lib/ucr3fp/libm.a(lib_a-s_sin.o)
                              ./Debug_Linux/obj/communication_mavlink_waypoint_handler.c.o (sin)
/usr/local/avr32-gnu-toolchain-linux_x86_64/bin/../lib/gcc/avr32/4.4.7/../../../../avr32/lib/ucr3fp/libm.a(lib_a-w_asin.o)
                              ./Debug_Linux/obj/util_coord_conventions.c.o (asin)
/usr/local/avr32-gnu-toolchain-linux_x86_64/bin/../lib/gcc/avr32/4.4.7/../../../../avr32/lib/ucr3fp/libm.a(lib_a-w_atan2.o)
                              ./Debug_Linux/obj/control_navigation.c.o (atan2)
/usr/local/avr32-gnu-toolchain-linux_x86_64/bin/../lib/gcc/avr32/4.4.7/../../../../avr32/lib/ucr3fp/libm.a(lib_a-w_fmod.o)
                              ./Debug_Linux/obj/util_quick_trig.c.o (fmod)
/usr/local/avr32-gnu-toolchain-linux_x86_64/bin/../lib/gcc/avr32/4.4.7/../../../../avr32/lib/ucr3fp/libm.a(lib_a-w_pow.o)
                              ./Debug_Linux/obj/hal_bmp085.c.o (pow)
/usr/local/avr32-gnu-toolchain-linux_x86_64/bin/../lib/gcc/avr32/4.4.7/../../../../avr32/lib/ucr3fp/libm.a(lib_a-w_sqrt.o)
                              ./Debug_Linux/obj/communication_hud.c.o (sqrt)
/usr/local/avr32-gnu-toolchain-linux_x86_64/bin/../lib/gcc/avr32/4.4.7/../../../../avr32/lib/ucr3fp/libm.a(lib_a-wf_sqrt.o)
                              ./Debug_Linux/obj/util_matrixlib_float.c.o (sqrtf)
/usr/local/avr32-gnu-toolchain-linux_x86_64/bin/../lib/gcc/avr32/4.4.7/../../../../avr32/lib/ucr3fp/libm.a(lib_a-e_asin.o)
                              /usr/local/avr32-gnu-toolchain-linux_x86_64/bin/../lib/gcc/avr32/4.4.7/../../../../avr32/lib/ucr3fp/libm.a(lib_a-w_asin.o) (__ieee754_asin)
/usr/local/avr32-gnu-toolchain-linux_x86_64/bin/../lib/gcc/avr32/4.4.7/../../../../avr32/lib/ucr3fp/libm.a(lib_a-e_atan2.o)
                              /usr/local/avr32-gnu-toolchain-linux_x86_64/bin/../lib/gcc/avr32/4.4.7/../../../../avr32/lib/ucr3fp/libm.a(lib_a-w_atan2.o) (__ieee754_atan2)
/usr/local/avr32-gnu-toolchain-linux_x86_64/bin/../lib/gcc/avr32/4.4.7/../../../../avr32/lib/ucr3fp/libm.a(lib_a-e_fmod.o)
                              /usr/local/avr32-gnu-toolchain-linux_x86_64/bin/../lib/gcc/avr32/4.4.7/../../../../avr32/lib/ucr3fp/libm.a(lib_a-w_fmod.o) (__ieee754_fmod)
/usr/local/avr32-gnu-toolchain-linux_x86_64/bin/../lib/gcc/avr32/4.4.7/../../../../avr32/lib/ucr3fp/libm.a(lib_a-e_pow.o)
                              /usr/local/avr32-gnu-toolchain-linux_x86_64/bin/../lib/gcc/avr32/4.4.7/../../../../avr32/lib/ucr3fp/libm.a(lib_a-w_pow.o) (__ieee754_pow)
/usr/local/avr32-gnu-toolchain-linux_x86_64/bin/../lib/gcc/avr32/4.4.7/../../../../avr32/lib/ucr3fp/libm.a(lib_a-e_rem_pio2.o)
                              /usr/local/avr32-gnu-toolchain-linux_x86_64/bin/../lib/gcc/avr32/4.4.7/../../../../avr32/lib/ucr3fp/libm.a(lib_a-s_cos.o) (__ieee754_rem_pio2)
/usr/local/avr32-gnu-toolchain-linux_x86_64/bin/../lib/gcc/avr32/4.4.7/../../../../avr32/lib/ucr3fp/libm.a(lib_a-e_sqrt.o)
                              /usr/local/avr32-gnu-toolchain-linux_x86_64/bin/../lib/gcc/avr32/4.4.7/../../../../avr32/lib/ucr3fp/libm.a(lib_a-w_sqrt.o) (__ieee754_sqrt)
/usr/local/avr32-gnu-toolchain-linux_x86_64/bin/../lib/gcc/avr32/4.4.7/../../../../avr32/lib/ucr3fp/libm.a(lib_a-ef_sqrt.o)
                              /usr/local/avr32-gnu-toolchain-linux_x86_64/bin/../lib/gcc/avr32/4.4.7/../../../../avr32/lib/ucr3fp/libm.a(lib_a-wf_sqrt.o) (__ieee754_sqrtf)
/usr/local/avr32-gnu-toolchain-linux_x86_64/bin/../lib/gcc/avr32/4.4.7/../../../../avr32/lib/ucr3fp/libm.a(lib_a-k_cos.o)
                              /usr/local/avr32-gnu-toolchain-linux_x86_64/bin/../lib/gcc/avr32/4.4.7/../../../../avr32/lib/ucr3fp/libm.a(lib_a-s_cos.o) (__kernel_cos)
/usr/local/avr32-gnu-toolchain-linux_x86_64/bin/../lib/gcc/avr32/4.4.7/../../../../avr32/lib/ucr3fp/libm.a(lib_a-k_rem_pio2.o)
                              /usr/local/avr32-gnu-toolchain-linux_x86_64/bin/../lib/gcc/avr32/4.4.7/../../../../avr32/lib/ucr3fp/libm.a(lib_a-e_rem_pio2.o) (__kernel_rem_pio2)
/usr/local/avr32-gnu-toolchain-linux_x86_64/bin/../lib/gcc/avr32/4.4.7/../../../../avr32/lib/ucr3fp/libm.a(lib_a-k_sin.o)
                              /usr/local/avr32-gnu-toolchain-linux_x86_64/bin/../lib/gcc/avr32/4.4.7/../../../../avr32/lib/ucr3fp/libm.a(lib_a-s_cos.o) (__kernel_sin)
/usr/local/avr32-gnu-toolchain-linux_x86_64/bin/../lib/gcc/avr32/4.4.7/../../../../avr32/lib/ucr3fp/libm.a(lib_a-s_atan.o)
                              /usr/local/avr32-gnu-toolchain-linux_x86_64/bin/../lib/gcc/avr32/4.4.7/../../../../avr32/lib/ucr3fp/libm.a(lib_a-e_atan2.o) (atan)
/usr/local/avr32-gnu-toolchain-linux_x86_64/bin/../lib/gcc/avr32/4.4.7/../../../../avr32/lib/ucr3fp/libm.a(lib_a-s_fabs.o)
                              /usr/local/avr32-gnu-toolchain-linux_x86_64/bin/../lib/gcc/avr32/4.4.7/../../../../avr32/lib/ucr3fp/libm.a(lib_a-w_asin.o) (fabs)
/usr/local/avr32-gnu-toolchain-linux_x86_64/bin/../lib/gcc/avr32/4.4.7/../../../../avr32/lib/ucr3fp/libm.a(lib_a-s_finite.o)
                              /usr/local/avr32-gnu-toolchain-linux_x86_64/bin/../lib/gcc/avr32/4.4.7/../../../../avr32/lib/ucr3fp/libm.a(lib_a-w_pow.o) (finite)
/usr/local/avr32-gnu-toolchain-linux_x86_64/bin/../lib/gcc/avr32/4.4.7/../../../../avr32/lib/ucr3fp/libm.a(lib_a-s_isnand.o)
                              /usr/local/avr32-gnu-toolchain-linux_x86_64/bin/../lib/gcc/avr32/4.4.7/../../../../avr32/lib/ucr3fp/libm.a(lib_a-w_asin.o) (__isnand)
/usr/local/avr32-gnu-toolchain-linux_x86_64/bin/../lib/gcc/avr32/4.4.7/../../../../avr32/lib/ucr3fp/libm.a(lib_a-s_lib_ver.o)
                              /usr/local/avr32-gnu-toolchain-linux_x86_64/bin/../lib/gcc/avr32/4.4.7/../../../../avr32/lib/ucr3fp/libm.a(lib_a-w_asin.o) (__fdlib_version)
/usr/local/avr32-gnu-toolchain-linux_x86_64/bin/../lib/gcc/avr32/4.4.7/../../../../avr32/lib/ucr3fp/libm.a(lib_a-s_matherr.o)
                              /usr/local/avr32-gnu-toolchain-linux_x86_64/bin/../lib/gcc/avr32/4.4.7/../../../../avr32/lib/ucr3fp/libm.a(lib_a-w_asin.o) (matherr)
/usr/local/avr32-gnu-toolchain-linux_x86_64/bin/../lib/gcc/avr32/4.4.7/../../../../avr32/lib/ucr3fp/libm.a(lib_a-s_nan.o)
                              /usr/local/avr32-gnu-toolchain-linux_x86_64/bin/../lib/gcc/avr32/4.4.7/../../../../avr32/lib/ucr3fp/libm.a(lib_a-w_asin.o) (nan)
/usr/local/avr32-gnu-toolchain-linux_x86_64/bin/../lib/gcc/avr32/4.4.7/../../../../avr32/lib/ucr3fp/libm.a(lib_a-s_rint.o)
                              /usr/local/avr32-gnu-toolchain-linux_x86_64/bin/../lib/gcc/avr32/4.4.7/../../../../avr32/lib/ucr3fp/libm.a(lib_a-w_pow.o) (rint)
/usr/local/avr32-gnu-toolchain-linux_x86_64/bin/../lib/gcc/avr32/4.4.7/../../../../avr32/lib/ucr3fp/libm.a(lib_a-s_scalbn.o)
                              /usr/local/avr32-gnu-toolchain-linux_x86_64/bin/../lib/gcc/avr32/4.4.7/../../../../avr32/lib/ucr3fp/libm.a(lib_a-e_pow.o) (scalbn)
/usr/local/avr32-gnu-toolchain-linux_x86_64/bin/../lib/gcc/avr32/4.4.7/../../../../avr32/lib/ucr3fp/libm.a(lib_a-sf_isnan.o)
                              /usr/local/avr32-gnu-toolchain-linux_x86_64/bin/../lib/gcc/avr32/4.4.7/../../../../avr32/lib/ucr3fp/libm.a(lib_a-wf_sqrt.o) (isnanf)
/usr/local/avr32-gnu-toolchain-linux_x86_64/bin/../lib/gcc/avr32/4.4.7/../../../../avr32/lib/ucr3fp/libm.a(lib_a-s_copysign.o)
                              /usr/local/avr32-gnu-toolchain-linux_x86_64/bin/../lib/gcc/avr32/4.4.7/../../../../avr32/lib/ucr3fp/libm.a(lib_a-s_scalbn.o) (copysign)
/usr/local/avr32-gnu-toolchain-linux_x86_64/bin/../lib/gcc/avr32/4.4.7/ucr3fp/libgcc.a(_avr32_f64_mul.o)
                              ./Debug_Linux/obj/src_tasks.c.o (__avr32_f64_mul)
/usr/local/avr32-gnu-toolchain-linux_x86_64/bin/../lib/gcc/avr32/4.4.7/ucr3fp/libgcc.a(_avr32_f64_addsub.o)
                              ./Debug_Linux/obj/communication_data_logging.c.o (__avr32_f64_sub)
/usr/local/avr32-gnu-toolchain-linux_x86_64/bin/../lib/gcc/avr32/4.4.7/ucr3fp/libgcc.a(_avr32_f64_to_s32.o)
                              ./Debug_Linux/obj/util_generator.c.o (__avr32_f64_to_u32)
/usr/local/avr32-gnu-toolchain-linux_x86_64/bin/../lib/gcc/avr32/4.4.7/ucr3fp/libgcc.a(_avr32_f64_to_s64.o)
                              ./Debug_Linux/obj/communication_data_logging.c.o (__avr32_f64_to_s64)
/usr/local/avr32-gnu-toolchain-linux_x86_64/bin/../lib/gcc/avr32/4.4.7/ucr3fp/libgcc.a(_avr32_s32_to_f64.o)
                              ./Debug_Linux/obj/hal_time_keeper.c.o (__avr32_u32_to_f64)
/usr/local/avr32-gnu-toolchain-linux_x86_64/bin/../lib/gcc/avr32/4.4.7/ucr3fp/libgcc.a(_avr32_f64_cmp_eq.o)
                              /usr/local/avr32-gnu-toolchain-linux_x86_64/bin/../lib/gcc/avr32/4.4.7/../../../../avr32/lib/ucr3fp/libm.a(lib_a-w_fmod.o) (__avr32_f64_cmp_eq)
/usr/local/avr32-gnu-toolchain-linux_x86_64/bin/../lib/gcc/avr32/4.4.7/ucr3fp/libgcc.a(_avr32_f64_cmp_ge.o)
                              /usr/local/avr32-gnu-toolchain-linux_x86_64/bin/../lib/gcc/avr32/4.4.7/../../../../avr32/lib/ucr3fp/libm.a(lib_a-e_pow.o) (__avr32_f64_cmp_ge)
/usr/local/avr32-gnu-toolchain-linux_x86_64/bin/../lib/gcc/avr32/4.4.7/ucr3fp/libgcc.a(_avr32_f64_cmp_lt.o)
                              ./Debug_Linux/obj/communication_data_logging.c.o (__avr32_f64_cmp_lt)
/usr/local/avr32-gnu-toolchain-linux_x86_64/bin/../lib/gcc/avr32/4.4.7/ucr3fp/libgcc.a(_avr32_f32_cmp_lt.o)
                              /usr/local/avr32-gnu-toolchain-linux_x86_64/bin/../lib/gcc/avr32/4.4.7/../../../../avr32/lib/ucr3fp/libm.a(lib_a-wf_sqrt.o) (__avr32_f32_cmp_lt)
/usr/local/avr32-gnu-toolchain-linux_x86_64/bin/../lib/gcc/avr32/4.4.7/ucr3fp/libgcc.a(_avr32_f64_div.o)
                              ./Debug_Linux/obj/communication_mavlink_waypoint_handler.c.o (__avr32_f64_div)
/usr/local/avr32-gnu-toolchain-linux_x86_64/bin/../lib/gcc/avr32/4.4.7/ucr3fp/libgcc.a(_avr32_f32_div.o)
                              ./Debug_Linux/obj/src_tasks.c.o (__avr32_f32_div)
/usr/local/avr32-gnu-toolchain-linux_x86_64/bin/../lib/gcc/avr32/4.4.7/ucr3fp/libgcc.a(_avr32_f32_addsub.o)
                              /usr/local/avr32-gnu-toolchain-linux_x86_64/bin/../lib/gcc/avr32/4.4.7/../../../../avr32/lib/ucr3fp/libm.a(lib_a-ef_sqrt.o) (__avr32_f32_sub)
/usr/local/avr32-gnu-toolchain-linux_x86_64/bin/../lib/gcc/avr32/4.4.7/ucr3fp/libgcc.a(_avr32_f32_mul.o)
                              /usr/local/avr32-gnu-toolchain-linux_x86_64/bin/../lib/gcc/avr32/4.4.7/../../../../avr32/lib/ucr3fp/libm.a(lib_a-ef_sqrt.o) (__avr32_f32_mul)
/usr/local/avr32-gnu-toolchain-linux_x86_64/bin/../lib/gcc/avr32/4.4.7/ucr3fp/libgcc.a(_avr32_f32_to_f64.o)
                              ./Debug_Linux/obj/src_tasks.c.o (__avr32_f32_to_f64)
/usr/local/avr32-gnu-toolchain-linux_x86_64/bin/../lib/gcc/avr32/4.4.7/ucr3fp/libgcc.a(_avr32_f64_to_f32.o)
                              ./Debug_Linux/obj/src_tasks.c.o (__avr32_f64_to_f32)
/usr/local/avr32-gnu-toolchain-linux_x86_64/bin/../lib/gcc/avr32/4.4.7/ucr3fp/libgcc.a(_floatdidf.o)
                              ./Debug_Linux/obj/communication_data_logging.c.o (__avr32_s64_to_f64)
/usr/local/avr32-gnu-toolchain-linux_x86_64/bin/../lib/gcc/avr32/4.4.7/ucr3fp/libgcc.a(_divdi3.o)
                              ./Debug_Linux/obj/util_print_util.c.o (__avr32_sdiv64)
/usr/local/avr32-gnu-toolchain-linux_x86_64/bin/../lib/gcc/avr32/4.4.7/ucr3fp/libgcc.a(_moddi3.o)
                              ./Debug_Linux/obj/util_print_util.c.o (__avr32_smod64)
/usr/local/avr32-gnu-toolchain-linux_x86_64/bin/../lib/gcc/avr32/4.4.7/ucr3fp/libgcc.a(_udivdi3.o)
                              ./Debug_Linux/obj/communication_data_logging.c.o (__avr32_udiv64)
/usr/local/avr32-gnu-toolchain-linux_x86_64/bin/../lib/gcc/avr32/4.4.7/ucr3fp/libgcc.a(_umoddi3.o)
                              ./Debug_Linux/obj/communication_data_logging.c.o (__avr32_umod64)
/usr/local/avr32-gnu-toolchain-linux_x86_64/bin/../lib/gcc/avr32/4.4.7/../../../../avr32/lib/ucr3fp/libc.a(lib_a-errno.o)
                              /usr/local/avr32-gnu-toolchain-linux_x86_64/bin/../lib/gcc/avr32/4.4.7/../../../../avr32/lib/ucr3fp/libm.a(lib_a-w_asin.o) (__errno)
/usr/local/avr32-gnu-toolchain-linux_x86_64/bin/../lib/gcc/avr32/4.4.7/../../../../avr32/lib/ucr3fp/libc.a(lib_a-impure.o)
                              /usr/local/avr32-gnu-toolchain-linux_x86_64/bin/../lib/gcc/avr32/4.4.7/../../../../avr32/lib/ucr3fp/libc.a(lib_a-errno.o) (_impure_ptr)
/usr/local/avr32-gnu-toolchain-linux_x86_64/bin/../lib/gcc/avr32/4.4.7/../../../../avr32/lib/ucr3fp/libc.a(lib_a-malloc.o)
                              ./Debug_Linux/obj/option_syscall.c.o (free)
/usr/local/avr32-gnu-toolchain-linux_x86_64/bin/../lib/gcc/avr32/4.4.7/../../../../avr32/lib/ucr3fp/libc.a(lib_a-mallocr.o)
                              /usr/local/avr32-gnu-toolchain-linux_x86_64/bin/../lib/gcc/avr32/4.4.7/../../../../avr32/lib/ucr3fp/libc.a(lib_a-malloc.o) (_malloc_r)
/usr/local/avr32-gnu-toolchain-linux_x86_64/bin/../lib/gcc/avr32/4.4.7/../../../../avr32/lib/ucr3fp/libc.a(lib_a-memcpy.o)
                              ./Debug_Linux/obj/src_central_data.c.o (memcpy)
/usr/local/avr32-gnu-toolchain-linux_x86_64/bin/../lib/gcc/avr32/4.4.7/../../../../avr32/lib/ucr3fp/libc.a(lib_a-memset.o)
                              ./Debug_Linux/obj/src_central_data.c.o (memset)
/usr/local/avr32-gnu-toolchain-linux_x86_64/bin/../lib/gcc/avr32/4.4.7/../../../../avr32/lib/ucr3fp/libc.a(lib_a-mlock.o)
                              /usr/local/avr32-gnu-toolchain-linux_x86_64/bin/../lib/gcc/avr32/4.4.7/../../../../avr32/lib/ucr3fp/libc.a(lib_a-mallocr.o) (__malloc_lock)
/usr/local/avr32-gnu-toolchain-linux_x86_64/bin/../lib/gcc/avr32/4.4.7/../../../../avr32/lib/ucr3fp/libc.a(lib_a-sbrkr.o)
                              /usr/local/avr32-gnu-toolchain-linux_x86_64/bin/../lib/gcc/avr32/4.4.7/../../../../avr32/lib/ucr3fp/libc.a(lib_a-mallocr.o) (_sbrk_r)
/usr/local/avr32-gnu-toolchain-linux_x86_64/bin/../lib/gcc/avr32/4.4.7/../../../../avr32/lib/ucr3fp/libc.a(lib_a-snprintf.o)
                              ./Debug_Linux/obj/communication_data_logging.c.o (snprintf)
/usr/local/avr32-gnu-toolchain-linux_x86_64/bin/../lib/gcc/avr32/4.4.7/../../../../avr32/lib/ucr3fp/libc.a(lib_a-strcpy.o)
                              ./Debug_Linux/obj/communication_onboard_parameters.c.o (strcpy)
/usr/local/avr32-gnu-toolchain-linux_x86_64/bin/../lib/gcc/avr32/4.4.7/../../../../avr32/lib/ucr3fp/libc.a(lib_a-strlen.o)
                              ./Debug_Linux/obj/communication_onboard_parameters.c.o (strlen)
/usr/local/avr32-gnu-toolchain-linux_x86_64/bin/../lib/gcc/avr32/4.4.7/../../../../avr32/lib/ucr3fp/libc.a(lib_a-syscalls.o)
                              /usr/local/avr32-gnu-toolchain-linux_x86_64/bin/../lib/gcc/avr32/4.4.7/../../../../avr32/lib/ucr3fp/libc.a(lib_a-sbrkr.o) (_sbrk)
/usr/local/avr32-gnu-toolchain-linux_x86_64/bin/../lib/gcc/avr32/4.4.7/../../../../avr32/lib/ucr3fp/libc.a(lib_a-vfprintf.o)
                              /usr/local/avr32-gnu-toolchain-linux_x86_64/bin/../lib/gcc/avr32/4.4.7/../../../../avr32/lib/ucr3fp/libc.a(lib_a-snprintf.o) (_vfprintf_r)
/usr/local/avr32-gnu-toolchain-linux_x86_64/bin/../lib/gcc/avr32/4.4.7/../../../../avr32/lib/ucr3fp/libc.a(lib_a-wsetup.o)
                              /usr/local/avr32-gnu-toolchain-linux_x86_64/bin/../lib/gcc/avr32/4.4.7/../../../../avr32/lib/ucr3fp/libc.a(lib_a-vfprintf.o) (__swsetup_r)
/usr/local/avr32-gnu-toolchain-linux_x86_64/bin/../lib/gcc/avr32/4.4.7/../../../../avr32/lib/ucr3fp/libc.a(lib_a-dtoa.o)
                              /usr/local/avr32-gnu-toolchain-linux_x86_64/bin/../lib/gcc/avr32/4.4.7/../../../../avr32/lib/ucr3fp/libc.a(lib_a-vfprintf.o) (_dtoa_r)
/usr/local/avr32-gnu-toolchain-linux_x86_64/bin/../lib/gcc/avr32/4.4.7/../../../../avr32/lib/ucr3fp/libc.a(lib_a-fflush.o)
                              /usr/local/avr32-gnu-toolchain-linux_x86_64/bin/../lib/gcc/avr32/4.4.7/../../../../avr32/lib/ucr3fp/libc.a(lib_a-vfprintf.o) (_fflush_r)
/usr/local/avr32-gnu-toolchain-linux_x86_64/bin/../lib/gcc/avr32/4.4.7/../../../../avr32/lib/ucr3fp/libc.a(lib_a-findfp.o)
                              /usr/local/avr32-gnu-toolchain-linux_x86_64/bin/../lib/gcc/avr32/4.4.7/../../../../avr32/lib/ucr3fp/libc.a(lib_a-vfprintf.o) (__sinit)
/usr/local/avr32-gnu-toolchain-linux_x86_64/bin/../lib/gcc/avr32/4.4.7/../../../../avr32/lib/ucr3fp/libc.a(lib_a-freer.o)
                              /usr/local/avr32-gnu-toolchain-linux_x86_64/bin/../lib/gcc/avr32/4.4.7/../../../../avr32/lib/ucr3fp/libc.a(lib_a-malloc.o) (_free_r)
/usr/local/avr32-gnu-toolchain-linux_x86_64/bin/../lib/gcc/avr32/4.4.7/../../../../avr32/lib/ucr3fp/libc.a(lib_a-fvwrite.o)
                              /usr/local/avr32-gnu-toolchain-linux_x86_64/bin/../lib/gcc/avr32/4.4.7/../../../../avr32/lib/ucr3fp/libc.a(lib_a-vfprintf.o) (__sfvwrite_r)
/usr/local/avr32-gnu-toolchain-linux_x86_64/bin/../lib/gcc/avr32/4.4.7/../../../../avr32/lib/ucr3fp/libc.a(lib_a-fwalk.o)
                              /usr/local/avr32-gnu-toolchain-linux_x86_64/bin/../lib/gcc/avr32/4.4.7/../../../../avr32/lib/ucr3fp/libc.a(lib_a-fflush.o) (_fwalk_reent)
/usr/local/avr32-gnu-toolchain-linux_x86_64/bin/../lib/gcc/avr32/4.4.7/../../../../avr32/lib/ucr3fp/libc.a(lib_a-locale.o)
                              /usr/local/avr32-gnu-toolchain-linux_x86_64/bin/../lib/gcc/avr32/4.4.7/../../../../avr32/lib/ucr3fp/libc.a(lib_a-vfprintf.o) (_localeconv_r)
/usr/local/avr32-gnu-toolchain-linux_x86_64/bin/../lib/gcc/avr32/4.4.7/../../../../avr32/lib/ucr3fp/libc.a(lib_a-makebuf.o)
                              /usr/local/avr32-gnu-toolchain-linux_x86_64/bin/../lib/gcc/avr32/4.4.7/../../../../avr32/lib/ucr3fp/libc.a(lib_a-wsetup.o) (__smakebuf_r)
/usr/local/avr32-gnu-toolchain-linux_x86_64/bin/../lib/gcc/avr32/4.4.7/../../../../avr32/lib/ucr3fp/libc.a(lib_a-memchr.o)
                              /usr/local/avr32-gnu-toolchain-linux_x86_64/bin/../lib/gcc/avr32/4.4.7/../../../../avr32/lib/ucr3fp/libc.a(lib_a-vfprintf.o) (memchr)
/usr/local/avr32-gnu-toolchain-linux_x86_64/bin/../lib/gcc/avr32/4.4.7/../../../../avr32/lib/ucr3fp/libc.a(lib_a-memmove.o)
                              /usr/local/avr32-gnu-toolchain-linux_x86_64/bin/../lib/gcc/avr32/4.4.7/../../../../avr32/lib/ucr3fp/libc.a(lib_a-fvwrite.o) (memmove)
/usr/local/avr32-gnu-toolchain-linux_x86_64/bin/../lib/gcc/avr32/4.4.7/../../../../avr32/lib/ucr3fp/libc.a(lib_a-mprec.o)
                              /usr/local/avr32-gnu-toolchain-linux_x86_64/bin/../lib/gcc/avr32/4.4.7/../../../../avr32/lib/ucr3fp/libc.a(lib_a-dtoa.o) (__hi0bits)
/usr/local/avr32-gnu-toolchain-linux_x86_64/bin/../lib/gcc/avr32/4.4.7/../../../../avr32/lib/ucr3fp/libc.a(lib_a-reallocr.o)
                              /usr/local/avr32-gnu-toolchain-linux_x86_64/bin/../lib/gcc/avr32/4.4.7/../../../../avr32/lib/ucr3fp/libc.a(lib_a-fvwrite.o) (_realloc_r)
/usr/local/avr32-gnu-toolchain-linux_x86_64/bin/../lib/gcc/avr32/4.4.7/../../../../avr32/lib/ucr3fp/libc.a(lib_a-reent.o)
                              /usr/local/avr32-gnu-toolchain-linux_x86_64/bin/../lib/gcc/avr32/4.4.7/../../../../avr32/lib/ucr3fp/libc.a(lib_a-sbrkr.o) (errno)
/usr/local/avr32-gnu-toolchain-linux_x86_64/bin/../lib/gcc/avr32/4.4.7/../../../../avr32/lib/ucr3fp/libc.a(lib_a-s_isinfd.o)
                              /usr/local/avr32-gnu-toolchain-linux_x86_64/bin/../lib/gcc/avr32/4.4.7/../../../../avr32/lib/ucr3fp/libc.a(lib_a-vfprintf.o) (__isinfd)
/usr/local/avr32-gnu-toolchain-linux_x86_64/bin/../lib/gcc/avr32/4.4.7/../../../../avr32/lib/ucr3fp/libc.a(lib_a-stdio.o)
                              /usr/local/avr32-gnu-toolchain-linux_x86_64/bin/../lib/gcc/avr32/4.4.7/../../../../avr32/lib/ucr3fp/libc.a(lib_a-findfp.o) (__sclose)
/usr/local/avr32-gnu-toolchain-linux_x86_64/bin/../lib/gcc/avr32/4.4.7/../../../../avr32/lib/ucr3fp/libc.a(lib_a-strcmp.o)
                              /usr/local/avr32-gnu-toolchain-linux_x86_64/bin/../lib/gcc/avr32/4.4.7/../../../../avr32/lib/ucr3fp/libc.a(lib_a-locale.o) (strcmp)
/usr/local/avr32-gnu-toolchain-linux_x86_64/bin/../lib/gcc/avr32/4.4.7/../../../../avr32/lib/ucr3fp/libc.a(lib_a-writer.o)
                              /usr/local/avr32-gnu-toolchain-linux_x86_64/bin/../lib/gcc/avr32/4.4.7/../../../../avr32/lib/ucr3fp/libc.a(lib_a-stdio.o) (_write_r)
/usr/local/avr32-gnu-toolchain-linux_x86_64/bin/../lib/gcc/avr32/4.4.7/../../../../avr32/lib/ucr3fp/libc.a(lib_a-callocr.o)
                              /usr/local/avr32-gnu-toolchain-linux_x86_64/bin/../lib/gcc/avr32/4.4.7/../../../../avr32/lib/ucr3fp/libc.a(lib_a-mprec.o) (_calloc_r)
/usr/local/avr32-gnu-toolchain-linux_x86_64/bin/../lib/gcc/avr32/4.4.7/../../../../avr32/lib/ucr3fp/libc.a(lib_a-closer.o)
                              /usr/local/avr32-gnu-toolchain-linux_x86_64/bin/../lib/gcc/avr32/4.4.7/../../../../avr32/lib/ucr3fp/libc.a(lib_a-stdio.o) (_close_r)
/usr/local/avr32-gnu-toolchain-linux_x86_64/bin/../lib/gcc/avr32/4.4.7/../../../../avr32/lib/ucr3fp/libc.a(lib_a-fclose.o)
                              /usr/local/avr32-gnu-toolchain-linux_x86_64/bin/../lib/gcc/avr32/4.4.7/../../../../avr32/lib/ucr3fp/libc.a(lib_a-findfp.o) (fclose)
/usr/local/avr32-gnu-toolchain-linux_x86_64/bin/../lib/gcc/avr32/4.4.7/../../../../avr32/lib/ucr3fp/libc.a(lib_a-fstatr.o)
                              /usr/local/avr32-gnu-toolchain-linux_x86_64/bin/../lib/gcc/avr32/4.4.7/../../../../avr32/lib/ucr3fp/libc.a(lib_a-makebuf.o) (_fstat_r)
/usr/local/avr32-gnu-toolchain-linux_x86_64/bin/../lib/gcc/avr32/4.4.7/../../../../avr32/lib/ucr3fp/libc.a(lib_a-lseekr.o)
                              /usr/local/avr32-gnu-toolchain-linux_x86_64/bin/../lib/gcc/avr32/4.4.7/../../../../avr32/lib/ucr3fp/libc.a(lib_a-stdio.o) (_lseek_r)
/usr/local/avr32-gnu-toolchain-linux_x86_64/bin/../lib/gcc/avr32/4.4.7/../../../../avr32/lib/ucr3fp/libc.a(lib_a-readr.o)
                              /usr/local/avr32-gnu-toolchain-linux_x86_64/bin/../lib/gcc/avr32/4.4.7/../../../../avr32/lib/ucr3fp/libc.a(lib_a-stdio.o) (_read_r)

Allocating common symbols
Common symbol       size              file

adci_buffer         0x40              ./Debug_Linux/obj/hal_adc_int.c.o
ubx_cfg_rate_message
                    0xc               ./Debug_Linux/obj/hal_gps_ublox.c.o
console_out_stream  0x18              ./Debug_Linux/obj/communication_console.c.o
deb_stream          0x4               ./Debug_Linux/obj/util_print_util.c.o
udd_ep_out_cache_buffer
                    0xc0              ./Debug_Linux/obj/usbc_usbc_device.c.o
main_target         0x20              ./Debug_Linux/obj/hal_radar_module_driver.c.o
b2                  0x2               ./Debug_Linux/obj/hal_bmp085.c.o
ram_buffer2         0x3e8             ./Debug_Linux/obj/hal_sd_spi.c.o
errno               0x4               /usr/local/avr32-gnu-toolchain-linux_x86_64/bin/../lib/gcc/avr32/4.4.7/../../../../avr32/lib/ucr3fp/libc.a(lib_a-reent.o)
mb                  0x2               ./Debug_Linux/obj/hal_bmp085.c.o
ubx_solution_message
                    0x68              ./Debug_Linux/obj/hal_gps_ublox.c.o
console_in_buffer   0x103             ./Debug_Linux/obj/communication_console.c.o
continuous_mode     0x1               ./Debug_Linux/obj/hal_adc_int.c.o
ac1                 0x2               ./Debug_Linux/obj/hal_bmp085.c.o
current_transfer    0x4               ./Debug_Linux/obj/hal_i2c_driver_int.c.o
adapt_param_set     0x20c             ./Debug_Linux/obj/control_adaptive_parameter.c.o
b1                  0x2               ./Debug_Linux/obj/hal_bmp085.c.o
ac6                 0x2               ./Debug_Linux/obj/hal_bmp085.c.o
eic_options         0x6               ./Debug_Linux/obj/hal_ads1274.c.o
end_of_transfer     0x1               ./Debug_Linux/obj/hal_sd_spi.c.o
ptr_get             0x4               ./Debug_Linux/obj/stdio_read.c.o
ac5                 0x2               ./Debug_Linux/obj/hal_bmp085.c.o
xbee_in_buffer      0x103             ./Debug_Linux/obj/hal_xbee.c.o
ac2                 0x2               ./Debug_Linux/obj/hal_bmp085.c.o
ubx_tim_vrfy_message
                    0x28              ./Debug_Linux/obj/hal_gps_ublox.c.o
sd_spi              0x2c              ./Debug_Linux/obj/hal_sd_spi.c.o
ptr_put             0x4               ./Debug_Linux/obj/stdio_write.c.o
even_odd            0x1               ./Debug_Linux/obj/hal_adc_int.c.o
ubx_vel_ned_message
                    0x48              ./Debug_Linux/obj/hal_gps_ublox.c.o
md                  0x2               ./Debug_Linux/obj/hal_bmp085.c.o
adcifa_sequencer0_conversion_opt
                    0x18              ./Debug_Linux/obj/hal_adc_int.c.o
sat                 0x134             ./Debug_Linux/obj/hal_spektrum_satellite.c.o
current_slot        0x4               ./Debug_Linux/obj/hal_i2c_driver_int.c.o
ac4                 0x2               ./Debug_Linux/obj/hal_bmp085.c.o
pdca_channeltx      0x4               ./Debug_Linux/obj/hal_sd_spi.c.o
pdca_channelrx      0x4               ./Debug_Linux/obj/hal_sd_spi.c.o
ram_buffer          0x3e8             ./Debug_Linux/obj/hal_sd_spi.c.o
mc                  0x2               ./Debug_Linux/obj/hal_bmp085.c.o
channel_center      0x20              ./Debug_Linux/obj/hal_spektrum_satellite.c.o
console_in_stream   0x18              ./Debug_Linux/obj/communication_console.c.o
xbee_in_stream      0x18              ./Debug_Linux/obj/hal_xbee.c.o
udd_g_ctrlreq       0x18              ./Debug_Linux/obj/usbc_usbc_device.c.o
ubx_mon_rxr_message
                    0x2               ./Debug_Linux/obj/hal_gps_ublox.c.o
stdio_base          0x4               ./Debug_Linux/obj/stdio_write.c.o
sleepmgr_locks      0x7               ./Debug_Linux/obj/uc3_sleepmgr.c.o
ubx_nav_settings_message
                    0x48              ./Debug_Linux/obj/hal_gps_ublox.c.o
gcfg                0x4               ./Debug_Linux/obj/hal_ads1274.c.o
ubx_sv_info_message
                    0x190             ./Debug_Linux/obj/hal_gps_ublox.c.o
use_servos_7_8      0x1               ./Debug_Linux/obj/hal_pwm_servos.c.o
xbee_out_stream     0x18              ./Debug_Linux/obj/hal_xbee.c.o
ubx_pos_llh_message
                    0x38              ./Debug_Linux/obj/hal_gps_ublox.c.o
ubx_tim_tp_message  0x20              ./Debug_Linux/obj/hal_gps_ublox.c.o
udd_ctrl_buffer     0x40              ./Debug_Linux/obj/usbc_usbc_device.c.o
last_slot           0x4               ./Debug_Linux/obj/hal_i2c_driver_int.c.o
ubx_cfg_set_get_rate_message
                    0x6               ./Debug_Linux/obj/hal_gps_ublox.c.o
ubx_status_message  0x20              ./Debug_Linux/obj/hal_gps_ublox.c.o
ac3                 0x2               ./Debug_Linux/obj/hal_bmp085.c.o
blocking            0x1               ./Debug_Linux/obj/util_print_util.c.o
transfer_queue      0x118             ./Debug_Linux/obj/hal_i2c_driver_int.c.o
actual_status       0x1               ./Debug_Linux/obj/fat_fs_diskio.c.o

Discarded input sections

 .data          0x0000000000000000       0x20 ./Debug_Linux/obj/src_tasks.c.o
 .bss           0x0000000000000000        0x0 ./Debug_Linux/obj/src_tasks.c.o
 COMMON         0x0000000000000000        0x0 ./Debug_Linux/obj/src_tasks.c.o
 .data          0x0000000000000000        0x8 ./Debug_Linux/obj/src_main.cpp.o
 .bss           0x0000000000000000        0x0 ./Debug_Linux/obj/src_main.cpp.o
 .data          0x0000000000000000        0x4 ./Debug_Linux/obj/src_boardsupport.c.o
 .bss           0x0000000000000000        0x0 ./Debug_Linux/obj/src_boardsupport.c.o
 .data          0x0000000000000000        0xc ./Debug_Linux/obj/src_mavlink_telemetry.c.o
 .bss           0x0000000000000000        0x0 ./Debug_Linux/obj/src_mavlink_telemetry.c.o
 .data          0x0000000000000000        0x8 ./Debug_Linux/obj/src_central_data.c.o
 .bss           0x0000000000000000        0x0 ./Debug_Linux/obj/src_central_data.c.o
 .data          0x0000000000000000       0x10 ./Debug_Linux/obj/communication_mavlink_stream.c.o
 .bss           0x0000000000000000        0x0 ./Debug_Linux/obj/communication_mavlink_stream.c.o
 .data          0x0000000000000000       0x50 ./Debug_Linux/obj/communication_mavlink_waypoint_handler.c.o
 .bss           0x0000000000000000        0x0 ./Debug_Linux/obj/communication_mavlink_waypoint_handler.c.o
 .data          0x0000000000000000       0x2c ./Debug_Linux/obj/communication_onboard_parameters.c.o
 .bss           0x0000000000000000        0x0 ./Debug_Linux/obj/communication_onboard_parameters.c.o
 .data          0x0000000000000000       0x18 ./Debug_Linux/obj/communication_mavlink_message_handler.c.o
 .bss           0x0000000000000000        0x0 ./Debug_Linux/obj/communication_mavlink_message_handler.c.o
 .data          0x0000000000000000       0x10 ./Debug_Linux/obj/communication_mavlink_communication.c.o
 .bss           0x0000000000000000        0x0 ./Debug_Linux/obj/communication_mavlink_communication.c.o
 .data          0x0000000000000000        0xc ./Debug_Linux/obj/communication_console.c.o
 .bss           0x0000000000000000        0x0 ./Debug_Linux/obj/communication_console.c.o
 .data          0x0000000000000000       0x10 ./Debug_Linux/obj/communication_state.c.o
 .bss           0x0000000000000000        0x0 ./Debug_Linux/obj/communication_state.c.o
 .data          0x0000000000000000        0x8 ./Debug_Linux/obj/communication_hud.c.o
 .bss           0x0000000000000000        0x0 ./Debug_Linux/obj/communication_hud.c.o
 .data          0x0000000000000000       0x34 ./Debug_Linux/obj/communication_remote.c.o
 .bss           0x0000000000000000        0x0 ./Debug_Linux/obj/communication_remote.c.o
 .data          0x0000000000000000        0x8 ./Debug_Linux/obj/communication_state_machine.c.o
 .bss           0x0000000000000000        0x0 ./Debug_Linux/obj/communication_state_machine.c.o
 .data          0x0000000000000000       0x38 ./Debug_Linux/obj/communication_data_logging.c.o
 .bss           0x0000000000000000        0x0 ./Debug_Linux/obj/communication_data_logging.c.o
 .data          0x0000000000000000       0x10 ./Debug_Linux/obj/control_pid_control.c.o
 .bss           0x0000000000000000        0x0 ./Debug_Linux/obj/control_pid_control.c.o
 .data          0x0000000000000000       0x2c ./Debug_Linux/obj/control_navigation.c.o
 .bss           0x0000000000000000        0x0 ./Debug_Linux/obj/control_navigation.c.o
 .data          0x0000000000000000       0x10 ./Debug_Linux/obj/control_stabilisation_copter.c.o
 .bss           0x0000000000000000        0x0 ./Debug_Linux/obj/control_stabilisation_copter.c.o
 .text          0x0000000000000000      0x2d0 ./Debug_Linux/obj/control_adaptive_parameter.c.o
 .data          0x0000000000000000       0x14 ./Debug_Linux/obj/control_adaptive_parameter.c.o
 .bss           0x0000000000000000        0x0 ./Debug_Linux/obj/control_adaptive_parameter.c.o
 .debug_abbrev  0x0000000000000000      0x1e3 ./Debug_Linux/obj/control_adaptive_parameter.c.o
 .debug_info    0x0000000000000000      0x382 ./Debug_Linux/obj/control_adaptive_parameter.c.o
 .debug_line    0x0000000000000000      0x2e9 ./Debug_Linux/obj/control_adaptive_parameter.c.o
 .debug_frame   0x0000000000000000       0xc8 ./Debug_Linux/obj/control_adaptive_parameter.c.o
 .debug_loc     0x0000000000000000      0x1fb ./Debug_Linux/obj/control_adaptive_parameter.c.o
 .debug_pubnames
                0x0000000000000000       0xc2 ./Debug_Linux/obj/control_adaptive_parameter.c.o
 .debug_aranges
                0x0000000000000000       0x20 ./Debug_Linux/obj/control_adaptive_parameter.c.o
 .debug_ranges  0x0000000000000000       0xa0 ./Debug_Linux/obj/control_adaptive_parameter.c.o
 .debug_str     0x0000000000000000      0x298 ./Debug_Linux/obj/control_adaptive_parameter.c.o
 .comment       0x0000000000000000       0x31 ./Debug_Linux/obj/control_adaptive_parameter.c.o
 COMMON         0x0000000000000000      0x20c ./Debug_Linux/obj/control_adaptive_parameter.c.o
 .data          0x0000000000000000       0x14 ./Debug_Linux/obj/control_stabilisation.c.o
 .bss           0x0000000000000000        0x0 ./Debug_Linux/obj/control_stabilisation.c.o
 .data          0x0000000000000000       0x14 ./Debug_Linux/obj/control_attitude_error_estimator.c.o
 .bss           0x0000000000000000        0x0 ./Debug_Linux/obj/control_attitude_error_estimator.c.o
 .data          0x0000000000000000        0x8 ./Debug_Linux/obj/control_attitude_controller_p2.c.o
 .bss           0x0000000000000000        0x0 ./Debug_Linux/obj/control_attitude_controller_p2.c.o
 .text          0x0000000000000000      0x168 ./Debug_Linux/obj/control_servos_mix_quadcopter_cross.c.o
 .data          0x0000000000000000        0x8 ./Debug_Linux/obj/control_servos_mix_quadcopter_cross.c.o
 .bss           0x0000000000000000        0x0 ./Debug_Linux/obj/control_servos_mix_quadcopter_cross.c.o
 .debug_abbrev  0x0000000000000000      0x184 ./Debug_Linux/obj/control_servos_mix_quadcopter_cross.c.o
 .debug_info    0x0000000000000000      0x78f ./Debug_Linux/obj/control_servos_mix_quadcopter_cross.c.o
 .debug_line    0x0000000000000000      0x2fa ./Debug_Linux/obj/control_servos_mix_quadcopter_cross.c.o
 .debug_frame   0x0000000000000000       0x4c ./Debug_Linux/obj/control_servos_mix_quadcopter_cross.c.o
 .debug_loc     0x0000000000000000       0x87 ./Debug_Linux/obj/control_servos_mix_quadcopter_cross.c.o
 .debug_pubnames
                0x0000000000000000       0x5d ./Debug_Linux/obj/control_servos_mix_quadcopter_cross.c.o
 .debug_aranges
                0x0000000000000000       0x20 ./Debug_Linux/obj/control_servos_mix_quadcopter_cross.c.o
 .debug_str     0x0000000000000000      0x64a ./Debug_Linux/obj/control_servos_mix_quadcopter_cross.c.o
 .comment       0x0000000000000000       0x31 ./Debug_Linux/obj/control_servos_mix_quadcopter_cross.c.o
 .data          0x0000000000000000       0x20 ./Debug_Linux/obj/control_joystick_parsing.c.o
 .bss           0x0000000000000000        0x0 ./Debug_Linux/obj/control_joystick_parsing.c.o
 .data          0x0000000000000000        0x8 ./Debug_Linux/obj/control_servos_mix_quadcopter_diag.c.o
 .bss           0x0000000000000000        0x0 ./Debug_Linux/obj/control_servos_mix_quadcopter_diag.c.o
 .text          0x0000000000000000       0xa8 ./Debug_Linux/obj/hal_adxl345_driver.c.o
 .data          0x0000000000000000        0x8 ./Debug_Linux/obj/hal_adxl345_driver.c.o
 .bss           0x0000000000000000        0x0 ./Debug_Linux/obj/hal_adxl345_driver.c.o
 .debug_abbrev  0x0000000000000000      0x17d ./Debug_Linux/obj/hal_adxl345_driver.c.o
 .debug_info    0x0000000000000000      0xcd6 ./Debug_Linux/obj/hal_adxl345_driver.c.o
 .debug_line    0x0000000000000000      0x20a ./Debug_Linux/obj/hal_adxl345_driver.c.o
 .data.default_configuration
                0x0000000000000000        0x4 ./Debug_Linux/obj/hal_adxl345_driver.c.o
 .data.twi_opt.27979
                0x0000000000000000       0x10 ./Debug_Linux/obj/hal_adxl345_driver.c.o
 .data.data_configuration
                0x0000000000000000        0x4 ./Debug_Linux/obj/hal_adxl345_driver.c.o
 .bss.acc_outputs
                0x0000000000000000        0xc ./Debug_Linux/obj/hal_adxl345_driver.c.o
 .debug_frame   0x0000000000000000       0x4c ./Debug_Linux/obj/hal_adxl345_driver.c.o
 .debug_loc     0x0000000000000000       0x56 ./Debug_Linux/obj/hal_adxl345_driver.c.o
 .debug_pubnames
                0x0000000000000000       0x85 ./Debug_Linux/obj/hal_adxl345_driver.c.o
 .debug_aranges
                0x0000000000000000       0x20 ./Debug_Linux/obj/hal_adxl345_driver.c.o
 .debug_str     0x0000000000000000      0x467 ./Debug_Linux/obj/hal_adxl345_driver.c.o
 .comment       0x0000000000000000       0x31 ./Debug_Linux/obj/hal_adxl345_driver.c.o
 .data          0x0000000000000000       0x14 ./Debug_Linux/obj/hal_bmp085.c.o
 .bss           0x0000000000000000        0x0 ./Debug_Linux/obj/hal_bmp085.c.o
 .data          0x0000000000000000       0x20 ./Debug_Linux/obj/hal_time_keeper.c.o
 .bss           0x0000000000000000        0x0 ./Debug_Linux/obj/hal_time_keeper.c.o
 .data          0x0000000000000000       0x40 ./Debug_Linux/obj/hal_uart_int.c.o
 .bss           0x0000000000000000        0x0 ./Debug_Linux/obj/hal_uart_int.c.o
 .text          0x0000000000000000       0x6c ./Debug_Linux/obj/hal_radar_driver.c.o
 .data          0x0000000000000000        0x8 ./Debug_Linux/obj/hal_radar_driver.c.o
 .bss           0x0000000000000000        0x0 ./Debug_Linux/obj/hal_radar_driver.c.o
 .debug_abbrev  0x0000000000000000       0xac ./Debug_Linux/obj/hal_radar_driver.c.o
 .debug_info    0x0000000000000000      0x11d ./Debug_Linux/obj/hal_radar_driver.c.o
 .debug_line    0x0000000000000000      0x153 ./Debug_Linux/obj/hal_radar_driver.c.o
 .debug_frame   0x0000000000000000       0x4c ./Debug_Linux/obj/hal_radar_driver.c.o
 .debug_loc     0x0000000000000000       0x92 ./Debug_Linux/obj/hal_radar_driver.c.o
 .debug_pubnames
                0x0000000000000000       0x46 ./Debug_Linux/obj/hal_radar_driver.c.o
 .debug_aranges
                0x0000000000000000       0x20 ./Debug_Linux/obj/hal_radar_driver.c.o
 .debug_str     0x0000000000000000      0x189 ./Debug_Linux/obj/hal_radar_driver.c.o
 .comment       0x0000000000000000       0x31 ./Debug_Linux/obj/hal_radar_driver.c.o
 .text          0x0000000000000000       0xb0 ./Debug_Linux/obj/hal_radar_module_driver.c.o
 .data          0x0000000000000000        0xc ./Debug_Linux/obj/hal_radar_module_driver.c.o
 .bss           0x0000000000000000        0x0 ./Debug_Linux/obj/hal_radar_module_driver.c.o
 .debug_abbrev  0x0000000000000000      0x14e ./Debug_Linux/obj/hal_radar_module_driver.c.o
 .debug_info    0x0000000000000000      0xcb9 ./Debug_Linux/obj/hal_radar_module_driver.c.o
 .debug_line    0x0000000000000000      0x24f ./Debug_Linux/obj/hal_radar_module_driver.c.o
 .rodata.str1.4
                0x0000000000000000       0x24 ./Debug_Linux/obj/hal_radar_module_driver.c.o
 .data.twi_opt.27970
                0x0000000000000000       0x10 ./Debug_Linux/obj/hal_radar_module_driver.c.o
 .debug_frame   0x0000000000000000       0x68 ./Debug_Linux/obj/hal_radar_module_driver.c.o
 .debug_loc     0x0000000000000000       0x81 ./Debug_Linux/obj/hal_radar_module_driver.c.o
 .debug_pubnames
                0x0000000000000000       0x6f ./Debug_Linux/obj/hal_radar_module_driver.c.o
 .debug_aranges
                0x0000000000000000       0x20 ./Debug_Linux/obj/hal_radar_module_driver.c.o
 .debug_str     0x0000000000000000      0x485 ./Debug_Linux/obj/hal_radar_module_driver.c.o
 .comment       0x0000000000000000       0x31 ./Debug_Linux/obj/hal_radar_module_driver.c.o
 COMMON         0x0000000000000000       0x20 ./Debug_Linux/obj/hal_radar_module_driver.c.o
 .data          0x0000000000000000       0x30 ./Debug_Linux/obj/hal_led.c.o
 .bss           0x0000000000000000        0x0 ./Debug_Linux/obj/hal_led.c.o
 .data          0x0000000000000000       0x60 ./Debug_Linux/obj/hal_spi_buffered.c.o
 .bss           0x0000000000000000        0x0 ./Debug_Linux/obj/hal_spi_buffered.c.o
 .data          0x0000000000000000       0x2c ./Debug_Linux/obj/hal_adc_int.c.o
 .bss           0x0000000000000000        0x0 ./Debug_Linux/obj/hal_adc_int.c.o
 .data          0x0000000000000000       0x28 ./Debug_Linux/obj/hal_dac_dma.c.o
 .bss           0x0000000000000000        0x0 ./Debug_Linux/obj/hal_dac_dma.c.o
 .data.dac_value_audio
                0x0000000000000000        0x2 ./Debug_Linux/obj/hal_dac_dma.c.o
 .data          0x0000000000000000       0x2c ./Debug_Linux/obj/hal_ads1274.c.o
 .bss           0x0000000000000000        0x0 ./Debug_Linux/obj/hal_ads1274.c.o
 .data.waveform_opt
                0x0000000000000000        0x8 ./Debug_Linux/obj/hal_ads1274.c.o
 .data.tc       0x0000000000000000        0x4 ./Debug_Linux/obj/hal_ads1274.c.o
 .data          0x0000000000000000       0x10 ./Debug_Linux/obj/hal_analog_monitor.c.o
 .bss           0x0000000000000000        0x0 ./Debug_Linux/obj/hal_analog_monitor.c.o
 .rodata.CONV_FACTOR
                0x0000000000000000       0x28 ./Debug_Linux/obj/hal_analog_monitor.c.o
 .data          0x0000000000000000       0x10 ./Debug_Linux/obj/hal_i2c_driver_int.c.o
 .bss           0x0000000000000000        0x0 ./Debug_Linux/obj/hal_i2c_driver_int.c.o
 .data          0x0000000000000000       0x20 ./Debug_Linux/obj/hal_piezo_speaker.c.o
 .bss           0x0000000000000000        0x0 ./Debug_Linux/obj/hal_piezo_speaker.c.o
 .text          0x0000000000000000      0x258 ./Debug_Linux/obj/hal_i2cxl_sonar.c.o
 .data          0x0000000000000000       0x14 ./Debug_Linux/obj/hal_i2cxl_sonar.c.o
 .bss           0x0000000000000000        0x0 ./Debug_Linux/obj/hal_i2cxl_sonar.c.o
 .debug_abbrev  0x0000000000000000      0x2eb ./Debug_Linux/obj/hal_i2cxl_sonar.c.o
 .debug_info    0x0000000000000000     0x15ae ./Debug_Linux/obj/hal_i2cxl_sonar.c.o
 .debug_line    0x0000000000000000      0x586 ./Debug_Linux/obj/hal_i2cxl_sonar.c.o
 .rodata.I2CXL_DEFAULT_ADDRESS
                0x0000000000000000        0x1 ./Debug_Linux/obj/hal_i2cxl_sonar.c.o
 .data.twi_opt.28263
                0x0000000000000000       0x10 ./Debug_Linux/obj/hal_i2cxl_sonar.c.o
 .rodata.I2CXL_CHANGE_ADDRESS_COMMAND_1
                0x0000000000000000        0x1 ./Debug_Linux/obj/hal_i2cxl_sonar.c.o
 .rodata.I2CXL_CHANGE_ADDRESS_COMMAND_2
                0x0000000000000000        0x1 ./Debug_Linux/obj/hal_i2cxl_sonar.c.o
 .rodata.str1.4
                0x0000000000000000       0x28 ./Debug_Linux/obj/hal_i2cxl_sonar.c.o
 .bss.m_mavlink_status.1827
                0x0000000000000000       0x40 ./Debug_Linux/obj/hal_i2cxl_sonar.c.o
 .rodata.I2CXL_RANGE_COMMAND
                0x0000000000000000        0x1 ./Debug_Linux/obj/hal_i2cxl_sonar.c.o
 .debug_frame   0x0000000000000000       0xb8 ./Debug_Linux/obj/hal_i2cxl_sonar.c.o
 .debug_loc     0x0000000000000000      0x1d7 ./Debug_Linux/obj/hal_i2cxl_sonar.c.o
 .debug_pubnames
                0x0000000000000000      0x103 ./Debug_Linux/obj/hal_i2cxl_sonar.c.o
 .debug_aranges
                0x0000000000000000       0x20 ./Debug_Linux/obj/hal_i2cxl_sonar.c.o
 .debug_ranges  0x0000000000000000      0x1c0 ./Debug_Linux/obj/hal_i2cxl_sonar.c.o
 .debug_str     0x0000000000000000      0x955 ./Debug_Linux/obj/hal_i2cxl_sonar.c.o
 .comment       0x0000000000000000       0x31 ./Debug_Linux/obj/hal_i2cxl_sonar.c.o
 .text          0x0000000000000000      0x140 ./Debug_Linux/obj/hal_airspeed_analog.c.o
 .data          0x0000000000000000       0x10 ./Debug_Linux/obj/hal_airspeed_analog.c.o
 .bss           0x0000000000000000        0x0 ./Debug_Linux/obj/hal_airspeed_analog.c.o
 .debug_abbrev  0x0000000000000000      0x1e3 ./Debug_Linux/obj/hal_airspeed_analog.c.o
 .debug_info    0x0000000000000000      0x46d ./Debug_Linux/obj/hal_airspeed_analog.c.o
 .debug_line    0x0000000000000000      0x22c ./Debug_Linux/obj/hal_airspeed_analog.c.o
 .rodata.PITOT_GAIN_DEFAULT
                0x0000000000000000        0x4 ./Debug_Linux/obj/hal_airspeed_analog.c.o
 .rodata.VOLTS_TO_PASCAL
                0x0000000000000000        0x4 ./Debug_Linux/obj/hal_airspeed_analog.c.o
 .debug_frame   0x0000000000000000       0x8c ./Debug_Linux/obj/hal_airspeed_analog.c.o
 .debug_loc     0x0000000000000000      0x1b1 ./Debug_Linux/obj/hal_airspeed_analog.c.o
 .debug_pubnames
                0x0000000000000000       0xb0 ./Debug_Linux/obj/hal_airspeed_analog.c.o
 .debug_aranges
                0x0000000000000000       0x20 ./Debug_Linux/obj/hal_airspeed_analog.c.o
 .debug_ranges  0x0000000000000000       0x78 ./Debug_Linux/obj/hal_airspeed_analog.c.o
 .debug_str     0x0000000000000000      0x368 ./Debug_Linux/obj/hal_airspeed_analog.c.o
 .comment       0x0000000000000000       0x31 ./Debug_Linux/obj/hal_airspeed_analog.c.o
 .data          0x0000000000000000       0x1c ./Debug_Linux/obj/hal_gps_ublox.c.o
 .bss           0x0000000000000000        0x0 ./Debug_Linux/obj/hal_gps_ublox.c.o
 .data          0x0000000000000000        0xc ./Debug_Linux/obj/hal_xbee.c.o
 .bss           0x0000000000000000        0x0 ./Debug_Linux/obj/hal_xbee.c.o
 .data          0x0000000000000000        0x8 ./Debug_Linux/obj/hal_hmc5883l.c.o
 .bss           0x0000000000000000        0x0 ./Debug_Linux/obj/hal_hmc5883l.c.o
 .text          0x0000000000000000       0x78 ./Debug_Linux/obj/hal_itg3200.c.o
 .data          0x0000000000000000        0x8 ./Debug_Linux/obj/hal_itg3200.c.o
 .bss           0x0000000000000000        0x0 ./Debug_Linux/obj/hal_itg3200.c.o
 .debug_abbrev  0x0000000000000000      0x15a ./Debug_Linux/obj/hal_itg3200.c.o
 .debug_info    0x0000000000000000      0xccd ./Debug_Linux/obj/hal_itg3200.c.o
 .debug_line    0x0000000000000000      0x1e4 ./Debug_Linux/obj/hal_itg3200.c.o
 .data.twi_opt.27982
                0x0000000000000000       0x10 ./Debug_Linux/obj/hal_itg3200.c.o
 .bss.gyro_outputs
                0x0000000000000000        0x8 ./Debug_Linux/obj/hal_itg3200.c.o
 .data.read_preamble
                0x0000000000000000        0x1 ./Debug_Linux/obj/hal_itg3200.c.o
 .debug_frame   0x0000000000000000       0x4c ./Debug_Linux/obj/hal_itg3200.c.o
 .debug_loc     0x0000000000000000       0x56 ./Debug_Linux/obj/hal_itg3200.c.o
 .debug_pubnames
                0x0000000000000000       0x6e ./Debug_Linux/obj/hal_itg3200.c.o
 .debug_aranges
                0x0000000000000000       0x20 ./Debug_Linux/obj/hal_itg3200.c.o
 .debug_str     0x0000000000000000      0x45f ./Debug_Linux/obj/hal_itg3200.c.o
 .comment       0x0000000000000000       0x31 ./Debug_Linux/obj/hal_itg3200.c.o
 .data          0x0000000000000000        0xc ./Debug_Linux/obj/hal_lsm330dlc.c.o
 .bss           0x0000000000000000        0x0 ./Debug_Linux/obj/hal_lsm330dlc.c.o
 .data          0x0000000000000000       0x20 ./Debug_Linux/obj/hal_spektrum_satellite.c.o
 .bss           0x0000000000000000        0x0 ./Debug_Linux/obj/hal_spektrum_satellite.c.o
 .data          0x0000000000000000       0x10 ./Debug_Linux/obj/hal_servos.c.o
 .bss           0x0000000000000000        0x0 ./Debug_Linux/obj/hal_servos.c.o
 .data          0x0000000000000000        0xc ./Debug_Linux/obj/hal_pwm_servos.c.o
 .bss           0x0000000000000000        0x0 ./Debug_Linux/obj/hal_pwm_servos.c.o
 .rodata.servo_center_pulse_us
                0x0000000000000000        0x2 ./Debug_Linux/obj/hal_pwm_servos.c.o
 .rodata.servo_magnitude
                0x0000000000000000        0x2 ./Debug_Linux/obj/hal_pwm_servos.c.o
 .rodata.servo_timer_freq
                0x0000000000000000        0x4 ./Debug_Linux/obj/hal_pwm_servos.c.o
 COMMON         0x0000000000000000        0x1 ./Debug_Linux/obj/hal_pwm_servos.c.o
 .data          0x0000000000000000       0x50 ./Debug_Linux/obj/hal_sd_spi.c.o
 .bss           0x0000000000000000        0x0 ./Debug_Linux/obj/hal_sd_spi.c.o
 .data          0x0000000000000000       0x18 ./Debug_Linux/obj/hal_usb_int.c.o
 .bss           0x0000000000000000        0x0 ./Debug_Linux/obj/hal_usb_int.c.o
 .data          0x0000000000000000       0x2c ./Debug_Linux/obj/runtime_scheduler.c.o
 .bss           0x0000000000000000        0x0 ./Debug_Linux/obj/runtime_scheduler.c.o
 .data          0x0000000000000000       0x14 ./Debug_Linux/obj/sensing_imu.c.o
 .bss           0x0000000000000000        0x0 ./Debug_Linux/obj/sensing_imu.c.o
 .data          0x0000000000000000       0x1c ./Debug_Linux/obj/sensing_position_estimation.c.o
 .bss           0x0000000000000000        0x0 ./Debug_Linux/obj/sensing_position_estimation.c.o
 .data          0x0000000000000000        0x8 ./Debug_Linux/obj/sensing_qfilter.c.o
 .bss           0x0000000000000000        0x0 ./Debug_Linux/obj/sensing_qfilter.c.o
 .data          0x0000000000000000       0x38 ./Debug_Linux/obj/sensing_simulation.c.o
 .bss           0x0000000000000000        0x0 ./Debug_Linux/obj/sensing_simulation.c.o
 .data          0x0000000000000000        0xc ./Debug_Linux/obj/sensing_ahrs.c.o
 .bss           0x0000000000000000        0x0 ./Debug_Linux/obj/sensing_ahrs.c.o
 .text          0x0000000000000000      0x8a0 ./Debug_Linux/obj/util_linear_algebra.c.o
 .data          0x0000000000000000        0xc ./Debug_Linux/obj/util_linear_algebra.c.o
 .bss           0x0000000000000000        0x0 ./Debug_Linux/obj/util_linear_algebra.c.o
 .debug_abbrev  0x0000000000000000      0x136 ./Debug_Linux/obj/util_linear_algebra.c.o
 .debug_info    0x0000000000000000      0x835 ./Debug_Linux/obj/util_linear_algebra.c.o
 .debug_line    0x0000000000000000      0x5bc ./Debug_Linux/obj/util_linear_algebra.c.o
 .rodata.str1.4
                0x0000000000000000       0x58 ./Debug_Linux/obj/util_linear_algebra.c.o
 .debug_frame   0x0000000000000000       0xa8 ./Debug_Linux/obj/util_linear_algebra.c.o
 .debug_loc     0x0000000000000000       0xbd ./Debug_Linux/obj/util_linear_algebra.c.o
 .debug_pubnames
                0x0000000000000000       0x2d ./Debug_Linux/obj/util_linear_algebra.c.o
 .debug_aranges
                0x0000000000000000       0x20 ./Debug_Linux/obj/util_linear_algebra.c.o
 .debug_str     0x0000000000000000      0x221 ./Debug_Linux/obj/util_linear_algebra.c.o
 .comment       0x0000000000000000       0x31 ./Debug_Linux/obj/util_linear_algebra.c.o
 .data          0x0000000000000000       0x14 ./Debug_Linux/obj/util_coord_conventions.c.o
 .bss           0x0000000000000000        0x0 ./Debug_Linux/obj/util_coord_conventions.c.o
 .text          0x0000000000000000        0x0 ./Debug_Linux/obj/util_sinus.c.o
 .data          0x0000000000000000        0x0 ./Debug_Linux/obj/util_sinus.c.o
 .bss           0x0000000000000000        0x0 ./Debug_Linux/obj/util_sinus.c.o
 .debug_abbrev  0x0000000000000000       0x70 ./Debug_Linux/obj/util_sinus.c.o
 .debug_info    0x0000000000000000       0xc3 ./Debug_Linux/obj/util_sinus.c.o
 .debug_line    0x0000000000000000      0x105 ./Debug_Linux/obj/util_sinus.c.o
 .data.sin_table
                0x0000000000000000       0x78 ./Debug_Linux/obj/util_sinus.c.o
 .debug_pubnames
                0x0000000000000000       0x20 ./Debug_Linux/obj/util_sinus.c.o
 .debug_str     0x0000000000000000      0x152 ./Debug_Linux/obj/util_sinus.c.o
 .comment       0x0000000000000000       0x31 ./Debug_Linux/obj/util_sinus.c.o
 .data          0x0000000000000000       0x48 ./Debug_Linux/obj/util_print_util.c.o
 .bss           0x0000000000000000        0x0 ./Debug_Linux/obj/util_print_util.c.o
 .data          0x0000000000000000       0x28 ./Debug_Linux/obj/util_buffer.c.o
 .bss           0x0000000000000000        0x0 ./Debug_Linux/obj/util_buffer.c.o
 .text          0x0000000000000000      0x30c ./Debug_Linux/obj/util_kalman.c.o
 .data          0x0000000000000000        0x8 ./Debug_Linux/obj/util_kalman.c.o
 .bss           0x0000000000000000        0x0 ./Debug_Linux/obj/util_kalman.c.o
 .debug_abbrev  0x0000000000000000      0x1a9 ./Debug_Linux/obj/util_kalman.c.o
 .debug_info    0x0000000000000000      0xb5a ./Debug_Linux/obj/util_kalman.c.o
 .debug_line    0x0000000000000000      0x3b6 ./Debug_Linux/obj/util_kalman.c.o
 .debug_frame   0x0000000000000000       0x7c ./Debug_Linux/obj/util_kalman.c.o
 .debug_loc     0x0000000000000000       0xa4 ./Debug_Linux/obj/util_kalman.c.o
 .debug_pubnames
                0x0000000000000000       0x40 ./Debug_Linux/obj/util_kalman.c.o
 .debug_aranges
                0x0000000000000000       0x20 ./Debug_Linux/obj/util_kalman.c.o
 .debug_ranges  0x0000000000000000      0x4a8 ./Debug_Linux/obj/util_kalman.c.o
 .debug_str     0x0000000000000000      0x303 ./Debug_Linux/obj/util_kalman.c.o
 .comment       0x0000000000000000       0x31 ./Debug_Linux/obj/util_kalman.c.o
 .data          0x0000000000000000       0x1c ./Debug_Linux/obj/util_quick_trig.c.o
 .bss           0x0000000000000000        0x0 ./Debug_Linux/obj/util_quick_trig.c.o
 .rodata.atan_x_step
                0x0000000000000000        0x4 ./Debug_Linux/obj/util_quick_trig.c.o
 .rodata.tan_x_step
                0x0000000000000000        0x4 ./Debug_Linux/obj/util_quick_trig.c.o
 .rodata.atan_x_max
                0x0000000000000000        0x4 ./Debug_Linux/obj/util_quick_trig.c.o
 .rodata.sin_x_step
                0x0000000000000000        0x4 ./Debug_Linux/obj/util_quick_trig.c.o
 .rodata.atan_x_min
                0x0000000000000000        0x4 ./Debug_Linux/obj/util_quick_trig.c.o
 .rodata.acos_x_min
                0x0000000000000000        0x4 ./Debug_Linux/obj/util_quick_trig.c.o
 .rodata.acos_x_max
                0x0000000000000000        0x4 ./Debug_Linux/obj/util_quick_trig.c.o
 .rodata.acos_x_step
                0x0000000000000000        0x4 ./Debug_Linux/obj/util_quick_trig.c.o
 .rodata.sin_x_min
                0x0000000000000000        0x4 ./Debug_Linux/obj/util_quick_trig.c.o
 .rodata.sin_x_max
                0x0000000000000000        0x4 ./Debug_Linux/obj/util_quick_trig.c.o
 .rodata.tan_x_max
                0x0000000000000000        0x4 ./Debug_Linux/obj/util_quick_trig.c.o
 .rodata.tan_x_min
                0x0000000000000000        0x4 ./Debug_Linux/obj/util_quick_trig.c.o
 .text          0x0000000000000000      0x11c ./Debug_Linux/obj/util_generator.c.o
 .data          0x0000000000000000       0x10 ./Debug_Linux/obj/util_generator.c.o
 .bss           0x0000000000000000        0x0 ./Debug_Linux/obj/util_generator.c.o
 .debug_abbrev  0x0000000000000000       0xf5 ./Debug_Linux/obj/util_generator.c.o
 .debug_info    0x0000000000000000      0x20c ./Debug_Linux/obj/util_generator.c.o
 .debug_line    0x0000000000000000      0x1d0 ./Debug_Linux/obj/util_generator.c.o
 .bss.dac_function_buffer
                0x0000000000000000      0x400 ./Debug_Linux/obj/util_generator.c.o
 .debug_frame   0x0000000000000000       0x8c ./Debug_Linux/obj/util_generator.c.o
 .debug_loc     0x0000000000000000       0xd2 ./Debug_Linux/obj/util_generator.c.o
 .debug_pubnames
                0x0000000000000000       0x9b ./Debug_Linux/obj/util_generator.c.o
 .debug_aranges
                0x0000000000000000       0x20 ./Debug_Linux/obj/util_generator.c.o
 .debug_str     0x0000000000000000      0x22d ./Debug_Linux/obj/util_generator.c.o
 .comment       0x0000000000000000       0x31 ./Debug_Linux/obj/util_generator.c.o
 .text          0x0000000000000000      0x420 ./Debug_Linux/obj/util_matrixlib_float.c.o
 .data          0x0000000000000000       0x38 ./Debug_Linux/obj/util_matrixlib_float.c.o
 .bss           0x0000000000000000        0x0 ./Debug_Linux/obj/util_matrixlib_float.c.o
 .debug_abbrev  0x0000000000000000      0x109 ./Debug_Linux/obj/util_matrixlib_float.c.o
 .debug_info    0x0000000000000000      0x6f7 ./Debug_Linux/obj/util_matrixlib_float.c.o
 .debug_line    0x0000000000000000      0x3e0 ./Debug_Linux/obj/util_matrixlib_float.c.o
 .debug_frame   0x0000000000000000      0x228 ./Debug_Linux/obj/util_matrixlib_float.c.o
 .debug_loc     0x0000000000000000      0x8f8 ./Debug_Linux/obj/util_matrixlib_float.c.o
 .debug_pubnames
                0x0000000000000000       0xed ./Debug_Linux/obj/util_matrixlib_float.c.o
 .debug_aranges
                0x0000000000000000       0x20 ./Debug_Linux/obj/util_matrixlib_float.c.o
 .debug_str     0x0000000000000000      0x1c9 ./Debug_Linux/obj/util_matrixlib_float.c.o
 .comment       0x0000000000000000       0x31 ./Debug_Linux/obj/util_matrixlib_float.c.o
 .data          0x0000000000000000       0x2c ./Debug_Linux/obj/fat_fs_diskio.c.o
 .bss           0x0000000000000000        0x0 ./Debug_Linux/obj/fat_fs_diskio.c.o
 .data          0x0000000000000000       0x9c ./Debug_Linux/obj/fat_fs_ff.c.o
 .bss           0x0000000000000000        0x0 ./Debug_Linux/obj/fat_fs_ff.c.o
 .data          0x0000000000000000        0x8 ./Debug_Linux/obj/option_cc932.c.o
 .bss           0x0000000000000000        0x0 ./Debug_Linux/obj/option_cc932.c.o
 .data          0x0000000000000000        0x8 ./Debug_Linux/obj/option_syscall.c.o
 .bss           0x0000000000000000        0x0 ./Debug_Linux/obj/option_syscall.c.o
 .text          0x0000000000000000        0x0 ./Debug_Linux/obj/option_unicode.c.o
 .data          0x0000000000000000        0x0 ./Debug_Linux/obj/option_unicode.c.o
 .bss           0x0000000000000000        0x0 ./Debug_Linux/obj/option_unicode.c.o
 .debug_abbrev  0x0000000000000000        0x1 ./Debug_Linux/obj/option_unicode.c.o
 .debug_info    0x0000000000000000        0x0 ./Debug_Linux/obj/option_unicode.c.o
 .debug_line    0x0000000000000000        0x0 ./Debug_Linux/obj/option_unicode.c.o
 .comment       0x0000000000000000       0x31 ./Debug_Linux/obj/option_unicode.c.o
 .data          0x0000000000000000        0x4 ./Debug_Linux/obj/user_board_init.c.o
 .bss           0x0000000000000000        0x0 ./Debug_Linux/obj/user_board_init.c.o
 .data          0x0000000000000000        0x4 ./Debug_Linux/obj/stdio_read.c.o
 .bss           0x0000000000000000        0x0 ./Debug_Linux/obj/stdio_read.c.o
 .data          0x0000000000000000        0x4 ./Debug_Linux/obj/stdio_write.c.o
 .bss           0x0000000000000000        0x0 ./Debug_Linux/obj/stdio_write.c.o
 .text          0x0000000000000000      0x2bc ./Debug_Linux/obj/pm_power_clocks_lib.c.o
 .data          0x0000000000000000       0x14 ./Debug_Linux/obj/pm_power_clocks_lib.c.o
 .bss           0x0000000000000000        0x0 ./Debug_Linux/obj/pm_power_clocks_lib.c.o
 .debug_abbrev  0x0000000000000000      0x18b ./Debug_Linux/obj/pm_power_clocks_lib.c.o
 .debug_info    0x0000000000000000      0x57c ./Debug_Linux/obj/pm_power_clocks_lib.c.o
 .debug_line    0x0000000000000000      0x324 ./Debug_Linux/obj/pm_power_clocks_lib.c.o
 .rodata.opt.14577
                0x0000000000000000       0x14 ./Debug_Linux/obj/pm_power_clocks_lib.c.o
 .debug_frame   0x0000000000000000       0xc8 ./Debug_Linux/obj/pm_power_clocks_lib.c.o
 .debug_loc     0x0000000000000000      0x393 ./Debug_Linux/obj/pm_power_clocks_lib.c.o
 .debug_pubnames
                0x0000000000000000       0x82 ./Debug_Linux/obj/pm_power_clocks_lib.c.o
 .debug_aranges
                0x0000000000000000       0x20 ./Debug_Linux/obj/pm_power_clocks_lib.c.o
 .debug_ranges  0x0000000000000000       0x50 ./Debug_Linux/obj/pm_power_clocks_lib.c.o
 .debug_str     0x0000000000000000      0x660 ./Debug_Linux/obj/pm_power_clocks_lib.c.o
 .comment       0x0000000000000000       0x31 ./Debug_Linux/obj/pm_power_clocks_lib.c.o
 .text          0x0000000000000000      0x1b6 ./Debug_Linux/obj/pm_pm_uc3c.c.o
 .data          0x0000000000000000       0x1c ./Debug_Linux/obj/pm_pm_uc3c.c.o
 .bss           0x0000000000000000        0x0 ./Debug_Linux/obj/pm_pm_uc3c.c.o
 .debug_abbrev  0x0000000000000000      0x1cc ./Debug_Linux/obj/pm_pm_uc3c.c.o
 .debug_info    0x0000000000000000     0x1026 ./Debug_Linux/obj/pm_pm_uc3c.c.o
 .debug_line    0x0000000000000000      0x348 ./Debug_Linux/obj/pm_pm_uc3c.c.o
 .debug_frame   0x0000000000000000       0xd4 ./Debug_Linux/obj/pm_pm_uc3c.c.o
 .debug_loc     0x0000000000000000      0x240 ./Debug_Linux/obj/pm_pm_uc3c.c.o
 .debug_pubnames
                0x0000000000000000       0xc3 ./Debug_Linux/obj/pm_pm_uc3c.c.o
 .debug_aranges
                0x0000000000000000       0x20 ./Debug_Linux/obj/pm_pm_uc3c.c.o
 .debug_str     0x0000000000000000      0x7d9 ./Debug_Linux/obj/pm_pm_uc3c.c.o
 .comment       0x0000000000000000       0x31 ./Debug_Linux/obj/pm_pm_uc3c.c.o
 .data          0x0000000000000000       0x34 ./Debug_Linux/obj/adcifa_adcifa.c.o
 .bss           0x0000000000000000        0x0 ./Debug_Linux/obj/adcifa_adcifa.c.o
 .data          0x0000000000000000       0x60 ./Debug_Linux/obj/usart_usart.c.o
 .bss           0x0000000000000000        0x0 ./Debug_Linux/obj/usart_usart.c.o
 .data          0x0000000000000000       0x30 ./Debug_Linux/obj/twim_twim.c.o
 .bss           0x0000000000000000        0x0 ./Debug_Linux/obj/twim_twim.c.o
 .data          0x0000000000000000       0x10 ./Debug_Linux/obj/intc_intc.c.o
 .bss           0x0000000000000000        0x0 ./Debug_Linux/obj/intc_intc.c.o
 .text          0x0000000000000000        0x0 ./Debug_Linux/obj/intc_exception.S.o
 .data          0x0000000000000000        0x0 ./Debug_Linux/obj/intc_exception.S.o
 .bss           0x0000000000000000        0x0 ./Debug_Linux/obj/intc_exception.S.o
 .data          0x0000000000000000       0x4c ./Debug_Linux/obj/ast_ast.c.o
 .bss           0x0000000000000000        0x0 ./Debug_Linux/obj/ast_ast.c.o
 .data          0x0000000000000000       0x4c ./Debug_Linux/obj/pevc_pevc.c.o
 .bss           0x0000000000000000        0x0 ./Debug_Linux/obj/pevc_pevc.c.o
 .text          0x0000000000000000      0x462 ./Debug_Linux/obj/tc_tc.c.o
 .data          0x0000000000000000       0x48 ./Debug_Linux/obj/tc_tc.c.o
 .bss           0x0000000000000000        0x0 ./Debug_Linux/obj/tc_tc.c.o
 .debug_abbrev  0x0000000000000000      0x24e ./Debug_Linux/obj/tc_tc.c.o
 .debug_info    0x0000000000000000     0x118d ./Debug_Linux/obj/tc_tc.c.o
 .debug_line    0x0000000000000000      0x4cb ./Debug_Linux/obj/tc_tc.c.o
 .debug_frame   0x0000000000000000      0x220 ./Debug_Linux/obj/tc_tc.c.o
 .debug_loc     0x0000000000000000      0x6d4 ./Debug_Linux/obj/tc_tc.c.o
 .debug_pubnames
                0x0000000000000000      0x164 ./Debug_Linux/obj/tc_tc.c.o
 .debug_aranges
                0x0000000000000000       0x20 ./Debug_Linux/obj/tc_tc.c.o
 .debug_str     0x0000000000000000      0x50e ./Debug_Linux/obj/tc_tc.c.o
 .comment       0x0000000000000000       0x31 ./Debug_Linux/obj/tc_tc.c.o
 .data          0x0000000000000000       0x48 ./Debug_Linux/obj/spi_spi.c.o
 .bss           0x0000000000000000        0x0 ./Debug_Linux/obj/spi_spi.c.o
 .data          0x0000000000000000       0x50 ./Debug_Linux/obj/pdca_pdca.c.o
 .bss           0x0000000000000000        0x0 ./Debug_Linux/obj/pdca_pdca.c.o
 .data          0x0000000000000000       0x38 ./Debug_Linux/obj/eic_eic.c.o
 .bss           0x0000000000000000        0x0 ./Debug_Linux/obj/eic_eic.c.o
 .data          0x0000000000000000       0x1c ./Debug_Linux/obj/dacifb_dacifb.c.o
 .bss           0x0000000000000000        0x0 ./Debug_Linux/obj/dacifb_dacifb.c.o
 .text          0x0000000000000000      0x8ee ./Debug_Linux/obj/pwm_pwm4.c.o
 .data          0x0000000000000000       0x6c ./Debug_Linux/obj/pwm_pwm4.c.o
 .bss           0x0000000000000000        0x0 ./Debug_Linux/obj/pwm_pwm4.c.o
 .debug_abbrev  0x0000000000000000      0x2b8 ./Debug_Linux/obj/pwm_pwm4.c.o
 .debug_info    0x0000000000000000     0x2abf ./Debug_Linux/obj/pwm_pwm4.c.o
 .debug_line    0x0000000000000000      0x8a4 ./Debug_Linux/obj/pwm_pwm4.c.o
 .debug_frame   0x0000000000000000      0x320 ./Debug_Linux/obj/pwm_pwm4.c.o
 .debug_loc     0x0000000000000000      0x860 ./Debug_Linux/obj/pwm_pwm4.c.o
 .debug_pubnames
                0x0000000000000000      0x34b ./Debug_Linux/obj/pwm_pwm4.c.o
 .debug_aranges
                0x0000000000000000       0x20 ./Debug_Linux/obj/pwm_pwm4.c.o
 .debug_str     0x0000000000000000      0xf07 ./Debug_Linux/obj/pwm_pwm4.c.o
 .comment       0x0000000000000000       0x31 ./Debug_Linux/obj/pwm_pwm4.c.o
 .data          0x0000000000000000      0x104 ./Debug_Linux/obj/flashc_flashc.c.o
 .bss           0x0000000000000000        0x0 ./Debug_Linux/obj/flashc_flashc.c.o
 .data          0x0000000000000000       0x84 ./Debug_Linux/obj/gpio_gpio.c.o
 .bss           0x0000000000000000        0x0 ./Debug_Linux/obj/gpio_gpio.c.o
 .data          0x0000000000000000       0xa4 ./Debug_Linux/obj/scif_scif_uc3c.c.o
 .bss           0x0000000000000000        0x0 ./Debug_Linux/obj/scif_scif_uc3c.c.o
 .data          0x0000000000000000       0x60 ./Debug_Linux/obj/usbc_usbc_device.c.o
 .bss           0x0000000000000000        0x0 ./Debug_Linux/obj/usbc_usbc_device.c.o
 .text          0x0000000000000000        0x0 ./Debug_Linux/obj/startup_startup_uc3.S.o
 .data          0x0000000000000000        0x0 ./Debug_Linux/obj/startup_startup_uc3.S.o
 .bss           0x0000000000000000        0x0 ./Debug_Linux/obj/startup_startup_uc3.S.o
 .reset         0x0000000000000000        0x8 ./Debug_Linux/obj/startup_startup_uc3.S.o
 .text          0x0000000000000000        0x0 ./Debug_Linux/obj/startup_trampoline_uc3.S.o
 .data          0x0000000000000000        0x0 ./Debug_Linux/obj/startup_trampoline_uc3.S.o
 .bss           0x0000000000000000        0x0 ./Debug_Linux/obj/startup_trampoline_uc3.S.o
 .data          0x0000000000000000        0x8 ./Debug_Linux/obj/delay_delay.c.o
 .bss           0x0000000000000000        0x0 ./Debug_Linux/obj/delay_delay.c.o
 .data          0x0000000000000000       0x18 ./Debug_Linux/obj/stdio_usb_stdio_usb.c.o
 .bss           0x0000000000000000        0x0 ./Debug_Linux/obj/stdio_usb_stdio_usb.c.o
 .text          0x0000000000000000        0x0 ./Debug_Linux/obj/uc3_sleepmgr.c.o
 .data          0x0000000000000000        0x0 ./Debug_Linux/obj/uc3_sleepmgr.c.o
 .bss           0x0000000000000000        0x0 ./Debug_Linux/obj/uc3_sleepmgr.c.o
 .data          0x0000000000000000        0xc ./Debug_Linux/obj/uc3_spi_spi_master.c.o
 .bss           0x0000000000000000        0x0 ./Debug_Linux/obj/uc3_spi_spi_master.c.o
 .data          0x0000000000000000        0xc ./Debug_Linux/obj/uc3c_pll.c.o
 .bss           0x0000000000000000        0x0 ./Debug_Linux/obj/uc3c_pll.c.o
 .data          0x0000000000000000       0x20 ./Debug_Linux/obj/uc3c_osc.c.o
 .bss           0x0000000000000000        0x0 ./Debug_Linux/obj/uc3c_osc.c.o
 .data          0x0000000000000000       0x1c ./Debug_Linux/obj/uc3c_sysclk.c.o
 .bss           0x0000000000000000        0x0 ./Debug_Linux/obj/uc3c_sysclk.c.o
 .data          0x0000000000000000       0x1c ./Debug_Linux/obj/udc_udc.c.o
 .bss           0x0000000000000000        0x0 ./Debug_Linux/obj/udc_udc.c.o
 .data          0x0000000000000000       0x60 ./Debug_Linux/obj/device_udi_cdc.c.o
 .bss           0x0000000000000000        0x0 ./Debug_Linux/obj/device_udi_cdc.c.o
 .text          0x0000000000000000        0x0 ./Debug_Linux/obj/device_udi_cdc_desc.c.o
 .data          0x0000000000000000        0x0 ./Debug_Linux/obj/device_udi_cdc_desc.c.o
 .bss           0x0000000000000000        0x0 ./Debug_Linux/obj/device_udi_cdc_desc.c.o
 .text          0x0000000000000000        0x0 /usr/local/avr32-gnu-toolchain-linux_x86_64/bin/../lib/gcc/avr32/4.4.7/../../../../avr32/lib/ucr3fp/libm.a(lib_a-s_cos.o)
 .data          0x0000000000000000        0x0 /usr/local/avr32-gnu-toolchain-linux_x86_64/bin/../lib/gcc/avr32/4.4.7/../../../../avr32/lib/ucr3fp/libm.a(lib_a-s_cos.o)
 .bss           0x0000000000000000        0x0 /usr/local/avr32-gnu-toolchain-linux_x86_64/bin/../lib/gcc/avr32/4.4.7/../../../../avr32/lib/ucr3fp/libm.a(lib_a-s_cos.o)
 .text          0x0000000000000000        0x0 /usr/local/avr32-gnu-toolchain-linux_x86_64/bin/../lib/gcc/avr32/4.4.7/../../../../avr32/lib/ucr3fp/libm.a(lib_a-s_floor.o)
 .data          0x0000000000000000        0x0 /usr/local/avr32-gnu-toolchain-linux_x86_64/bin/../lib/gcc/avr32/4.4.7/../../../../avr32/lib/ucr3fp/libm.a(lib_a-s_floor.o)
 .bss           0x0000000000000000        0x0 /usr/local/avr32-gnu-toolchain-linux_x86_64/bin/../lib/gcc/avr32/4.4.7/../../../../avr32/lib/ucr3fp/libm.a(lib_a-s_floor.o)
 .text          0x0000000000000000        0x0 /usr/local/avr32-gnu-toolchain-linux_x86_64/bin/../lib/gcc/avr32/4.4.7/../../../../avr32/lib/ucr3fp/libm.a(lib_a-s_sin.o)
 .data          0x0000000000000000        0x0 /usr/local/avr32-gnu-toolchain-linux_x86_64/bin/../lib/gcc/avr32/4.4.7/../../../../avr32/lib/ucr3fp/libm.a(lib_a-s_sin.o)
 .bss           0x0000000000000000        0x0 /usr/local/avr32-gnu-toolchain-linux_x86_64/bin/../lib/gcc/avr32/4.4.7/../../../../avr32/lib/ucr3fp/libm.a(lib_a-s_sin.o)
 .text          0x0000000000000000        0x0 /usr/local/avr32-gnu-toolchain-linux_x86_64/bin/../lib/gcc/avr32/4.4.7/../../../../avr32/lib/ucr3fp/libm.a(lib_a-w_asin.o)
 .data          0x0000000000000000        0x0 /usr/local/avr32-gnu-toolchain-linux_x86_64/bin/../lib/gcc/avr32/4.4.7/../../../../avr32/lib/ucr3fp/libm.a(lib_a-w_asin.o)
 .bss           0x0000000000000000        0x0 /usr/local/avr32-gnu-toolchain-linux_x86_64/bin/../lib/gcc/avr32/4.4.7/../../../../avr32/lib/ucr3fp/libm.a(lib_a-w_asin.o)
 .text          0x0000000000000000        0x0 /usr/local/avr32-gnu-toolchain-linux_x86_64/bin/../lib/gcc/avr32/4.4.7/../../../../avr32/lib/ucr3fp/libm.a(lib_a-w_atan2.o)
 .data          0x0000000000000000        0x0 /usr/local/avr32-gnu-toolchain-linux_x86_64/bin/../lib/gcc/avr32/4.4.7/../../../../avr32/lib/ucr3fp/libm.a(lib_a-w_atan2.o)
 .bss           0x0000000000000000        0x0 /usr/local/avr32-gnu-toolchain-linux_x86_64/bin/../lib/gcc/avr32/4.4.7/../../../../avr32/lib/ucr3fp/libm.a(lib_a-w_atan2.o)
 .text          0x0000000000000000        0x0 /usr/local/avr32-gnu-toolchain-linux_x86_64/bin/../lib/gcc/avr32/4.4.7/../../../../avr32/lib/ucr3fp/libm.a(lib_a-w_fmod.o)
 .data          0x0000000000000000        0x0 /usr/local/avr32-gnu-toolchain-linux_x86_64/bin/../lib/gcc/avr32/4.4.7/../../../../avr32/lib/ucr3fp/libm.a(lib_a-w_fmod.o)
 .bss           0x0000000000000000        0x0 /usr/local/avr32-gnu-toolchain-linux_x86_64/bin/../lib/gcc/avr32/4.4.7/../../../../avr32/lib/ucr3fp/libm.a(lib_a-w_fmod.o)
 .text          0x0000000000000000        0x0 /usr/local/avr32-gnu-toolchain-linux_x86_64/bin/../lib/gcc/avr32/4.4.7/../../../../avr32/lib/ucr3fp/libm.a(lib_a-w_pow.o)
 .data          0x0000000000000000        0x0 /usr/local/avr32-gnu-toolchain-linux_x86_64/bin/../lib/gcc/avr32/4.4.7/../../../../avr32/lib/ucr3fp/libm.a(lib_a-w_pow.o)
 .bss           0x0000000000000000        0x0 /usr/local/avr32-gnu-toolchain-linux_x86_64/bin/../lib/gcc/avr32/4.4.7/../../../../avr32/lib/ucr3fp/libm.a(lib_a-w_pow.o)
 .text          0x0000000000000000        0x0 /usr/local/avr32-gnu-toolchain-linux_x86_64/bin/../lib/gcc/avr32/4.4.7/../../../../avr32/lib/ucr3fp/libm.a(lib_a-w_sqrt.o)
 .data          0x0000000000000000        0x0 /usr/local/avr32-gnu-toolchain-linux_x86_64/bin/../lib/gcc/avr32/4.4.7/../../../../avr32/lib/ucr3fp/libm.a(lib_a-w_sqrt.o)
 .bss           0x0000000000000000        0x0 /usr/local/avr32-gnu-toolchain-linux_x86_64/bin/../lib/gcc/avr32/4.4.7/../../../../avr32/lib/ucr3fp/libm.a(lib_a-w_sqrt.o)
 .text          0x0000000000000000        0x0 /usr/local/avr32-gnu-toolchain-linux_x86_64/bin/../lib/gcc/avr32/4.4.7/../../../../avr32/lib/ucr3fp/libm.a(lib_a-wf_sqrt.o)
 .data          0x0000000000000000        0x0 /usr/local/avr32-gnu-toolchain-linux_x86_64/bin/../lib/gcc/avr32/4.4.7/../../../../avr32/lib/ucr3fp/libm.a(lib_a-wf_sqrt.o)
 .bss           0x0000000000000000        0x0 /usr/local/avr32-gnu-toolchain-linux_x86_64/bin/../lib/gcc/avr32/4.4.7/../../../../avr32/lib/ucr3fp/libm.a(lib_a-wf_sqrt.o)
 .text.sqrtf    0x0000000000000000       0xbc /usr/local/avr32-gnu-toolchain-linux_x86_64/bin/../lib/gcc/avr32/4.4.7/../../../../avr32/lib/ucr3fp/libm.a(lib_a-wf_sqrt.o)
 .rodata.str1.4
                0x0000000000000000        0x8 /usr/local/avr32-gnu-toolchain-linux_x86_64/bin/../lib/gcc/avr32/4.4.7/../../../../avr32/lib/ucr3fp/libm.a(lib_a-wf_sqrt.o)
 .comment       0x0000000000000000       0x31 /usr/local/avr32-gnu-toolchain-linux_x86_64/bin/../lib/gcc/avr32/4.4.7/../../../../avr32/lib/ucr3fp/libm.a(lib_a-wf_sqrt.o)
 .text          0x0000000000000000        0x0 /usr/local/avr32-gnu-toolchain-linux_x86_64/bin/../lib/gcc/avr32/4.4.7/../../../../avr32/lib/ucr3fp/libm.a(lib_a-e_asin.o)
 .data          0x0000000000000000        0x0 /usr/local/avr32-gnu-toolchain-linux_x86_64/bin/../lib/gcc/avr32/4.4.7/../../../../avr32/lib/ucr3fp/libm.a(lib_a-e_asin.o)
 .bss           0x0000000000000000        0x0 /usr/local/avr32-gnu-toolchain-linux_x86_64/bin/../lib/gcc/avr32/4.4.7/../../../../avr32/lib/ucr3fp/libm.a(lib_a-e_asin.o)
 .text          0x0000000000000000        0x0 /usr/local/avr32-gnu-toolchain-linux_x86_64/bin/../lib/gcc/avr32/4.4.7/../../../../avr32/lib/ucr3fp/libm.a(lib_a-e_atan2.o)
 .data          0x0000000000000000        0x0 /usr/local/avr32-gnu-toolchain-linux_x86_64/bin/../lib/gcc/avr32/4.4.7/../../../../avr32/lib/ucr3fp/libm.a(lib_a-e_atan2.o)
 .bss           0x0000000000000000        0x0 /usr/local/avr32-gnu-toolchain-linux_x86_64/bin/../lib/gcc/avr32/4.4.7/../../../../avr32/lib/ucr3fp/libm.a(lib_a-e_atan2.o)
 .text          0x0000000000000000        0x0 /usr/local/avr32-gnu-toolchain-linux_x86_64/bin/../lib/gcc/avr32/4.4.7/../../../../avr32/lib/ucr3fp/libm.a(lib_a-e_fmod.o)
 .data          0x0000000000000000        0x0 /usr/local/avr32-gnu-toolchain-linux_x86_64/bin/../lib/gcc/avr32/4.4.7/../../../../avr32/lib/ucr3fp/libm.a(lib_a-e_fmod.o)
 .bss           0x0000000000000000        0x0 /usr/local/avr32-gnu-toolchain-linux_x86_64/bin/../lib/gcc/avr32/4.4.7/../../../../avr32/lib/ucr3fp/libm.a(lib_a-e_fmod.o)
 .text          0x0000000000000000        0x0 /usr/local/avr32-gnu-toolchain-linux_x86_64/bin/../lib/gcc/avr32/4.4.7/../../../../avr32/lib/ucr3fp/libm.a(lib_a-e_pow.o)
 .data          0x0000000000000000        0x0 /usr/local/avr32-gnu-toolchain-linux_x86_64/bin/../lib/gcc/avr32/4.4.7/../../../../avr32/lib/ucr3fp/libm.a(lib_a-e_pow.o)
 .bss           0x0000000000000000        0x0 /usr/local/avr32-gnu-toolchain-linux_x86_64/bin/../lib/gcc/avr32/4.4.7/../../../../avr32/lib/ucr3fp/libm.a(lib_a-e_pow.o)
 .text          0x0000000000000000        0x0 /usr/local/avr32-gnu-toolchain-linux_x86_64/bin/../lib/gcc/avr32/4.4.7/../../../../avr32/lib/ucr3fp/libm.a(lib_a-e_rem_pio2.o)
 .data          0x0000000000000000        0x0 /usr/local/avr32-gnu-toolchain-linux_x86_64/bin/../lib/gcc/avr32/4.4.7/../../../../avr32/lib/ucr3fp/libm.a(lib_a-e_rem_pio2.o)
 .bss           0x0000000000000000        0x0 /usr/local/avr32-gnu-toolchain-linux_x86_64/bin/../lib/gcc/avr32/4.4.7/../../../../avr32/lib/ucr3fp/libm.a(lib_a-e_rem_pio2.o)
 .text          0x0000000000000000        0x0 /usr/local/avr32-gnu-toolchain-linux_x86_64/bin/../lib/gcc/avr32/4.4.7/../../../../avr32/lib/ucr3fp/libm.a(lib_a-e_sqrt.o)
 .data          0x0000000000000000        0x0 /usr/local/avr32-gnu-toolchain-linux_x86_64/bin/../lib/gcc/avr32/4.4.7/../../../../avr32/lib/ucr3fp/libm.a(lib_a-e_sqrt.o)
 .bss           0x0000000000000000        0x0 /usr/local/avr32-gnu-toolchain-linux_x86_64/bin/../lib/gcc/avr32/4.4.7/../../../../avr32/lib/ucr3fp/libm.a(lib_a-e_sqrt.o)
 .text          0x0000000000000000        0x0 /usr/local/avr32-gnu-toolchain-linux_x86_64/bin/../lib/gcc/avr32/4.4.7/../../../../avr32/lib/ucr3fp/libm.a(lib_a-ef_sqrt.o)
 .data          0x0000000000000000        0x0 /usr/local/avr32-gnu-toolchain-linux_x86_64/bin/../lib/gcc/avr32/4.4.7/../../../../avr32/lib/ucr3fp/libm.a(lib_a-ef_sqrt.o)
 .bss           0x0000000000000000        0x0 /usr/local/avr32-gnu-toolchain-linux_x86_64/bin/../lib/gcc/avr32/4.4.7/../../../../avr32/lib/ucr3fp/libm.a(lib_a-ef_sqrt.o)
 .text.__ieee754_sqrtf
                0x0000000000000000       0xd4 /usr/local/avr32-gnu-toolchain-linux_x86_64/bin/../lib/gcc/avr32/4.4.7/../../../../avr32/lib/ucr3fp/libm.a(lib_a-ef_sqrt.o)
 .comment       0x0000000000000000       0x31 /usr/local/avr32-gnu-toolchain-linux_x86_64/bin/../lib/gcc/avr32/4.4.7/../../../../avr32/lib/ucr3fp/libm.a(lib_a-ef_sqrt.o)
 .text          0x0000000000000000        0x0 /usr/local/avr32-gnu-toolchain-linux_x86_64/bin/../lib/gcc/avr32/4.4.7/../../../../avr32/lib/ucr3fp/libm.a(lib_a-k_cos.o)
 .data          0x0000000000000000        0x0 /usr/local/avr32-gnu-toolchain-linux_x86_64/bin/../lib/gcc/avr32/4.4.7/../../../../avr32/lib/ucr3fp/libm.a(lib_a-k_cos.o)
 .bss           0x0000000000000000        0x0 /usr/local/avr32-gnu-toolchain-linux_x86_64/bin/../lib/gcc/avr32/4.4.7/../../../../avr32/lib/ucr3fp/libm.a(lib_a-k_cos.o)
 .text          0x0000000000000000        0x0 /usr/local/avr32-gnu-toolchain-linux_x86_64/bin/../lib/gcc/avr32/4.4.7/../../../../avr32/lib/ucr3fp/libm.a(lib_a-k_rem_pio2.o)
 .data          0x0000000000000000        0x0 /usr/local/avr32-gnu-toolchain-linux_x86_64/bin/../lib/gcc/avr32/4.4.7/../../../../avr32/lib/ucr3fp/libm.a(lib_a-k_rem_pio2.o)
 .bss           0x0000000000000000        0x0 /usr/local/avr32-gnu-toolchain-linux_x86_64/bin/../lib/gcc/avr32/4.4.7/../../../../avr32/lib/ucr3fp/libm.a(lib_a-k_rem_pio2.o)
 .text          0x0000000000000000        0x0 /usr/local/avr32-gnu-toolchain-linux_x86_64/bin/../lib/gcc/avr32/4.4.7/../../../../avr32/lib/ucr3fp/libm.a(lib_a-k_sin.o)
 .data          0x0000000000000000        0x0 /usr/local/avr32-gnu-toolchain-linux_x86_64/bin/../lib/gcc/avr32/4.4.7/../../../../avr32/lib/ucr3fp/libm.a(lib_a-k_sin.o)
 .bss           0x0000000000000000        0x0 /usr/local/avr32-gnu-toolchain-linux_x86_64/bin/../lib/gcc/avr32/4.4.7/../../../../avr32/lib/ucr3fp/libm.a(lib_a-k_sin.o)
 .text          0x0000000000000000        0x0 /usr/local/avr32-gnu-toolchain-linux_x86_64/bin/../lib/gcc/avr32/4.4.7/../../../../avr32/lib/ucr3fp/libm.a(lib_a-s_atan.o)
 .data          0x0000000000000000        0x0 /usr/local/avr32-gnu-toolchain-linux_x86_64/bin/../lib/gcc/avr32/4.4.7/../../../../avr32/lib/ucr3fp/libm.a(lib_a-s_atan.o)
 .bss           0x0000000000000000        0x0 /usr/local/avr32-gnu-toolchain-linux_x86_64/bin/../lib/gcc/avr32/4.4.7/../../../../avr32/lib/ucr3fp/libm.a(lib_a-s_atan.o)
 .text          0x0000000000000000        0x0 /usr/local/avr32-gnu-toolchain-linux_x86_64/bin/../lib/gcc/avr32/4.4.7/../../../../avr32/lib/ucr3fp/libm.a(lib_a-s_fabs.o)
 .data          0x0000000000000000        0x0 /usr/local/avr32-gnu-toolchain-linux_x86_64/bin/../lib/gcc/avr32/4.4.7/../../../../avr32/lib/ucr3fp/libm.a(lib_a-s_fabs.o)
 .bss           0x0000000000000000        0x0 /usr/local/avr32-gnu-toolchain-linux_x86_64/bin/../lib/gcc/avr32/4.4.7/../../../../avr32/lib/ucr3fp/libm.a(lib_a-s_fabs.o)
 .text          0x0000000000000000        0x0 /usr/local/avr32-gnu-toolchain-linux_x86_64/bin/../lib/gcc/avr32/4.4.7/../../../../avr32/lib/ucr3fp/libm.a(lib_a-s_finite.o)
 .data          0x0000000000000000        0x0 /usr/local/avr32-gnu-toolchain-linux_x86_64/bin/../lib/gcc/avr32/4.4.7/../../../../avr32/lib/ucr3fp/libm.a(lib_a-s_finite.o)
 .bss           0x0000000000000000        0x0 /usr/local/avr32-gnu-toolchain-linux_x86_64/bin/../lib/gcc/avr32/4.4.7/../../../../avr32/lib/ucr3fp/libm.a(lib_a-s_finite.o)
 .text          0x0000000000000000        0x0 /usr/local/avr32-gnu-toolchain-linux_x86_64/bin/../lib/gcc/avr32/4.4.7/../../../../avr32/lib/ucr3fp/libm.a(lib_a-s_isnand.o)
 .data          0x0000000000000000        0x0 /usr/local/avr32-gnu-toolchain-linux_x86_64/bin/../lib/gcc/avr32/4.4.7/../../../../avr32/lib/ucr3fp/libm.a(lib_a-s_isnand.o)
 .bss           0x0000000000000000        0x0 /usr/local/avr32-gnu-toolchain-linux_x86_64/bin/../lib/gcc/avr32/4.4.7/../../../../avr32/lib/ucr3fp/libm.a(lib_a-s_isnand.o)
 .text          0x0000000000000000        0x0 /usr/local/avr32-gnu-toolchain-linux_x86_64/bin/../lib/gcc/avr32/4.4.7/../../../../avr32/lib/ucr3fp/libm.a(lib_a-s_lib_ver.o)
 .data          0x0000000000000000        0x0 /usr/local/avr32-gnu-toolchain-linux_x86_64/bin/../lib/gcc/avr32/4.4.7/../../../../avr32/lib/ucr3fp/libm.a(lib_a-s_lib_ver.o)
 .bss           0x0000000000000000        0x0 /usr/local/avr32-gnu-toolchain-linux_x86_64/bin/../lib/gcc/avr32/4.4.7/../../../../avr32/lib/ucr3fp/libm.a(lib_a-s_lib_ver.o)
 .text          0x0000000000000000        0x0 /usr/local/avr32-gnu-toolchain-linux_x86_64/bin/../lib/gcc/avr32/4.4.7/../../../../avr32/lib/ucr3fp/libm.a(lib_a-s_matherr.o)
 .data          0x0000000000000000        0x0 /usr/local/avr32-gnu-toolchain-linux_x86_64/bin/../lib/gcc/avr32/4.4.7/../../../../avr32/lib/ucr3fp/libm.a(lib_a-s_matherr.o)
 .bss           0x0000000000000000        0x0 /usr/local/avr32-gnu-toolchain-linux_x86_64/bin/../lib/gcc/avr32/4.4.7/../../../../avr32/lib/ucr3fp/libm.a(lib_a-s_matherr.o)
 .text          0x0000000000000000        0x0 /usr/local/avr32-gnu-toolchain-linux_x86_64/bin/../lib/gcc/avr32/4.4.7/../../../../avr32/lib/ucr3fp/libm.a(lib_a-s_nan.o)
 .data          0x0000000000000000        0x0 /usr/local/avr32-gnu-toolchain-linux_x86_64/bin/../lib/gcc/avr32/4.4.7/../../../../avr32/lib/ucr3fp/libm.a(lib_a-s_nan.o)
 .bss           0x0000000000000000        0x0 /usr/local/avr32-gnu-toolchain-linux_x86_64/bin/../lib/gcc/avr32/4.4.7/../../../../avr32/lib/ucr3fp/libm.a(lib_a-s_nan.o)
 .text          0x0000000000000000        0x0 /usr/local/avr32-gnu-toolchain-linux_x86_64/bin/../lib/gcc/avr32/4.4.7/../../../../avr32/lib/ucr3fp/libm.a(lib_a-s_rint.o)
 .data          0x0000000000000000        0x0 /usr/local/avr32-gnu-toolchain-linux_x86_64/bin/../lib/gcc/avr32/4.4.7/../../../../avr32/lib/ucr3fp/libm.a(lib_a-s_rint.o)
 .bss           0x0000000000000000        0x0 /usr/local/avr32-gnu-toolchain-linux_x86_64/bin/../lib/gcc/avr32/4.4.7/../../../../avr32/lib/ucr3fp/libm.a(lib_a-s_rint.o)
 .text          0x0000000000000000        0x0 /usr/local/avr32-gnu-toolchain-linux_x86_64/bin/../lib/gcc/avr32/4.4.7/../../../../avr32/lib/ucr3fp/libm.a(lib_a-s_scalbn.o)
 .data          0x0000000000000000        0x0 /usr/local/avr32-gnu-toolchain-linux_x86_64/bin/../lib/gcc/avr32/4.4.7/../../../../avr32/lib/ucr3fp/libm.a(lib_a-s_scalbn.o)
 .bss           0x0000000000000000        0x0 /usr/local/avr32-gnu-toolchain-linux_x86_64/bin/../lib/gcc/avr32/4.4.7/../../../../avr32/lib/ucr3fp/libm.a(lib_a-s_scalbn.o)
 .text          0x0000000000000000        0x0 /usr/local/avr32-gnu-toolchain-linux_x86_64/bin/../lib/gcc/avr32/4.4.7/../../../../avr32/lib/ucr3fp/libm.a(lib_a-sf_isnan.o)
 .data          0x0000000000000000        0x0 /usr/local/avr32-gnu-toolchain-linux_x86_64/bin/../lib/gcc/avr32/4.4.7/../../../../avr32/lib/ucr3fp/libm.a(lib_a-sf_isnan.o)
 .bss           0x0000000000000000        0x0 /usr/local/avr32-gnu-toolchain-linux_x86_64/bin/../lib/gcc/avr32/4.4.7/../../../../avr32/lib/ucr3fp/libm.a(lib_a-sf_isnan.o)
 .text.isnanf   0x0000000000000000        0xe /usr/local/avr32-gnu-toolchain-linux_x86_64/bin/../lib/gcc/avr32/4.4.7/../../../../avr32/lib/ucr3fp/libm.a(lib_a-sf_isnan.o)
 .comment       0x0000000000000000       0x31 /usr/local/avr32-gnu-toolchain-linux_x86_64/bin/../lib/gcc/avr32/4.4.7/../../../../avr32/lib/ucr3fp/libm.a(lib_a-sf_isnan.o)
 .text          0x0000000000000000        0x0 /usr/local/avr32-gnu-toolchain-linux_x86_64/bin/../lib/gcc/avr32/4.4.7/../../../../avr32/lib/ucr3fp/libm.a(lib_a-s_copysign.o)
 .data          0x0000000000000000        0x0 /usr/local/avr32-gnu-toolchain-linux_x86_64/bin/../lib/gcc/avr32/4.4.7/../../../../avr32/lib/ucr3fp/libm.a(lib_a-s_copysign.o)
 .bss           0x0000000000000000        0x0 /usr/local/avr32-gnu-toolchain-linux_x86_64/bin/../lib/gcc/avr32/4.4.7/../../../../avr32/lib/ucr3fp/libm.a(lib_a-s_copysign.o)
 .data          0x0000000000000000        0x0 /usr/local/avr32-gnu-toolchain-linux_x86_64/bin/../lib/gcc/avr32/4.4.7/ucr3fp/libgcc.a(_avr32_f64_mul.o)
 .bss           0x0000000000000000        0x0 /usr/local/avr32-gnu-toolchain-linux_x86_64/bin/../lib/gcc/avr32/4.4.7/ucr3fp/libgcc.a(_avr32_f64_mul.o)
 .data          0x0000000000000000        0x0 /usr/local/avr32-gnu-toolchain-linux_x86_64/bin/../lib/gcc/avr32/4.4.7/ucr3fp/libgcc.a(_avr32_f64_addsub.o)
 .bss           0x0000000000000000        0x0 /usr/local/avr32-gnu-toolchain-linux_x86_64/bin/../lib/gcc/avr32/4.4.7/ucr3fp/libgcc.a(_avr32_f64_addsub.o)
 .data          0x0000000000000000        0x0 /usr/local/avr32-gnu-toolchain-linux_x86_64/bin/../lib/gcc/avr32/4.4.7/ucr3fp/libgcc.a(_avr32_f64_to_s32.o)
 .bss           0x0000000000000000        0x0 /usr/local/avr32-gnu-toolchain-linux_x86_64/bin/../lib/gcc/avr32/4.4.7/ucr3fp/libgcc.a(_avr32_f64_to_s32.o)
 .data          0x0000000000000000        0x0 /usr/local/avr32-gnu-toolchain-linux_x86_64/bin/../lib/gcc/avr32/4.4.7/ucr3fp/libgcc.a(_avr32_f64_to_s64.o)
 .bss           0x0000000000000000        0x0 /usr/local/avr32-gnu-toolchain-linux_x86_64/bin/../lib/gcc/avr32/4.4.7/ucr3fp/libgcc.a(_avr32_f64_to_s64.o)
 .data          0x0000000000000000        0x0 /usr/local/avr32-gnu-toolchain-linux_x86_64/bin/../lib/gcc/avr32/4.4.7/ucr3fp/libgcc.a(_avr32_s32_to_f64.o)
 .bss           0x0000000000000000        0x0 /usr/local/avr32-gnu-toolchain-linux_x86_64/bin/../lib/gcc/avr32/4.4.7/ucr3fp/libgcc.a(_avr32_s32_to_f64.o)
 .data          0x0000000000000000        0x0 /usr/local/avr32-gnu-toolchain-linux_x86_64/bin/../lib/gcc/avr32/4.4.7/ucr3fp/libgcc.a(_avr32_f64_cmp_eq.o)
 .bss           0x0000000000000000        0x0 /usr/local/avr32-gnu-toolchain-linux_x86_64/bin/../lib/gcc/avr32/4.4.7/ucr3fp/libgcc.a(_avr32_f64_cmp_eq.o)
 .data          0x0000000000000000        0x0 /usr/local/avr32-gnu-toolchain-linux_x86_64/bin/../lib/gcc/avr32/4.4.7/ucr3fp/libgcc.a(_avr32_f64_cmp_ge.o)
 .bss           0x0000000000000000        0x0 /usr/local/avr32-gnu-toolchain-linux_x86_64/bin/../lib/gcc/avr32/4.4.7/ucr3fp/libgcc.a(_avr32_f64_cmp_ge.o)
 .data          0x0000000000000000        0x0 /usr/local/avr32-gnu-toolchain-linux_x86_64/bin/../lib/gcc/avr32/4.4.7/ucr3fp/libgcc.a(_avr32_f64_cmp_lt.o)
 .bss           0x0000000000000000        0x0 /usr/local/avr32-gnu-toolchain-linux_x86_64/bin/../lib/gcc/avr32/4.4.7/ucr3fp/libgcc.a(_avr32_f64_cmp_lt.o)
 .text          0x0000000000000000       0x34 /usr/local/avr32-gnu-toolchain-linux_x86_64/bin/../lib/gcc/avr32/4.4.7/ucr3fp/libgcc.a(_avr32_f32_cmp_lt.o)
 .data          0x0000000000000000        0x0 /usr/local/avr32-gnu-toolchain-linux_x86_64/bin/../lib/gcc/avr32/4.4.7/ucr3fp/libgcc.a(_avr32_f32_cmp_lt.o)
 .bss           0x0000000000000000        0x0 /usr/local/avr32-gnu-toolchain-linux_x86_64/bin/../lib/gcc/avr32/4.4.7/ucr3fp/libgcc.a(_avr32_f32_cmp_lt.o)
 .data          0x0000000000000000        0x0 /usr/local/avr32-gnu-toolchain-linux_x86_64/bin/../lib/gcc/avr32/4.4.7/ucr3fp/libgcc.a(_avr32_f64_div.o)
 .bss           0x0000000000000000        0x0 /usr/local/avr32-gnu-toolchain-linux_x86_64/bin/../lib/gcc/avr32/4.4.7/ucr3fp/libgcc.a(_avr32_f64_div.o)
 .data          0x0000000000000000        0x0 /usr/local/avr32-gnu-toolchain-linux_x86_64/bin/../lib/gcc/avr32/4.4.7/ucr3fp/libgcc.a(_avr32_f32_div.o)
 .bss           0x0000000000000000        0x0 /usr/local/avr32-gnu-toolchain-linux_x86_64/bin/../lib/gcc/avr32/4.4.7/ucr3fp/libgcc.a(_avr32_f32_div.o)
 .text          0x0000000000000000      0x180 /usr/local/avr32-gnu-toolchain-linux_x86_64/bin/../lib/gcc/avr32/4.4.7/ucr3fp/libgcc.a(_avr32_f32_addsub.o)
 .data          0x0000000000000000        0x0 /usr/local/avr32-gnu-toolchain-linux_x86_64/bin/../lib/gcc/avr32/4.4.7/ucr3fp/libgcc.a(_avr32_f32_addsub.o)
 .bss           0x0000000000000000        0x0 /usr/local/avr32-gnu-toolchain-linux_x86_64/bin/../lib/gcc/avr32/4.4.7/ucr3fp/libgcc.a(_avr32_f32_addsub.o)
 .text          0x0000000000000000       0xe2 /usr/local/avr32-gnu-toolchain-linux_x86_64/bin/../lib/gcc/avr32/4.4.7/ucr3fp/libgcc.a(_avr32_f32_mul.o)
 .data          0x0000000000000000        0x0 /usr/local/avr32-gnu-toolchain-linux_x86_64/bin/../lib/gcc/avr32/4.4.7/ucr3fp/libgcc.a(_avr32_f32_mul.o)
 .bss           0x0000000000000000        0x0 /usr/local/avr32-gnu-toolchain-linux_x86_64/bin/../lib/gcc/avr32/4.4.7/ucr3fp/libgcc.a(_avr32_f32_mul.o)
 .data          0x0000000000000000        0x0 /usr/local/avr32-gnu-toolchain-linux_x86_64/bin/../lib/gcc/avr32/4.4.7/ucr3fp/libgcc.a(_avr32_f32_to_f64.o)
 .bss           0x0000000000000000        0x0 /usr/local/avr32-gnu-toolchain-linux_x86_64/bin/../lib/gcc/avr32/4.4.7/ucr3fp/libgcc.a(_avr32_f32_to_f64.o)
 .data          0x0000000000000000        0x0 /usr/local/avr32-gnu-toolchain-linux_x86_64/bin/../lib/gcc/avr32/4.4.7/ucr3fp/libgcc.a(_avr32_f64_to_f32.o)
 .bss           0x0000000000000000        0x0 /usr/local/avr32-gnu-toolchain-linux_x86_64/bin/../lib/gcc/avr32/4.4.7/ucr3fp/libgcc.a(_avr32_f64_to_f32.o)
 .data          0x0000000000000000        0x0 /usr/local/avr32-gnu-toolchain-linux_x86_64/bin/../lib/gcc/avr32/4.4.7/ucr3fp/libgcc.a(_floatdidf.o)
 .bss           0x0000000000000000        0x0 /usr/local/avr32-gnu-toolchain-linux_x86_64/bin/../lib/gcc/avr32/4.4.7/ucr3fp/libgcc.a(_floatdidf.o)
 .data          0x0000000000000000        0x0 /usr/local/avr32-gnu-toolchain-linux_x86_64/bin/../lib/gcc/avr32/4.4.7/ucr3fp/libgcc.a(_divdi3.o)
 .bss           0x0000000000000000        0x0 /usr/local/avr32-gnu-toolchain-linux_x86_64/bin/../lib/gcc/avr32/4.4.7/ucr3fp/libgcc.a(_divdi3.o)
 .data          0x0000000000000000        0x0 /usr/local/avr32-gnu-toolchain-linux_x86_64/bin/../lib/gcc/avr32/4.4.7/ucr3fp/libgcc.a(_moddi3.o)
 .bss           0x0000000000000000        0x0 /usr/local/avr32-gnu-toolchain-linux_x86_64/bin/../lib/gcc/avr32/4.4.7/ucr3fp/libgcc.a(_moddi3.o)
 .data          0x0000000000000000        0x0 /usr/local/avr32-gnu-toolchain-linux_x86_64/bin/../lib/gcc/avr32/4.4.7/ucr3fp/libgcc.a(_udivdi3.o)
 .bss           0x0000000000000000        0x0 /usr/local/avr32-gnu-toolchain-linux_x86_64/bin/../lib/gcc/avr32/4.4.7/ucr3fp/libgcc.a(_udivdi3.o)
 .data          0x0000000000000000        0x0 /usr/local/avr32-gnu-toolchain-linux_x86_64/bin/../lib/gcc/avr32/4.4.7/ucr3fp/libgcc.a(_umoddi3.o)
 .bss           0x0000000000000000        0x0 /usr/local/avr32-gnu-toolchain-linux_x86_64/bin/../lib/gcc/avr32/4.4.7/ucr3fp/libgcc.a(_umoddi3.o)
 .text          0x0000000000000000        0x0 /usr/local/avr32-gnu-toolchain-linux_x86_64/bin/../lib/gcc/avr32/4.4.7/../../../../avr32/lib/ucr3fp/libc.a(lib_a-errno.o)
 .data          0x0000000000000000        0x0 /usr/local/avr32-gnu-toolchain-linux_x86_64/bin/../lib/gcc/avr32/4.4.7/../../../../avr32/lib/ucr3fp/libc.a(lib_a-errno.o)
 .bss           0x0000000000000000        0x0 /usr/local/avr32-gnu-toolchain-linux_x86_64/bin/../lib/gcc/avr32/4.4.7/../../../../avr32/lib/ucr3fp/libc.a(lib_a-errno.o)
 .text          0x0000000000000000        0x0 /usr/local/avr32-gnu-toolchain-linux_x86_64/bin/../lib/gcc/avr32/4.4.7/../../../../avr32/lib/ucr3fp/libc.a(lib_a-impure.o)
 .data          0x0000000000000000        0x0 /usr/local/avr32-gnu-toolchain-linux_x86_64/bin/../lib/gcc/avr32/4.4.7/../../../../avr32/lib/ucr3fp/libc.a(lib_a-impure.o)
 .bss           0x0000000000000000        0x0 /usr/local/avr32-gnu-toolchain-linux_x86_64/bin/../lib/gcc/avr32/4.4.7/../../../../avr32/lib/ucr3fp/libc.a(lib_a-impure.o)
 .text          0x0000000000000000        0x0 /usr/local/avr32-gnu-toolchain-linux_x86_64/bin/../lib/gcc/avr32/4.4.7/../../../../avr32/lib/ucr3fp/libc.a(lib_a-malloc.o)
 .data          0x0000000000000000        0x0 /usr/local/avr32-gnu-toolchain-linux_x86_64/bin/../lib/gcc/avr32/4.4.7/../../../../avr32/lib/ucr3fp/libc.a(lib_a-malloc.o)
 .bss           0x0000000000000000        0x0 /usr/local/avr32-gnu-toolchain-linux_x86_64/bin/../lib/gcc/avr32/4.4.7/../../../../avr32/lib/ucr3fp/libc.a(lib_a-malloc.o)
 .text          0x0000000000000000        0x0 /usr/local/avr32-gnu-toolchain-linux_x86_64/bin/../lib/gcc/avr32/4.4.7/../../../../avr32/lib/ucr3fp/libc.a(lib_a-mallocr.o)
 .data          0x0000000000000000        0x0 /usr/local/avr32-gnu-toolchain-linux_x86_64/bin/../lib/gcc/avr32/4.4.7/../../../../avr32/lib/ucr3fp/libc.a(lib_a-mallocr.o)
 .bss           0x0000000000000000        0x0 /usr/local/avr32-gnu-toolchain-linux_x86_64/bin/../lib/gcc/avr32/4.4.7/../../../../avr32/lib/ucr3fp/libc.a(lib_a-mallocr.o)
 .data          0x0000000000000000        0x0 /usr/local/avr32-gnu-toolchain-linux_x86_64/bin/../lib/gcc/avr32/4.4.7/../../../../avr32/lib/ucr3fp/libc.a(lib_a-memcpy.o)
 .bss           0x0000000000000000        0x0 /usr/local/avr32-gnu-toolchain-linux_x86_64/bin/../lib/gcc/avr32/4.4.7/../../../../avr32/lib/ucr3fp/libc.a(lib_a-memcpy.o)
 .text          0x0000000000000000        0x0 /usr/local/avr32-gnu-toolchain-linux_x86_64/bin/../lib/gcc/avr32/4.4.7/../../../../avr32/lib/ucr3fp/libc.a(lib_a-memset.o)
 .data          0x0000000000000000        0x0 /usr/local/avr32-gnu-toolchain-linux_x86_64/bin/../lib/gcc/avr32/4.4.7/../../../../avr32/lib/ucr3fp/libc.a(lib_a-memset.o)
 .bss           0x0000000000000000        0x0 /usr/local/avr32-gnu-toolchain-linux_x86_64/bin/../lib/gcc/avr32/4.4.7/../../../../avr32/lib/ucr3fp/libc.a(lib_a-memset.o)
 .text          0x0000000000000000        0x0 /usr/local/avr32-gnu-toolchain-linux_x86_64/bin/../lib/gcc/avr32/4.4.7/../../../../avr32/lib/ucr3fp/libc.a(lib_a-mlock.o)
 .data          0x0000000000000000        0x0 /usr/local/avr32-gnu-toolchain-linux_x86_64/bin/../lib/gcc/avr32/4.4.7/../../../../avr32/lib/ucr3fp/libc.a(lib_a-mlock.o)
 .bss           0x0000000000000000        0x0 /usr/local/avr32-gnu-toolchain-linux_x86_64/bin/../lib/gcc/avr32/4.4.7/../../../../avr32/lib/ucr3fp/libc.a(lib_a-mlock.o)
 .text          0x0000000000000000        0x0 /usr/local/avr32-gnu-toolchain-linux_x86_64/bin/../lib/gcc/avr32/4.4.7/../../../../avr32/lib/ucr3fp/libc.a(lib_a-sbrkr.o)
 .data          0x0000000000000000        0x0 /usr/local/avr32-gnu-toolchain-linux_x86_64/bin/../lib/gcc/avr32/4.4.7/../../../../avr32/lib/ucr3fp/libc.a(lib_a-sbrkr.o)
 .bss           0x0000000000000000        0x0 /usr/local/avr32-gnu-toolchain-linux_x86_64/bin/../lib/gcc/avr32/4.4.7/../../../../avr32/lib/ucr3fp/libc.a(lib_a-sbrkr.o)
 .text          0x0000000000000000        0x0 /usr/local/avr32-gnu-toolchain-linux_x86_64/bin/../lib/gcc/avr32/4.4.7/../../../../avr32/lib/ucr3fp/libc.a(lib_a-snprintf.o)
 .data          0x0000000000000000        0x0 /usr/local/avr32-gnu-toolchain-linux_x86_64/bin/../lib/gcc/avr32/4.4.7/../../../../avr32/lib/ucr3fp/libc.a(lib_a-snprintf.o)
 .bss           0x0000000000000000        0x0 /usr/local/avr32-gnu-toolchain-linux_x86_64/bin/../lib/gcc/avr32/4.4.7/../../../../avr32/lib/ucr3fp/libc.a(lib_a-snprintf.o)
 .text._snprintf_r
                0x0000000000000000       0x60 /usr/local/avr32-gnu-toolchain-linux_x86_64/bin/../lib/gcc/avr32/4.4.7/../../../../avr32/lib/ucr3fp/libc.a(lib_a-snprintf.o)
 .text          0x0000000000000000        0x0 /usr/local/avr32-gnu-toolchain-linux_x86_64/bin/../lib/gcc/avr32/4.4.7/../../../../avr32/lib/ucr3fp/libc.a(lib_a-strcpy.o)
 .data          0x0000000000000000        0x0 /usr/local/avr32-gnu-toolchain-linux_x86_64/bin/../lib/gcc/avr32/4.4.7/../../../../avr32/lib/ucr3fp/libc.a(lib_a-strcpy.o)
 .bss           0x0000000000000000        0x0 /usr/local/avr32-gnu-toolchain-linux_x86_64/bin/../lib/gcc/avr32/4.4.7/../../../../avr32/lib/ucr3fp/libc.a(lib_a-strcpy.o)
 .text          0x0000000000000000        0x0 /usr/local/avr32-gnu-toolchain-linux_x86_64/bin/../lib/gcc/avr32/4.4.7/../../../../avr32/lib/ucr3fp/libc.a(lib_a-strlen.o)
 .data          0x0000000000000000        0x0 /usr/local/avr32-gnu-toolchain-linux_x86_64/bin/../lib/gcc/avr32/4.4.7/../../../../avr32/lib/ucr3fp/libc.a(lib_a-strlen.o)
 .bss           0x0000000000000000        0x0 /usr/local/avr32-gnu-toolchain-linux_x86_64/bin/../lib/gcc/avr32/4.4.7/../../../../avr32/lib/ucr3fp/libc.a(lib_a-strlen.o)
 .text          0x0000000000000000        0x0 /usr/local/avr32-gnu-toolchain-linux_x86_64/bin/../lib/gcc/avr32/4.4.7/../../../../avr32/lib/ucr3fp/libc.a(lib_a-syscalls.o)
 .data          0x0000000000000000        0x0 /usr/local/avr32-gnu-toolchain-linux_x86_64/bin/../lib/gcc/avr32/4.4.7/../../../../avr32/lib/ucr3fp/libc.a(lib_a-syscalls.o)
 .bss           0x0000000000000000        0x0 /usr/local/avr32-gnu-toolchain-linux_x86_64/bin/../lib/gcc/avr32/4.4.7/../../../../avr32/lib/ucr3fp/libc.a(lib_a-syscalls.o)
 .text._init_startup
                0x0000000000000000        0x2 /usr/local/avr32-gnu-toolchain-linux_x86_64/bin/../lib/gcc/avr32/4.4.7/../../../../avr32/lib/ucr3fp/libc.a(lib_a-syscalls.o)
 .text._init_argv
                0x0000000000000000        0xa /usr/local/avr32-gnu-toolchain-linux_x86_64/bin/../lib/gcc/avr32/4.4.7/../../../../avr32/lib/ucr3fp/libc.a(lib_a-syscalls.o)
 .text._exit    0x0000000000000000        0xa /usr/local/avr32-gnu-toolchain-linux_x86_64/bin/../lib/gcc/avr32/4.4.7/../../../../avr32/lib/ucr3fp/libc.a(lib_a-syscalls.o)
 .text._open    0x0000000000000000       0x18 /usr/local/avr32-gnu-toolchain-linux_x86_64/bin/../lib/gcc/avr32/4.4.7/../../../../avr32/lib/ucr3fp/libc.a(lib_a-syscalls.o)
 .text._read    0x0000000000000000       0x18 /usr/local/avr32-gnu-toolchain-linux_x86_64/bin/../lib/gcc/avr32/4.4.7/../../../../avr32/lib/ucr3fp/libc.a(lib_a-syscalls.o)
 .text._write   0x0000000000000000       0x18 /usr/local/avr32-gnu-toolchain-linux_x86_64/bin/../lib/gcc/avr32/4.4.7/../../../../avr32/lib/ucr3fp/libc.a(lib_a-syscalls.o)
 .text._stat_host
                0x0000000000000000       0x18 /usr/local/avr32-gnu-toolchain-linux_x86_64/bin/../lib/gcc/avr32/4.4.7/../../../../avr32/lib/ucr3fp/libc.a(lib_a-syscalls.o)
 .text._stat    0x0000000000000000       0x50 /usr/local/avr32-gnu-toolchain-linux_x86_64/bin/../lib/gcc/avr32/4.4.7/../../../../avr32/lib/ucr3fp/libc.a(lib_a-syscalls.o)
 .text._gettimeofday_host
                0x0000000000000000       0x18 /usr/local/avr32-gnu-toolchain-linux_x86_64/bin/../lib/gcc/avr32/4.4.7/../../../../avr32/lib/ucr3fp/libc.a(lib_a-syscalls.o)
 .text._gettimeofday
                0x0000000000000000       0x24 /usr/local/avr32-gnu-toolchain-linux_x86_64/bin/../lib/gcc/avr32/4.4.7/../../../../avr32/lib/ucr3fp/libc.a(lib_a-syscalls.o)
 .text._unlink  0x0000000000000000       0x18 /usr/local/avr32-gnu-toolchain-linux_x86_64/bin/../lib/gcc/avr32/4.4.7/../../../../avr32/lib/ucr3fp/libc.a(lib_a-syscalls.o)
 .text._system  0x0000000000000000       0x18 /usr/local/avr32-gnu-toolchain-linux_x86_64/bin/../lib/gcc/avr32/4.4.7/../../../../avr32/lib/ucr3fp/libc.a(lib_a-syscalls.o)
 .text._execve  0x0000000000000000        0x2 /usr/local/avr32-gnu-toolchain-linux_x86_64/bin/../lib/gcc/avr32/4.4.7/../../../../avr32/lib/ucr3fp/libc.a(lib_a-syscalls.o)
 .text._fork    0x0000000000000000        0x2 /usr/local/avr32-gnu-toolchain-linux_x86_64/bin/../lib/gcc/avr32/4.4.7/../../../../avr32/lib/ucr3fp/libc.a(lib_a-syscalls.o)
 .text._wait    0x0000000000000000        0x2 /usr/local/avr32-gnu-toolchain-linux_x86_64/bin/../lib/gcc/avr32/4.4.7/../../../../avr32/lib/ucr3fp/libc.a(lib_a-syscalls.o)
 .text.sigfillset
                0x0000000000000000        0x2 /usr/local/avr32-gnu-toolchain-linux_x86_64/bin/../lib/gcc/avr32/4.4.7/../../../../avr32/lib/ucr3fp/libc.a(lib_a-syscalls.o)
 .text.sigprocmask
                0x0000000000000000        0x2 /usr/local/avr32-gnu-toolchain-linux_x86_64/bin/../lib/gcc/avr32/4.4.7/../../../../avr32/lib/ucr3fp/libc.a(lib_a-syscalls.o)
 .text._fcntl   0x0000000000000000        0x2 /usr/local/avr32-gnu-toolchain-linux_x86_64/bin/../lib/gcc/avr32/4.4.7/../../../../avr32/lib/ucr3fp/libc.a(lib_a-syscalls.o)
 .text._link    0x0000000000000000        0x2 /usr/local/avr32-gnu-toolchain-linux_x86_64/bin/../lib/gcc/avr32/4.4.7/../../../../avr32/lib/ucr3fp/libc.a(lib_a-syscalls.o)
 .text._kill    0x0000000000000000        0x2 /usr/local/avr32-gnu-toolchain-linux_x86_64/bin/../lib/gcc/avr32/4.4.7/../../../../avr32/lib/ucr3fp/libc.a(lib_a-syscalls.o)
 .text._getpid  0x0000000000000000        0x2 /usr/local/avr32-gnu-toolchain-linux_x86_64/bin/../lib/gcc/avr32/4.4.7/../../../../avr32/lib/ucr3fp/libc.a(lib_a-syscalls.o)
 .text._times   0x0000000000000000       0x12 /usr/local/avr32-gnu-toolchain-linux_x86_64/bin/../lib/gcc/avr32/4.4.7/../../../../avr32/lib/ucr3fp/libc.a(lib_a-syscalls.o)
 .text          0x0000000000000000        0x0 /usr/local/avr32-gnu-toolchain-linux_x86_64/bin/../lib/gcc/avr32/4.4.7/../../../../avr32/lib/ucr3fp/libc.a(lib_a-vfprintf.o)
 .data          0x0000000000000000        0x0 /usr/local/avr32-gnu-toolchain-linux_x86_64/bin/../lib/gcc/avr32/4.4.7/../../../../avr32/lib/ucr3fp/libc.a(lib_a-vfprintf.o)
 .bss           0x0000000000000000        0x0 /usr/local/avr32-gnu-toolchain-linux_x86_64/bin/../lib/gcc/avr32/4.4.7/../../../../avr32/lib/ucr3fp/libc.a(lib_a-vfprintf.o)
 .text.vfprintf
                0x0000000000000000       0x1c /usr/local/avr32-gnu-toolchain-linux_x86_64/bin/../lib/gcc/avr32/4.4.7/../../../../avr32/lib/ucr3fp/libc.a(lib_a-vfprintf.o)
 .text          0x0000000000000000        0x0 /usr/local/avr32-gnu-toolchain-linux_x86_64/bin/../lib/gcc/avr32/4.4.7/../../../../avr32/lib/ucr3fp/libc.a(lib_a-wsetup.o)
 .data          0x0000000000000000        0x0 /usr/local/avr32-gnu-toolchain-linux_x86_64/bin/../lib/gcc/avr32/4.4.7/../../../../avr32/lib/ucr3fp/libc.a(lib_a-wsetup.o)
 .bss           0x0000000000000000        0x0 /usr/local/avr32-gnu-toolchain-linux_x86_64/bin/../lib/gcc/avr32/4.4.7/../../../../avr32/lib/ucr3fp/libc.a(lib_a-wsetup.o)
 .text          0x0000000000000000        0x0 /usr/local/avr32-gnu-toolchain-linux_x86_64/bin/../lib/gcc/avr32/4.4.7/../../../../avr32/lib/ucr3fp/libc.a(lib_a-dtoa.o)
 .data          0x0000000000000000        0x0 /usr/local/avr32-gnu-toolchain-linux_x86_64/bin/../lib/gcc/avr32/4.4.7/../../../../avr32/lib/ucr3fp/libc.a(lib_a-dtoa.o)
 .bss           0x0000000000000000        0x0 /usr/local/avr32-gnu-toolchain-linux_x86_64/bin/../lib/gcc/avr32/4.4.7/../../../../avr32/lib/ucr3fp/libc.a(lib_a-dtoa.o)
 .text          0x0000000000000000        0x0 /usr/local/avr32-gnu-toolchain-linux_x86_64/bin/../lib/gcc/avr32/4.4.7/../../../../avr32/lib/ucr3fp/libc.a(lib_a-fflush.o)
 .data          0x0000000000000000        0x0 /usr/local/avr32-gnu-toolchain-linux_x86_64/bin/../lib/gcc/avr32/4.4.7/../../../../avr32/lib/ucr3fp/libc.a(lib_a-fflush.o)
 .bss           0x0000000000000000        0x0 /usr/local/avr32-gnu-toolchain-linux_x86_64/bin/../lib/gcc/avr32/4.4.7/../../../../avr32/lib/ucr3fp/libc.a(lib_a-fflush.o)
 .text.fflush   0x0000000000000000       0x30 /usr/local/avr32-gnu-toolchain-linux_x86_64/bin/../lib/gcc/avr32/4.4.7/../../../../avr32/lib/ucr3fp/libc.a(lib_a-fflush.o)
 .text          0x0000000000000000        0x0 /usr/local/avr32-gnu-toolchain-linux_x86_64/bin/../lib/gcc/avr32/4.4.7/../../../../avr32/lib/ucr3fp/libc.a(lib_a-findfp.o)
 .data          0x0000000000000000        0x0 /usr/local/avr32-gnu-toolchain-linux_x86_64/bin/../lib/gcc/avr32/4.4.7/../../../../avr32/lib/ucr3fp/libc.a(lib_a-findfp.o)
 .bss           0x0000000000000000        0x0 /usr/local/avr32-gnu-toolchain-linux_x86_64/bin/../lib/gcc/avr32/4.4.7/../../../../avr32/lib/ucr3fp/libc.a(lib_a-findfp.o)
 .text.__sinit_lock_acquire
                0x0000000000000000        0x2 /usr/local/avr32-gnu-toolchain-linux_x86_64/bin/../lib/gcc/avr32/4.4.7/../../../../avr32/lib/ucr3fp/libc.a(lib_a-findfp.o)
 .text.__sinit_lock_release
                0x0000000000000000        0x2 /usr/local/avr32-gnu-toolchain-linux_x86_64/bin/../lib/gcc/avr32/4.4.7/../../../../avr32/lib/ucr3fp/libc.a(lib_a-findfp.o)
 .text.__fp_lock
                0x0000000000000000        0x2 /usr/local/avr32-gnu-toolchain-linux_x86_64/bin/../lib/gcc/avr32/4.4.7/../../../../avr32/lib/ucr3fp/libc.a(lib_a-findfp.o)
 .text.__fp_unlock
                0x0000000000000000        0x2 /usr/local/avr32-gnu-toolchain-linux_x86_64/bin/../lib/gcc/avr32/4.4.7/../../../../avr32/lib/ucr3fp/libc.a(lib_a-findfp.o)
 .text.__fp_unlock_all
                0x0000000000000000       0x1c /usr/local/avr32-gnu-toolchain-linux_x86_64/bin/../lib/gcc/avr32/4.4.7/../../../../avr32/lib/ucr3fp/libc.a(lib_a-findfp.o)
 .text.__fp_lock_all
                0x0000000000000000       0x1c /usr/local/avr32-gnu-toolchain-linux_x86_64/bin/../lib/gcc/avr32/4.4.7/../../../../avr32/lib/ucr3fp/libc.a(lib_a-findfp.o)
 .text._cleanup
                0x0000000000000000       0x14 /usr/local/avr32-gnu-toolchain-linux_x86_64/bin/../lib/gcc/avr32/4.4.7/../../../../avr32/lib/ucr3fp/libc.a(lib_a-findfp.o)
 .text          0x0000000000000000        0x0 /usr/local/avr32-gnu-toolchain-linux_x86_64/bin/../lib/gcc/avr32/4.4.7/../../../../avr32/lib/ucr3fp/libc.a(lib_a-freer.o)
 .data          0x0000000000000000        0x0 /usr/local/avr32-gnu-toolchain-linux_x86_64/bin/../lib/gcc/avr32/4.4.7/../../../../avr32/lib/ucr3fp/libc.a(lib_a-freer.o)
 .bss           0x0000000000000000        0x0 /usr/local/avr32-gnu-toolchain-linux_x86_64/bin/../lib/gcc/avr32/4.4.7/../../../../avr32/lib/ucr3fp/libc.a(lib_a-freer.o)
 .text          0x0000000000000000        0x0 /usr/local/avr32-gnu-toolchain-linux_x86_64/bin/../lib/gcc/avr32/4.4.7/../../../../avr32/lib/ucr3fp/libc.a(lib_a-fvwrite.o)
 .data          0x0000000000000000        0x0 /usr/local/avr32-gnu-toolchain-linux_x86_64/bin/../lib/gcc/avr32/4.4.7/../../../../avr32/lib/ucr3fp/libc.a(lib_a-fvwrite.o)
 .bss           0x0000000000000000        0x0 /usr/local/avr32-gnu-toolchain-linux_x86_64/bin/../lib/gcc/avr32/4.4.7/../../../../avr32/lib/ucr3fp/libc.a(lib_a-fvwrite.o)
 .text          0x0000000000000000        0x0 /usr/local/avr32-gnu-toolchain-linux_x86_64/bin/../lib/gcc/avr32/4.4.7/../../../../avr32/lib/ucr3fp/libc.a(lib_a-fwalk.o)
 .data          0x0000000000000000        0x0 /usr/local/avr32-gnu-toolchain-linux_x86_64/bin/../lib/gcc/avr32/4.4.7/../../../../avr32/lib/ucr3fp/libc.a(lib_a-fwalk.o)
 .bss           0x0000000000000000        0x0 /usr/local/avr32-gnu-toolchain-linux_x86_64/bin/../lib/gcc/avr32/4.4.7/../../../../avr32/lib/ucr3fp/libc.a(lib_a-fwalk.o)
 .text._fwalk_reent
                0x0000000000000000       0x58 /usr/local/avr32-gnu-toolchain-linux_x86_64/bin/../lib/gcc/avr32/4.4.7/../../../../avr32/lib/ucr3fp/libc.a(lib_a-fwalk.o)
 .text          0x0000000000000000        0x0 /usr/local/avr32-gnu-toolchain-linux_x86_64/bin/../lib/gcc/avr32/4.4.7/../../../../avr32/lib/ucr3fp/libc.a(lib_a-locale.o)
 .data          0x0000000000000000        0x0 /usr/local/avr32-gnu-toolchain-linux_x86_64/bin/../lib/gcc/avr32/4.4.7/../../../../avr32/lib/ucr3fp/libc.a(lib_a-locale.o)
 .bss           0x0000000000000000        0x0 /usr/local/avr32-gnu-toolchain-linux_x86_64/bin/../lib/gcc/avr32/4.4.7/../../../../avr32/lib/ucr3fp/libc.a(lib_a-locale.o)
 .text.__locale_charset
                0x0000000000000000        0xc /usr/local/avr32-gnu-toolchain-linux_x86_64/bin/../lib/gcc/avr32/4.4.7/../../../../avr32/lib/ucr3fp/libc.a(lib_a-locale.o)
 .text.localeconv
                0x0000000000000000        0x8 /usr/local/avr32-gnu-toolchain-linux_x86_64/bin/../lib/gcc/avr32/4.4.7/../../../../avr32/lib/ucr3fp/libc.a(lib_a-locale.o)
 .text._setlocale_r
                0x0000000000000000       0x3c /usr/local/avr32-gnu-toolchain-linux_x86_64/bin/../lib/gcc/avr32/4.4.7/../../../../avr32/lib/ucr3fp/libc.a(lib_a-locale.o)
 .text.setlocale
                0x0000000000000000       0x18 /usr/local/avr32-gnu-toolchain-linux_x86_64/bin/../lib/gcc/avr32/4.4.7/../../../../avr32/lib/ucr3fp/libc.a(lib_a-locale.o)
 .rodata.charset
                0x0000000000000000        0x4 /usr/local/avr32-gnu-toolchain-linux_x86_64/bin/../lib/gcc/avr32/4.4.7/../../../../avr32/lib/ucr3fp/libc.a(lib_a-locale.o)
 .bss.__nlocale_changed
                0x0000000000000000        0x4 /usr/local/avr32-gnu-toolchain-linux_x86_64/bin/../lib/gcc/avr32/4.4.7/../../../../avr32/lib/ucr3fp/libc.a(lib_a-locale.o)
 .bss.__mlocale_changed
                0x0000000000000000        0x4 /usr/local/avr32-gnu-toolchain-linux_x86_64/bin/../lib/gcc/avr32/4.4.7/../../../../avr32/lib/ucr3fp/libc.a(lib_a-locale.o)
 .bss._PathLocale
                0x0000000000000000        0x4 /usr/local/avr32-gnu-toolchain-linux_x86_64/bin/../lib/gcc/avr32/4.4.7/../../../../avr32/lib/ucr3fp/libc.a(lib_a-locale.o)
 .data.__lc_ctype
                0x0000000000000000        0xc /usr/local/avr32-gnu-toolchain-linux_x86_64/bin/../lib/gcc/avr32/4.4.7/../../../../avr32/lib/ucr3fp/libc.a(lib_a-locale.o)
 .data.__mb_cur_max
                0x0000000000000000        0x4 /usr/local/avr32-gnu-toolchain-linux_x86_64/bin/../lib/gcc/avr32/4.4.7/../../../../avr32/lib/ucr3fp/libc.a(lib_a-locale.o)
 .text          0x0000000000000000        0x0 /usr/local/avr32-gnu-toolchain-linux_x86_64/bin/../lib/gcc/avr32/4.4.7/../../../../avr32/lib/ucr3fp/libc.a(lib_a-makebuf.o)
 .data          0x0000000000000000        0x0 /usr/local/avr32-gnu-toolchain-linux_x86_64/bin/../lib/gcc/avr32/4.4.7/../../../../avr32/lib/ucr3fp/libc.a(lib_a-makebuf.o)
 .bss           0x0000000000000000        0x0 /usr/local/avr32-gnu-toolchain-linux_x86_64/bin/../lib/gcc/avr32/4.4.7/../../../../avr32/lib/ucr3fp/libc.a(lib_a-makebuf.o)
 .text          0x0000000000000000        0x0 /usr/local/avr32-gnu-toolchain-linux_x86_64/bin/../lib/gcc/avr32/4.4.7/../../../../avr32/lib/ucr3fp/libc.a(lib_a-memchr.o)
 .data          0x0000000000000000        0x0 /usr/local/avr32-gnu-toolchain-linux_x86_64/bin/../lib/gcc/avr32/4.4.7/../../../../avr32/lib/ucr3fp/libc.a(lib_a-memchr.o)
 .bss           0x0000000000000000        0x0 /usr/local/avr32-gnu-toolchain-linux_x86_64/bin/../lib/gcc/avr32/4.4.7/../../../../avr32/lib/ucr3fp/libc.a(lib_a-memchr.o)
 .text          0x0000000000000000        0x0 /usr/local/avr32-gnu-toolchain-linux_x86_64/bin/../lib/gcc/avr32/4.4.7/../../../../avr32/lib/ucr3fp/libc.a(lib_a-memmove.o)
 .data          0x0000000000000000        0x0 /usr/local/avr32-gnu-toolchain-linux_x86_64/bin/../lib/gcc/avr32/4.4.7/../../../../avr32/lib/ucr3fp/libc.a(lib_a-memmove.o)
 .bss           0x0000000000000000        0x0 /usr/local/avr32-gnu-toolchain-linux_x86_64/bin/../lib/gcc/avr32/4.4.7/../../../../avr32/lib/ucr3fp/libc.a(lib_a-memmove.o)
 .text          0x0000000000000000        0x0 /usr/local/avr32-gnu-toolchain-linux_x86_64/bin/../lib/gcc/avr32/4.4.7/../../../../avr32/lib/ucr3fp/libc.a(lib_a-mprec.o)
 .data          0x0000000000000000        0x0 /usr/local/avr32-gnu-toolchain-linux_x86_64/bin/../lib/gcc/avr32/4.4.7/../../../../avr32/lib/ucr3fp/libc.a(lib_a-mprec.o)
 .bss           0x0000000000000000        0x0 /usr/local/avr32-gnu-toolchain-linux_x86_64/bin/../lib/gcc/avr32/4.4.7/../../../../avr32/lib/ucr3fp/libc.a(lib_a-mprec.o)
 .text.__ulp    0x0000000000000000       0x48 /usr/local/avr32-gnu-toolchain-linux_x86_64/bin/../lib/gcc/avr32/4.4.7/../../../../avr32/lib/ucr3fp/libc.a(lib_a-mprec.o)
 .text.__b2d    0x0000000000000000       0xa0 /usr/local/avr32-gnu-toolchain-linux_x86_64/bin/../lib/gcc/avr32/4.4.7/../../../../avr32/lib/ucr3fp/libc.a(lib_a-mprec.o)
 .text.__ratio  0x0000000000000000       0x5c /usr/local/avr32-gnu-toolchain-linux_x86_64/bin/../lib/gcc/avr32/4.4.7/../../../../avr32/lib/ucr3fp/libc.a(lib_a-mprec.o)
 .text._mprec_log10
                0x0000000000000000       0x34 /usr/local/avr32-gnu-toolchain-linux_x86_64/bin/../lib/gcc/avr32/4.4.7/../../../../avr32/lib/ucr3fp/libc.a(lib_a-mprec.o)
 .text.__copybits
                0x0000000000000000       0x2e /usr/local/avr32-gnu-toolchain-linux_x86_64/bin/../lib/gcc/avr32/4.4.7/../../../../avr32/lib/ucr3fp/libc.a(lib_a-mprec.o)
 .text.__any_on
                0x0000000000000000       0x4c /usr/local/avr32-gnu-toolchain-linux_x86_64/bin/../lib/gcc/avr32/4.4.7/../../../../avr32/lib/ucr3fp/libc.a(lib_a-mprec.o)
 .text.__s2b    0x0000000000000000       0x84 /usr/local/avr32-gnu-toolchain-linux_x86_64/bin/../lib/gcc/avr32/4.4.7/../../../../avr32/lib/ucr3fp/libc.a(lib_a-mprec.o)
 .rodata.__mprec_tinytens
                0x0000000000000000       0x28 /usr/local/avr32-gnu-toolchain-linux_x86_64/bin/../lib/gcc/avr32/4.4.7/../../../../avr32/lib/ucr3fp/libc.a(lib_a-mprec.o)
 .text          0x0000000000000000        0x0 /usr/local/avr32-gnu-toolchain-linux_x86_64/bin/../lib/gcc/avr32/4.4.7/../../../../avr32/lib/ucr3fp/libc.a(lib_a-reallocr.o)
 .data          0x0000000000000000        0x0 /usr/local/avr32-gnu-toolchain-linux_x86_64/bin/../lib/gcc/avr32/4.4.7/../../../../avr32/lib/ucr3fp/libc.a(lib_a-reallocr.o)
 .bss           0x0000000000000000        0x0 /usr/local/avr32-gnu-toolchain-linux_x86_64/bin/../lib/gcc/avr32/4.4.7/../../../../avr32/lib/ucr3fp/libc.a(lib_a-reallocr.o)
 .text          0x0000000000000000        0x0 /usr/local/avr32-gnu-toolchain-linux_x86_64/bin/../lib/gcc/avr32/4.4.7/../../../../avr32/lib/ucr3fp/libc.a(lib_a-reent.o)
 .data          0x0000000000000000        0x0 /usr/local/avr32-gnu-toolchain-linux_x86_64/bin/../lib/gcc/avr32/4.4.7/../../../../avr32/lib/ucr3fp/libc.a(lib_a-reent.o)
 .bss           0x0000000000000000        0x0 /usr/local/avr32-gnu-toolchain-linux_x86_64/bin/../lib/gcc/avr32/4.4.7/../../../../avr32/lib/ucr3fp/libc.a(lib_a-reent.o)
 .text._wrapup_reent
                0x0000000000000000       0x3c /usr/local/avr32-gnu-toolchain-linux_x86_64/bin/../lib/gcc/avr32/4.4.7/../../../../avr32/lib/ucr3fp/libc.a(lib_a-reent.o)
 .text.cleanup_glue
                0x0000000000000000       0x24 /usr/local/avr32-gnu-toolchain-linux_x86_64/bin/../lib/gcc/avr32/4.4.7/../../../../avr32/lib/ucr3fp/libc.a(lib_a-reent.o)
 .text._reclaim_reent
                0x0000000000000000       0xd4 /usr/local/avr32-gnu-toolchain-linux_x86_64/bin/../lib/gcc/avr32/4.4.7/../../../../avr32/lib/ucr3fp/libc.a(lib_a-reent.o)
 .text          0x0000000000000000        0x0 /usr/local/avr32-gnu-toolchain-linux_x86_64/bin/../lib/gcc/avr32/4.4.7/../../../../avr32/lib/ucr3fp/libc.a(lib_a-s_isinfd.o)
 .data          0x0000000000000000        0x0 /usr/local/avr32-gnu-toolchain-linux_x86_64/bin/../lib/gcc/avr32/4.4.7/../../../../avr32/lib/ucr3fp/libc.a(lib_a-s_isinfd.o)
 .bss           0x0000000000000000        0x0 /usr/local/avr32-gnu-toolchain-linux_x86_64/bin/../lib/gcc/avr32/4.4.7/../../../../avr32/lib/ucr3fp/libc.a(lib_a-s_isinfd.o)
 .text          0x0000000000000000        0x0 /usr/local/avr32-gnu-toolchain-linux_x86_64/bin/../lib/gcc/avr32/4.4.7/../../../../avr32/lib/ucr3fp/libc.a(lib_a-stdio.o)
 .data          0x0000000000000000        0x0 /usr/local/avr32-gnu-toolchain-linux_x86_64/bin/../lib/gcc/avr32/4.4.7/../../../../avr32/lib/ucr3fp/libc.a(lib_a-stdio.o)
 .bss           0x0000000000000000        0x0 /usr/local/avr32-gnu-toolchain-linux_x86_64/bin/../lib/gcc/avr32/4.4.7/../../../../avr32/lib/ucr3fp/libc.a(lib_a-stdio.o)
 .text          0x0000000000000000       0xa8 /usr/local/avr32-gnu-toolchain-linux_x86_64/bin/../lib/gcc/avr32/4.4.7/../../../../avr32/lib/ucr3fp/libc.a(lib_a-strcmp.o)
 .data          0x0000000000000000        0x0 /usr/local/avr32-gnu-toolchain-linux_x86_64/bin/../lib/gcc/avr32/4.4.7/../../../../avr32/lib/ucr3fp/libc.a(lib_a-strcmp.o)
 .bss           0x0000000000000000        0x0 /usr/local/avr32-gnu-toolchain-linux_x86_64/bin/../lib/gcc/avr32/4.4.7/../../../../avr32/lib/ucr3fp/libc.a(lib_a-strcmp.o)
 .text          0x0000000000000000        0x0 /usr/local/avr32-gnu-toolchain-linux_x86_64/bin/../lib/gcc/avr32/4.4.7/../../../../avr32/lib/ucr3fp/libc.a(lib_a-writer.o)
 .data          0x0000000000000000        0x0 /usr/local/avr32-gnu-toolchain-linux_x86_64/bin/../lib/gcc/avr32/4.4.7/../../../../avr32/lib/ucr3fp/libc.a(lib_a-writer.o)
 .bss           0x0000000000000000        0x0 /usr/local/avr32-gnu-toolchain-linux_x86_64/bin/../lib/gcc/avr32/4.4.7/../../../../avr32/lib/ucr3fp/libc.a(lib_a-writer.o)
 .text          0x0000000000000000        0x0 /usr/local/avr32-gnu-toolchain-linux_x86_64/bin/../lib/gcc/avr32/4.4.7/../../../../avr32/lib/ucr3fp/libc.a(lib_a-callocr.o)
 .data          0x0000000000000000        0x0 /usr/local/avr32-gnu-toolchain-linux_x86_64/bin/../lib/gcc/avr32/4.4.7/../../../../avr32/lib/ucr3fp/libc.a(lib_a-callocr.o)
 .bss           0x0000000000000000        0x0 /usr/local/avr32-gnu-toolchain-linux_x86_64/bin/../lib/gcc/avr32/4.4.7/../../../../avr32/lib/ucr3fp/libc.a(lib_a-callocr.o)
 .text          0x0000000000000000        0x0 /usr/local/avr32-gnu-toolchain-linux_x86_64/bin/../lib/gcc/avr32/4.4.7/../../../../avr32/lib/ucr3fp/libc.a(lib_a-closer.o)
 .data          0x0000000000000000        0x0 /usr/local/avr32-gnu-toolchain-linux_x86_64/bin/../lib/gcc/avr32/4.4.7/../../../../avr32/lib/ucr3fp/libc.a(lib_a-closer.o)
 .bss           0x0000000000000000        0x0 /usr/local/avr32-gnu-toolchain-linux_x86_64/bin/../lib/gcc/avr32/4.4.7/../../../../avr32/lib/ucr3fp/libc.a(lib_a-closer.o)
 .text          0x0000000000000000        0x0 /usr/local/avr32-gnu-toolchain-linux_x86_64/bin/../lib/gcc/avr32/4.4.7/../../../../avr32/lib/ucr3fp/libc.a(lib_a-fclose.o)
 .data          0x0000000000000000        0x0 /usr/local/avr32-gnu-toolchain-linux_x86_64/bin/../lib/gcc/avr32/4.4.7/../../../../avr32/lib/ucr3fp/libc.a(lib_a-fclose.o)
 .bss           0x0000000000000000        0x0 /usr/local/avr32-gnu-toolchain-linux_x86_64/bin/../lib/gcc/avr32/4.4.7/../../../../avr32/lib/ucr3fp/libc.a(lib_a-fclose.o)
 .text          0x0000000000000000        0x0 /usr/local/avr32-gnu-toolchain-linux_x86_64/bin/../lib/gcc/avr32/4.4.7/../../../../avr32/lib/ucr3fp/libc.a(lib_a-fstatr.o)
 .data          0x0000000000000000        0x0 /usr/local/avr32-gnu-toolchain-linux_x86_64/bin/../lib/gcc/avr32/4.4.7/../../../../avr32/lib/ucr3fp/libc.a(lib_a-fstatr.o)
 .bss           0x0000000000000000        0x0 /usr/local/avr32-gnu-toolchain-linux_x86_64/bin/../lib/gcc/avr32/4.4.7/../../../../avr32/lib/ucr3fp/libc.a(lib_a-fstatr.o)
 .text          0x0000000000000000        0x0 /usr/local/avr32-gnu-toolchain-linux_x86_64/bin/../lib/gcc/avr32/4.4.7/../../../../avr32/lib/ucr3fp/libc.a(lib_a-lseekr.o)
 .data          0x0000000000000000        0x0 /usr/local/avr32-gnu-toolchain-linux_x86_64/bin/../lib/gcc/avr32/4.4.7/../../../../avr32/lib/ucr3fp/libc.a(lib_a-lseekr.o)
 .bss           0x0000000000000000        0x0 /usr/local/avr32-gnu-toolchain-linux_x86_64/bin/../lib/gcc/avr32/4.4.7/../../../../avr32/lib/ucr3fp/libc.a(lib_a-lseekr.o)
 .text          0x0000000000000000        0x0 /usr/local/avr32-gnu-toolchain-linux_x86_64/bin/../lib/gcc/avr32/4.4.7/../../../../avr32/lib/ucr3fp/libc.a(lib_a-readr.o)
 .data          0x0000000000000000        0x0 /usr/local/avr32-gnu-toolchain-linux_x86_64/bin/../lib/gcc/avr32/4.4.7/../../../../avr32/lib/ucr3fp/libc.a(lib_a-readr.o)
 .bss           0x0000000000000000        0x0 /usr/local/avr32-gnu-toolchain-linux_x86_64/bin/../lib/gcc/avr32/4.4.7/../../../../avr32/lib/ucr3fp/libc.a(lib_a-readr.o)

Memory Configuration

Name             Origin             Length             Attributes
FLASH            0x0000000080000000 0x0000000000080000 axrl !w
CPUSRAM          0x0000000000000004 0x000000000000fffc axw !rl
USERPAGE         0x0000000080800000 0x0000000000000200
FACTORYPAGE      0x0000000080800200 0x0000000000000200
FLASHVAULT_FLASH_SIZE 0x0000000080800400 0x0000000000000008 r
FLASHVAULT_RAM_SIZE 0x0000000080800408 0x0000000000000008 r
*default*        0x0000000000000000 0xffffffffffffffff

Linker script and memory map

                0x0000000000001000                _stack_size = 0x1000
LOAD ./Debug_Linux/obj/src_tasks.c.o
LOAD ./Debug_Linux/obj/src_main.cpp.o
LOAD ./Debug_Linux/obj/src_boardsupport.c.o
LOAD ./Debug_Linux/obj/src_mavlink_telemetry.c.o
LOAD ./Debug_Linux/obj/src_central_data.c.o
LOAD ./Debug_Linux/obj/communication_mavlink_stream.c.o
LOAD ./Debug_Linux/obj/communication_mavlink_waypoint_handler.c.o
LOAD ./Debug_Linux/obj/communication_onboard_parameters.c.o
LOAD ./Debug_Linux/obj/communication_mavlink_message_handler.c.o
LOAD ./Debug_Linux/obj/communication_mavlink_communication.c.o
LOAD ./Debug_Linux/obj/communication_console.c.o
LOAD ./Debug_Linux/obj/communication_state.c.o
LOAD ./Debug_Linux/obj/communication_hud.c.o
LOAD ./Debug_Linux/obj/communication_remote.c.o
LOAD ./Debug_Linux/obj/communication_state_machine.c.o
LOAD ./Debug_Linux/obj/communication_data_logging.c.o
LOAD ./Debug_Linux/obj/control_pid_control.c.o
LOAD ./Debug_Linux/obj/control_navigation.c.o
LOAD ./Debug_Linux/obj/control_stabilisation_copter.c.o
LOAD ./Debug_Linux/obj/control_adaptive_parameter.c.o
LOAD ./Debug_Linux/obj/control_stabilisation.c.o
LOAD ./Debug_Linux/obj/control_attitude_error_estimator.c.o
LOAD ./Debug_Linux/obj/control_attitude_controller_p2.c.o
LOAD ./Debug_Linux/obj/control_servos_mix_quadcopter_cross.c.o
LOAD ./Debug_Linux/obj/control_joystick_parsing.c.o
LOAD ./Debug_Linux/obj/control_servos_mix_quadcopter_diag.c.o
LOAD ./Debug_Linux/obj/hal_adxl345_driver.c.o
LOAD ./Debug_Linux/obj/hal_bmp085.c.o
LOAD ./Debug_Linux/obj/hal_time_keeper.c.o
LOAD ./Debug_Linux/obj/hal_uart_int.c.o
LOAD ./Debug_Linux/obj/hal_radar_driver.c.o
LOAD ./Debug_Linux/obj/hal_radar_module_driver.c.o
LOAD ./Debug_Linux/obj/hal_led.c.o
LOAD ./Debug_Linux/obj/hal_spi_buffered.c.o
LOAD ./Debug_Linux/obj/hal_adc_int.c.o
LOAD ./Debug_Linux/obj/hal_dac_dma.c.o
LOAD ./Debug_Linux/obj/hal_ads1274.c.o
LOAD ./Debug_Linux/obj/hal_analog_monitor.c.o
LOAD ./Debug_Linux/obj/hal_i2c_driver_int.c.o
LOAD ./Debug_Linux/obj/hal_piezo_speaker.c.o
LOAD ./Debug_Linux/obj/hal_i2cxl_sonar.c.o
LOAD ./Debug_Linux/obj/hal_airspeed_analog.c.o
LOAD ./Debug_Linux/obj/hal_gps_ublox.c.o
LOAD ./Debug_Linux/obj/hal_xbee.c.o
LOAD ./Debug_Linux/obj/hal_hmc5883l.c.o
LOAD ./Debug_Linux/obj/hal_itg3200.c.o
LOAD ./Debug_Linux/obj/hal_lsm330dlc.c.o
LOAD ./Debug_Linux/obj/hal_spektrum_satellite.c.o
LOAD ./Debug_Linux/obj/hal_servos.c.o
LOAD ./Debug_Linux/obj/hal_pwm_servos.c.o
LOAD ./Debug_Linux/obj/hal_sd_spi.c.o
LOAD ./Debug_Linux/obj/hal_usb_int.c.o
LOAD ./Debug_Linux/obj/runtime_scheduler.c.o
LOAD ./Debug_Linux/obj/sensing_imu.c.o
LOAD ./Debug_Linux/obj/sensing_position_estimation.c.o
LOAD ./Debug_Linux/obj/sensing_qfilter.c.o
LOAD ./Debug_Linux/obj/sensing_simulation.c.o
LOAD ./Debug_Linux/obj/sensing_ahrs.c.o
LOAD ./Debug_Linux/obj/util_linear_algebra.c.o
LOAD ./Debug_Linux/obj/util_coord_conventions.c.o
LOAD ./Debug_Linux/obj/util_sinus.c.o
LOAD ./Debug_Linux/obj/util_print_util.c.o
LOAD ./Debug_Linux/obj/util_buffer.c.o
LOAD ./Debug_Linux/obj/util_kalman.c.o
LOAD ./Debug_Linux/obj/util_quick_trig.c.o
LOAD ./Debug_Linux/obj/util_generator.c.o
LOAD ./Debug_Linux/obj/util_matrixlib_float.c.o
LOAD ./Debug_Linux/obj/fat_fs_diskio.c.o
LOAD ./Debug_Linux/obj/fat_fs_ff.c.o
LOAD ./Debug_Linux/obj/option_cc932.c.o
LOAD ./Debug_Linux/obj/option_syscall.c.o
LOAD ./Debug_Linux/obj/option_unicode.c.o
LOAD ./Debug_Linux/obj/user_board_init.c.o
LOAD ./Debug_Linux/obj/stdio_read.c.o
LOAD ./Debug_Linux/obj/stdio_write.c.o
LOAD ./Debug_Linux/obj/pm_power_clocks_lib.c.o
LOAD ./Debug_Linux/obj/pm_pm_uc3c.c.o
LOAD ./Debug_Linux/obj/adcifa_adcifa.c.o
LOAD ./Debug_Linux/obj/usart_usart.c.o
LOAD ./Debug_Linux/obj/twim_twim.c.o
LOAD ./Debug_Linux/obj/intc_intc.c.o
LOAD ./Debug_Linux/obj/intc_exception.S.o
LOAD ./Debug_Linux/obj/ast_ast.c.o
LOAD ./Debug_Linux/obj/pevc_pevc.c.o
LOAD ./Debug_Linux/obj/tc_tc.c.o
LOAD ./Debug_Linux/obj/spi_spi.c.o
LOAD ./Debug_Linux/obj/pdca_pdca.c.o
LOAD ./Debug_Linux/obj/eic_eic.c.o
LOAD ./Debug_Linux/obj/dacifb_dacifb.c.o
LOAD ./Debug_Linux/obj/pwm_pwm4.c.o
LOAD ./Debug_Linux/obj/flashc_flashc.c.o
LOAD ./Debug_Linux/obj/gpio_gpio.c.o
LOAD ./Debug_Linux/obj/scif_scif_uc3c.c.o
LOAD ./Debug_Linux/obj/usbc_usbc_device.c.o
LOAD ./Debug_Linux/obj/startup_startup_uc3.S.o
LOAD ./Debug_Linux/obj/startup_trampoline_uc3.S.o
LOAD ./Debug_Linux/obj/delay_delay.c.o
LOAD ./Debug_Linux/obj/stdio_usb_stdio_usb.c.o
LOAD ./Debug_Linux/obj/uc3_sleepmgr.c.o
LOAD ./Debug_Linux/obj/uc3_spi_spi_master.c.o
LOAD ./Debug_Linux/obj/uc3c_pll.c.o
LOAD ./Debug_Linux/obj/uc3c_osc.c.o
LOAD ./Debug_Linux/obj/uc3c_sysclk.c.o
LOAD ./Debug_Linux/obj/udc_udc.c.o
LOAD ./Debug_Linux/obj/device_udi_cdc.c.o
LOAD ./Debug_Linux/obj/device_udi_cdc_desc.c.o
START GROUP
END GROUP
LOAD /usr/local/avr32-gnu-toolchain-linux_x86_64/bin/../lib/gcc/avr32/4.4.7/ucr3fp/libstdc++.a
LOAD /usr/local/avr32-gnu-toolchain-linux_x86_64/bin/../lib/gcc/avr32/4.4.7/../../../../avr32/lib/ucr3fp/libm.a
LOAD /usr/local/avr32-gnu-toolchain-linux_x86_64/bin/../lib/gcc/avr32/4.4.7/ucr3fp/libgcc.a
LOAD /usr/local/avr32-gnu-toolchain-linux_x86_64/bin/../lib/gcc/avr32/4.4.7/../../../../avr32/lib/ucr3fp/libc.a
LOAD /usr/local/avr32-gnu-toolchain-linux_x86_64/bin/../lib/gcc/avr32/4.4.7/ucr3fp/libgcc.a
                0x0000000080000000                PROVIDE (__executable_start, 0x80000000)
                0x0000000080000000                . = 0x80000000

.interp
 *(.interp)

.reset          0x0000000080000000     0x2008
 *(.reset)
 .reset         0x0000000080000000     0x2008 ./Debug_Linux/obj/startup_trampoline_uc3.S.o
                0x0000000080000000                _trampoline

.hash
 *(.hash)

.dynsym
 *(.dynsym)

.dynstr
 *(.dynstr)

.gnu.version
 *(.gnu.version)

.gnu.version_d
 *(.gnu.version_d)

.gnu.version_r
 *(.gnu.version_r)

.rel.init
 *(.rel.init)

.rela.init
 *(.rela.init)

.rel.text
 *(.rel.text .rel.text.* .rel.gnu.linkonce.t.*)

.rela.text
 *(.rela.text .rela.text.* .rela.gnu.linkonce.t.*)

.rel.fini
 *(.rel.fini)

.rela.fini
 *(.rela.fini)

.rel.rodata
 *(.rel.rodata .rel.rodata.* .rel.gnu.linkonce.r.*)

.rela.rodata
 *(.rela.rodata .rela.rodata.* .rela.gnu.linkonce.r.*)

.rel.data.rel.ro
 *(.rel.data.rel.ro*)

.rela.data.rel.ro
 *(.rel.data.rel.ro*)

.rel.data
 *(.rel.data .rel.data.* .rel.gnu.linkonce.d.*)

.rela.data
 *(.rela.data .rela.data.* .rela.gnu.linkonce.d.*)

.rel.tdata
 *(.rel.tdata .rel.tdata.* .rel.gnu.linkonce.td.*)

.rela.tdata
 *(.rela.tdata .rela.tdata.* .rela.gnu.linkonce.td.*)

.rel.tbss
 *(.rel.tbss .rel.tbss.* .rel.gnu.linkonce.tb.*)

.rela.tbss
 *(.rela.tbss .rela.tbss.* .rela.gnu.linkonce.tb.*)

.rel.ctors
 *(.rel.ctors)

.rela.ctors
 *(.rela.ctors)

.rel.dtors
 *(.rel.dtors)

.rela.dtors
 *(.rela.dtors)

.rel.got
 *(.rel.got)

.rela.got       0x0000000080002008        0x0
 *(.rela.got)
 .rela.got      0x0000000080002008        0x0 ./Debug_Linux/obj/hal_gps_ublox.c.o

.rel.bss
 *(.rel.bss .rel.bss.* .rel.gnu.linkonce.b.*)

.rela.bss
 *(.rela.bss .rela.bss.* .rela.gnu.linkonce.b.*)

.rel.plt
 *(.rel.plt)

.rela.plt
 *(.rela.plt)

.init
 *(.init)

.plt
 *(.plt)

.text           0x0000000080002008    0x34974
 *(.text .stub .text.* .gnu.linkonce.t.*)
 .text          0x0000000080002008      0x6ec ./Debug_Linux/obj/src_tasks.c.o
                                        0x7a0 (size before relaxing)
                0x0000000080002008                tasks_get_main_taskset
                0x0000000080002024                tasks_create_tasks
                0x00000000800021a8                tasks_led_toggle
                0x00000000800021b8                tasks_run_barometer_update
                0x00000000800021e8                tasks_run_gps_update
                0x0000000080002218                tasks_run_imu_update
                0x0000000080002284                tasks_run_stabilisation
                0x00000000800025a4                tasks_run_stabilisation_quaternion
 .text          0x00000000800026f4       0x68 ./Debug_Linux/obj/src_main.cpp.o
                                         0x98 (size before relaxing)
                0x00000000800026f4                _Z14initialisationv
                0x0000000080002740                main
 .text          0x000000008000275c      0x178 ./Debug_Linux/obj/src_boardsupport.c.o
                                        0x1dc (size before relaxing)
                0x000000008000275c                boardsupport_init
 .text          0x00000000800028d4      0x970 ./Debug_Linux/obj/src_mavlink_telemetry.c.o
                                        0x9b0 (size before relaxing)
                0x00000000800028d4                mavlink_telemetry_add_data_logging_parameters
                0x0000000080002970                mavlink_telemetry_add_onboard_parameters
                0x0000000080002f2c                mavlink_telemetry_init
 .text          0x0000000080003244      0x4ec ./Debug_Linux/obj/src_central_data.c.o
                                        0x55c (size before relaxing)
                0x0000000080003244                central_data_get_pointer_to_struct
                0x0000000080003254                central_data_init
 .text          0x0000000080003730      0x2dc ./Debug_Linux/obj/communication_mavlink_stream.c.o
                                        0x2e4 (size before relaxing)
                0x0000000080003730                mavlink_stream_init
                0x0000000080003758                mavlink_stream_flush
                0x000000008000376e                mavlink_stream_receive
                0x00000000800039c4                mavlink_stream_send
 .text          0x0000000080003a0c     0x30ec ./Debug_Linux/obj/communication_mavlink_waypoint_handler.c.o
                                       0x3240 (size before relaxing)
                0x0000000080003a94                waypoint_handler_init_homing_waypoint
                0x0000000080003adc                waypoint_handler_control_time_out_waypoint_msg
                0x0000000080003b9c                waypoint_handler_init_waypoint_list
                0x0000000080003ce4                waypoint_handler_set_waypoint_from_frame
                0x0000000080004158                waypoint_handler_nav_plan_init
                0x0000000080004338                waypoint_handler_init
 .text          0x0000000080006af8      0xaf0 ./Debug_Linux/obj/communication_onboard_parameters.c.o
                                        0xb60 (size before relaxing)
                0x0000000080006b24                onboard_parameters_read_parameters_from_flashc
                0x0000000080006be0                onboard_parameters_write_parameters_to_flashc
                0x0000000080006d6c                onboard_parameters_add_parameter_float
                0x0000000080006de0                onboard_parameters_add_parameter_int32
                0x0000000080006e54                onboard_parameters_add_parameter_uint32
                0x0000000080006ec8                onboard_parameters_init
                0x00000000800072dc                onboard_parameters_preflight_storage
 .text          0x00000000800075e8      0x58c ./Debug_Linux/obj/communication_mavlink_message_handler.c.o
                                        0x5b8 (size before relaxing)
                0x00000000800075e8                mavlink_message_handler_add_cmd_callback
                0x000000008000763c                mavlink_message_handler_add_msg_callback
                0x0000000080007694                mavlink_message_handler_cmd_default_dbg
                0x000000008000775c                mavlink_message_handler_msg_default_dbg
                0x00000000800077c0                mavlink_message_handler_receive
                0x0000000080007b00                mavlink_message_handler_init
 .text          0x0000000080007b74      0x1fc ./Debug_Linux/obj/communication_mavlink_communication.c.o
                                        0x240 (size before relaxing)
                0x0000000080007b74                mavlink_communication_suspend_downstream
                0x0000000080007bb0                mavlink_communication_update
                0x0000000080007bf8                mavlink_communication_init
 .text          0x0000000080007d70      0x110 ./Debug_Linux/obj/communication_console.c.o
                                        0x140 (size before relaxing)
                0x0000000080007d70                console_get_in_stream
                0x0000000080007d80                console_get_out_stream
                0x0000000080007d90                console_init
 .text          0x0000000080007e80      0x5d4 ./Debug_Linux/obj/communication_state.c.o
                                        0x5f0 (size before relaxing)
                0x0000000080007e80                state_send_status
                0x000000008000805c                state_init
                0x00000000800081bc                state_send_heartbeat
 .text          0x0000000080008454      0x23c ./Debug_Linux/obj/communication_hud.c.o
                                        0x258 (size before relaxing)
                0x0000000080008454                hud_send_message
                0x0000000080008674                hud_init
 .text          0x0000000080008690      0xaa0 ./Debug_Linux/obj/communication_remote.c.o
                                        0xab4 (size before relaxing)
                0x0000000080008690                remote_check
                0x000000008000869c                remote_calibrate
                0x00000000800086bc                remote_get_throttle
                0x00000000800086c8                remote_get_roll
                0x00000000800086d4                remote_get_pitch
                0x00000000800086e0                remote_get_yaw
                0x00000000800086ec                remote_mode_init
                0x000000008000873a                remote_mode_update
                0x00000000800088de                remote_mode_get
                0x00000000800088ec                remote_update
                0x0000000080008b64                remote_init
                0x0000000080008c6c                remote_send_raw
                0x0000000080008ec4                remote_send_scaled
 .text          0x0000000080009130      0x13c ./Debug_Linux/obj/communication_state_machine.c.o
                                        0x158 (size before relaxing)
                0x0000000080009130                state_machine_init
                0x000000008000915c                state_machine_update
 .text          0x000000008000926c     0x1034 ./Debug_Linux/obj/communication_data_logging.c.o
                                       0x10f4 (size before relaxing)
                0x000000008000926c                data_logging_add_parameter_double
                0x00000000800092b8                data_logging_add_parameter_float
                0x0000000080009304                data_logging_add_parameter_int64
                0x0000000080009350                data_logging_add_parameter_uint64
                0x000000008000939c                data_logging_add_parameter_int32
                0x00000000800093e8                data_logging_add_parameter_uint32
                0x0000000080009434                data_logging_add_parameter_int16
                0x0000000080009480                data_logging_add_parameter_uint16
                0x00000000800094cc                data_logging_add_parameter_int8
                0x0000000080009518                data_logging_add_parameter_uint8
                0x00000000800096a4                data_logging_create_new_log_file
                0x000000008000985c                data_logging_init
                0x0000000080009968                data_logging_run
 .text          0x000000008000a2a0      0x230 ./Debug_Linux/obj/control_pid_control.c.o
                                        0x248 (size before relaxing)
                0x000000008000a2a0                pid_control_reset_integrator
                0x000000008000a2ae                pid_control_update_dt
                0x000000008000a380                pid_control_pass_through_controller
                0x000000008000a3cc                pid_control_update
 .text          0x000000008000a4d0     0x1278 ./Debug_Linux/obj/control_navigation.c.o
                                       0x1320 (size before relaxing)
                0x000000008000a4d0                navigation_critical_handler
                0x000000008000a620                navigation_waypoint_take_off_init
                0x000000008000a734                navigation_waypoint_hold_init
                0x000000008000a804                navigation_hold_position_handler
                0x000000008000a898                navigation_waypoint_take_off_handler
                0x000000008000ad44                navigation_init
                0x000000008000af7c                navigation_waypoint_navigation_handler
                0x000000008000b524                navigation_update
 .text          0x000000008000b748      0x8f8 ./Debug_Linux/obj/control_stabilisation_copter.c.o
                                        0x92c (size before relaxing)
                0x000000008000b748                stabilisation_copter_mix_to_servos_cross_quad
                0x000000008000b864                stabilisation_copter_mix_to_servos_diag_quad
                0x000000008000b994                stabilisation_copter_init
                0x000000008000ba0c                stabilisation_copter_cascade_stabilise
 .text          0x000000008000c040      0x50c ./Debug_Linux/obj/control_stabilisation.c.o
                                        0x52c (size before relaxing)
                0x000000008000c040                stabilisation_run
                0x000000008000c08c                stabilisation_init
                0x000000008000c0c0                stabilisation_send_rpy_rates_error
                0x000000008000c244                stabilisation_send_rpy_thrust_setpoint
                0x000000008000c3c4                stabilisation_send_rpy_speed_thrust_setpoint
 .text          0x000000008000c54c      0x294 ./Debug_Linux/obj/control_attitude_error_estimator.c.o
                                        0x29c (size before relaxing)
                0x000000008000c54c                attitude_error_estimator_init
                0x000000008000c56c                attitude_error_estimator_set_quat_ref
                0x000000008000c58a                attitude_error_estimator_set_quat_ref_from_rpy
                0x000000008000c5d8                attitude_error_estimator_set_quat_ref_from_aero
                0x000000008000c614                attitude_error_estimator_update
 .text          0x000000008000c7e0       0xb8 ./Debug_Linux/obj/control_attitude_controller_p2.c.o
                                         0xd4 (size before relaxing)
                0x000000008000c7e0                attitude_controller_p2_update
                0x000000008000c864                attitude_controller_p2_init
 .text          0x000000008000c898      0x7cc ./Debug_Linux/obj/control_joystick_parsing.c.o
                                        0x800 (size before relaxing)
                0x000000008000c898                joystick_parsing_button
                0x000000008000c8b4                joystick_parsing_get_velocity_vector_from_joystick
                0x000000008000c940                joystick_parsing_get_attitude_command_from_joystick
                0x000000008000c9b4                joystick_parsing_send_manual_ctrl_msg
                0x000000008000cd00                joystick_parsing_init
                0x000000008000cd6c                joystick_parsing_button_1
                0x000000008000cde0                joystick_parsing_button_mask
                0x000000008000cee4                joystick_parsing_parse_msg
 .text          0x000000008000d064      0x16c ./Debug_Linux/obj/control_servos_mix_quadcopter_diag.c.o
                                        0x170 (size before relaxing)
                0x000000008000d064                servo_mix_quadcotper_diag_init
                0x000000008000d09c                servos_mix_quadcopter_diag_update
 .text          0x000000008000d1d0      0x7dc ./Debug_Linux/obj/hal_bmp085.c.o
                                        0x834 (size before relaxing)
                0x000000008000d1d0                bmp085_reset_origin_altitude
                0x000000008000d1ec                bmp085_send_pressure
                0x000000008000d34c                bmp085_update
                0x000000008000d6c8                bmp085_init_slow
                0x000000008000d990                bmp085_init
 .text          0x000000008000d9ac       0xf8 ./Debug_Linux/obj/hal_time_keeper.c.o
                                        0x134 (size before relaxing)
                0x000000008000d9ac                time_keeper_ticks_to_seconds
                0x000000008000d9cc                time_keeper_get_time_ticks
                0x000000008000d9e0                time_keeper_init
                0x000000008000da00                time_keeper_delay_until
                0x000000008000da1c                time_keeper_get_millis
                0x000000008000da40                time_keeper_delay_micros
                0x000000008000da64                time_keeper_get_time
                0x000000008000da90                time_keeper_get_micros
 .text          0x000000008000daa4      0x54c ./Debug_Linux/obj/hal_uart_int.c.o
                                        0x5d0 (size before relaxing)
                0x000000008000daa4                uart_int_set_usart_conf
                0x000000008000db24                uart_int_get_uart_handle
                0x000000008000db40                uart_int_register_write_stream
                0x000000008000db64                uart_int_register_read_stream
                0x000000008000db72                uart_out_buffer_empty
                0x000000008000db84                uart_int_flush
                0x000000008000dba4                uart_int_send_byte
                0x000000008000dbcc                uart_int_bytes_available
                0x000000008000dbe0                uart_int_get_byte
                0x000000008000dbf4                register_UART_handler
                0x000000008000decc                uart_int_init
 .text          0x000000008000dff0      0x304 ./Debug_Linux/obj/hal_led.c.o
                0x000000008000dff0                LED_Read_Display
                0x000000008000e004                LED_Display
                0x000000008000e098                LED_Read_Display_Mask
                0x000000008000e0ac                LED_Test
                0x000000008000e0c4                LED_Get_Intensity
                0x000000008000e0ce                LED_Set_Intensity
                0x000000008000e0d8                LED_Read_Display_Field
                0x000000008000e0f8                LED_Toggle
                0x000000008000e14c                LED_Off
                0x000000008000e1a0                LED_On
                0x000000008000e1f8                LED_Display_Mask
                0x000000008000e270                LED_Display_Field
 .text          0x000000008000e2f4      0x8a4 ./Debug_Linux/obj/hal_spi_buffered.c.o
                                        0x910 (size before relaxing)
                0x000000008000e2f4                spi_buffered_get_spi_in_buffer
                0x000000008000e310                spi_buffered_set_callback
                0x000000008000e32c                spi_buffered_pause
                0x000000008000e348                spi_buffered_activate_receive
                0x000000008000e364                spi_buffered_deactivate_receive
                0x000000008000e380                spi_buffered_clear_read_buffer
                0x000000008000e39c                spi_buffered_get_traffic
                0x000000008000e3b8                spi_buffered_read
                0x000000008000e3f0                spi_buffered_is_transfered_finished
                0x000000008000e414                spi_buffered_bytes_available
                0x000000008000e438                spi_buffered_transmit
                0x000000008000e49c                spi_buffered_disable
                0x000000008000e4bc                spi_buffered_enable
                0x000000008000e4dc                spi_buffered_trigger_DMA
                0x000000008000e544                spi_buffered_init_DMA
                0x000000008000e5ec                spi_buffered_init
                0x000000008000e6cc                spi_buffered_start
                0x000000008000e748                spi_buffered_flush_buffer
                0x000000008000e7fc                spi_handler
                0x000000008000e8c8                spi1_int_handler
                0x000000008000e99c                spi_buffered_resume
                0x000000008000ea24                spi0_int_handler
                0x000000008000eaf4                spi_buffered_write
 .text          0x000000008000eb98      0x3d0 ./Debug_Linux/obj/hal_adc_int.c.o
                                        0x400 (size before relaxing)
                0x000000008000eb98                adc_int_clear_sequencer
                0x000000008000ebb8                adc_int_sequencer_add
                0x000000008000ec20                adc_int_sampling_complete
                0x000000008000ec48                adc_int_get_sample
                0x000000008000ec60                adc_int_get_buffer
                0x000000008000ec70                adc_int_get_sampling_status
                0x000000008000ec84                adc_int_get_period
                0x000000008000ec98                adc_int_stop_sampling
                0x000000008000ecb0                adc_int_start_sampling
                0x000000008000ed5c                adc_int_init
 .text          0x000000008000ef68      0x268 ./Debug_Linux/obj/hal_dac_dma.c.o
                                        0x2c0 (size before relaxing)
                0x000000008000ef68                DAC_pause
                0x000000008000ef72                DAC_resume
                0x000000008000ef7c                DAC_is_finished
                0x000000008000ef86                dac_dma_set_value
                0x000000008000ef9c                dac_dma_play
                0x000000008000f040                dac_dma_init
                0x000000008000f0ec                init_gclk
                0x000000008000f108                init_pevc
                0x000000008000f134                dac_dma_load_buffer
 .text          0x000000008000f1d0      0x2c4 ./Debug_Linux/obj/hal_ads1274.c.o
                                        0x304 (size before relaxing)
                0x000000008000f1d0                get_interrupt_counter
                0x000000008000f1e4                ads1274_set_DAC_generator_function
                0x000000008000f1f8                get_sample
                0x000000008000f218                get_sampling_status
                0x000000008000f22c                ads1274_ADC_switch_channel
                0x000000008000f236                ads1274_ADC_set_mode
                0x000000008000f240                ads1274_ADC_start_oneshot
                0x000000008000f254                eic_nmi_handler
                0x000000008000f27c                ads1274_ADC_switch_clock
                0x000000008000f2c0                process_data
                0x000000008000f3ac                ads1274_init_DAC
 .text          0x000000008000f494      0xa00 ./Debug_Linux/obj/hal_analog_monitor.c.o
                                        0xa18 (size before relaxing)
                0x000000008000f494                analog_compute_avg
                0x000000008000f52c                trigger_analog_monitor
                0x000000008000f544                analog_monitor_init
                0x000000008000f814                analog_monitor_update
 .text          0x000000008000fe94      0x284 ./Debug_Linux/obj/hal_i2c_driver_int.c.o
                                        0x29c (size before relaxing)
                0x000000008000ff5c                i2c_driver_trigger_request
                0x0000000080010010                i2c_driver_reset
                0x000000008001007a                i2c_driver_init
 .text          0x0000000080010118      0x334 ./Debug_Linux/obj/hal_piezo_speaker.c.o
                                        0x3cc (size before relaxing)
                0x0000000080010118                piezo_speaker_init_binary
                0x0000000080010140                piezo_speaker_init
                0x0000000080010178                piezo_speaker_beep
                0x0000000080010200                piezo_speaker_mario_melody
                0x0000000080010270                piezo_speaker_star_wars
                0x0000000080010398                piezo_speaker_critical_error_melody
                0x00000000800103c0                piezo_speaker_quick_startup
                0x00000000800103e0                piezo_speaker_startup_melody
 .text          0x000000008001044c     0x1e20 ./Debug_Linux/obj/hal_gps_ublox.c.o
                                       0x1e88 (size before relaxing)
                0x00000000800104a4                gps_ublox_init
                0x000000008001084c                gps_ublox_configure_gps
                0x0000000080010928                gps_ublox_update
                0x0000000080011e58                gps_ublox_send_raw
 .text          0x000000008001226c       0xb8 ./Debug_Linux/obj/hal_xbee.c.o
                                         0xd4 (size before relaxing)
                0x000000008001226c                xbee_get_in_stream
                0x000000008001227c                xbee_get_out_stream
                0x000000008001228c                xbee_init
 .text          0x0000000080012324       0x98 ./Debug_Linux/obj/hal_hmc5883l.c.o
                                         0xac (size before relaxing)
                0x0000000080012324                hmc5883l_update
                0x0000000080012378                hmc5883l_init_slow
 .text          0x00000000800123bc      0x2d8 ./Debug_Linux/obj/hal_lsm330dlc.c.o
                                        0x308 (size before relaxing)
                0x00000000800123bc                lsm330dlc_init
                0x0000000080012490                lsm330dlc_acc_update
                0x0000000080012584                lsm330dlc_gyro_update
 .text          0x0000000080012694      0x510 ./Debug_Linux/obj/hal_spektrum_satellite.c.o
                                        0x564 (size before relaxing)
                0x0000000080012694                spektrum_satellite_get_pointer
                0x00000000800126a4                spektrum_satellite_get_channel
                0x00000000800126bc                spektrum_satellite_get_neutral
                0x00000000800129bc                spektrum_satellite_switch_off
                0x00000000800129d4                spektrum_satellite_switch_on
                0x00000000800129ec                spektrum_satellite_bind
                0x0000000080012b0c                spektrum_satellite_init
 .text          0x0000000080012ba4      0x3ac ./Debug_Linux/obj/hal_servos.c.o
                                        0x3b8 (size before relaxing)
                0x0000000080012ba4                servos_set_value
                0x0000000080012bfa                servos_set_value_failsafe
                0x0000000080012c1e                servos_mavlink_send
                0x0000000080012e78                servos_init
 .text          0x0000000080012f50      0x254 ./Debug_Linux/obj/hal_pwm_servos.c.o
                                        0x258 (size before relaxing)
                0x0000000080012f50                write_channels
                0x0000000080012f9a                pwm_servos_init
                0x0000000080013074                pwm_servos_write_to_hardware
 .text          0x00000000800131a4     0x259c ./Debug_Linux/obj/hal_sd_spi.c.o
                                       0x2740 (size before relaxing)
                0x00000000800131a4                sd_spi_get_sector_count
                0x00000000800131c0                sd_spi_get_sector_size
                0x00000000800131d0                sd_spi_get_block_size
                0x000000008001321c                sd_spi_get_capacity
                0x0000000080013360                sd_spi_wait_not_busy
                0x0000000080013644                sd_spi_write_given_sector_from_ram
                0x00000000800137f8                sd_mmc_spi_read_open_PDCA
                0x00000000800138dc                sd_spi_read_sector_to_ram_pcda
                0x0000000080013a00                sd_spi_read_given_sector_to_ram
                0x0000000080013b40                sd_mmc_spi_read_sector_to_ram
                0x0000000080013db8                sd_spi_reset_card
                0x0000000080013e58                sd_spi_write_sector_from_ram
                0x0000000080013fac                sd_spi_init
                0x0000000080014a50                sd_spi_mem_check
                0x0000000080014cfc                sd_spi_test
                0x0000000080015224                sd_spi_status
                0x0000000080015498                is_sd_spi_write_pwd_locked
 .text          0x0000000080015740       0x94 ./Debug_Linux/obj/hal_usb_int.c.o
                                         0xa4 (size before relaxing)
                0x0000000080015740                usb_int_set_usb_conf
                0x000000008001575c                usb_int_get_usb_handle
                0x000000008001576c                usb_int_register_write_stream
                0x0000000080015788                usb_int_register_read_stream
                0x0000000080015794                usb_int_send_byte
                0x00000000800157c0                usb_int_init
 .text          0x00000000800157d4      0xcdc ./Debug_Linux/obj/runtime_scheduler.c.o
                                        0xd10 (size before relaxing)
                0x00000000800157d4                scheduler_sort_tasks
                0x0000000080015908                scheduler_get_task_by_id
                0x000000008001594c                scheduler_get_task_by_index
                0x000000008001596e                scheduler_change_run_mode
                0x000000008001597a                scheduler_run_task_now
                0x0000000080015998                scheduler_suspend_task
                0x00000000800159b0                scheduler_update
                0x0000000080015b14                scheduler_add_task
                0x0000000080015bb0                scheduler_init
                0x0000000080015c00                scheduler_change_task_period
                0x0000000080015c18                scheduler_send_rt_stats
 .text          0x00000000800164b0      0x880 ./Debug_Linux/obj/sensing_imu.c.o
                                        0x89c (size before relaxing)
                0x00000000800164b0                imu_send_raw
                0x0000000080016714                imu_init
                0x0000000080016814                imu_update
                0x0000000080016a2c                imu_calibrate_gyros
                0x0000000080016aa8                imu_send_scaled
 .text          0x0000000080016d30     0x1010 ./Debug_Linux/obj/sensing_position_estimation.c.o
                                       0x107c (size before relaxing)
                0x0000000080016d30                position_estimation_reset_home_altitude
                0x0000000080016f8c                position_estimation_send_global_position
                0x0000000080017244                position_estimation_init
                0x00000000800173dc                position_estimation_send_position
                0x0000000080017958                position_estimation_update
 .text          0x0000000080017d40      0xa64 ./Debug_Linux/obj/sensing_qfilter.c.o
                                        0xa74 (size before relaxing)
                0x0000000080017d40                qfilter_init
                0x0000000080017d88                qfilter_update
 .text          0x00000000800187a4     0x266c ./Debug_Linux/obj/sensing_simulation.c.o
                                       0x272c (size before relaxing)
                0x00000000800187a4                forces_from_servos_cross_quad
                0x00000000800187ae                simulation_calib_set
                0x00000000800188bc                simulation_send_state
                0x0000000080018d4c                simulation_switch_from_simulation_to_reality
                0x000000008001902c                simulation_fake_gps_fix
                0x00000000800190f0                simulation_simulate_gps
                0x000000008001917c                simulation_simulate_barometer
                0x00000000800191ac                simulation_send_quaternions
                0x0000000080019674                simulation_switch_from_reality_to_simulation
                0x000000008001979c                simulation_init
                0x00000000800199e8                forces_from_servos_diag_quad
                0x000000008001a080                simulation_update
 .text          0x000000008001ae10      0x438 ./Debug_Linux/obj/sensing_ahrs.c.o
                                        0x450 (size before relaxing)
                0x000000008001ae10                ahrs_init
                0x000000008001ae52                ahrs_send_attitude_quaternion
                0x000000008001b05c                ahrs_send_attitude
 .text          0x000000008001b248      0x41c ./Debug_Linux/obj/util_coord_conventions.c.o
                                        0x470 (size before relaxing)
                0x000000008001b248                coord_conventions_get_yaw
                0x000000008001b2a0                coord_conventions_quaternion_from_aero
                0x000000008001b34c                coord_conventions_quat_to_aero
                0x000000008001b444                coord_conventions_local_to_global_position
                0x000000008001b520                coord_conventions_global_to_local_position
 .text          0x000000008001b664      0x998 ./Debug_Linux/obj/util_print_util.c.o
                                        0x9d8 (size before relaxing)
                0x000000008001b664                print_util_get_debug_stream
                0x000000008001b678                print_util_dbg_print_init
                0x000000008001b68c                print_util_putstring
                0x000000008001b6ba                print_util_putdigit
                0x000000008001b6e8                print_util_putnum
                0x000000008001b774                print_util_putlong
                0x000000008001b840                putnum_tight
                0x000000008001b8d0                print_util_dbg_print
                0x000000008001b904                print_util_putfloat
                0x000000008001ba60                print_util_print_matrix
                0x000000008001bb5c                print_util_dbg_putfloat
                0x000000008001bb74                print_util_print_vector
                0x000000008001bc08                print_util_print_quaternion
                0x000000008001bcfc                print_util_dbg_print_quaternion
                0x000000008001bd14                print_util_dbg_print_vector
                0x000000008001bdb0                print_util_dbg_print_num
                0x000000008001be40                print_util_dbg_print_long
                0x000000008001bf18                print_util_dbg_log_value
 .text          0x000000008001bffc      0x190 ./Debug_Linux/obj/util_buffer.c.o
                                        0x198 (size before relaxing)
                0x000000008001bffc                buffer_full
                0x000000008001c018                buffer_put_lossy
                0x000000008001c064                buffer_put
                0x000000008001c0b0                buffer_get
                0x000000008001c0e0                buffer_empty
                0x000000008001c0f8                buffer_bytes_available
                0x000000008001c114                buffer_init
                0x000000008001c12c                buffer_clear
                0x000000008001c144                buffer_make_buffered_stream
                0x000000008001c168                buffer_make_buffered_stream_lossy
 .text          0x000000008001c18c      0xda4 ./Debug_Linux/obj/util_quick_trig.c.o
                                        0xe10 (size before relaxing)
                0x000000008001c220                quick_trig_tan
                0x000000008001c510                quick_trig_sin
                0x000000008001ca28                quick_trig_cos
                0x000000008001cb18                quick_trig_atan
                0x000000008001ccf0                quick_trig_acos
                0x000000008001ce54                quick_trig_asin
 .text          0x000000008001cf30      0xfdc ./Debug_Linux/obj/fat_fs_diskio.c.o
                                       0x1078 (size before relaxing)
                0x000000008001cf30                diskio_open_append
                0x000000008001cf60                get_fattime
                0x000000008001cffc                disk_ioctl
                0x000000008001d060                disk_write
                0x000000008001d0a8                disk_read
                0x000000008001d0e4                disk_status
                0x000000008001d118                disk_initialize
                0x000000008001d140                diskio_test_fatfs
                0x000000008001d2d0                diskio_test
                0x000000008001dec0                diskio_test_low_layer
 .text          0x000000008001df0c     0x5770 ./Debug_Linux/obj/fat_fs_ff.c.o
                                       0x58dc (size before relaxing)
                0x000000008001df0c                clust2sect
                0x000000008001e2e0                f_closedir
                0x000000008001ecb0                f_mount
                0x000000008001ed8c                f_sync
                0x000000008001eeec                f_close
                0x000000008001ef34                get_fat
                0x000000008001f220                f_getfree
                0x000000008001f3a8                f_read
                0x000000008001f668                f_gets
                0x000000008001f7cc                put_fat
                0x0000000080020aec                f_readdir
                0x0000000080020b90                f_lseek
                0x0000000080020d54                f_write
                0x0000000080021044                f_puts
                0x00000000800210e4                f_putc
                0x0000000080021128                f_printf
                0x0000000080021714                f_truncate
                0x0000000080021ddc                f_stat
                0x0000000080021e58                f_opendir
                0x0000000080021f2c                f_utime
                0x0000000080021fc4                f_chmod
                0x000000008002205c                f_unlink
                0x0000000080022d1c                f_rename
                0x0000000080022fe8                f_mkdir
                0x0000000080023338                f_open
 .text          0x000000008002367c      0x2e0 ./Debug_Linux/obj/option_cc932.c.o
                0x000000008002367c                ff_convert
                0x000000008002391c                ff_wtoupper
 .text          0x000000008002395c       0x20 ./Debug_Linux/obj/option_syscall.c.o
                                         0x28 (size before relaxing)
                0x000000008002395c                ff_memfree
                0x000000008002396c                ff_memalloc
 .text          0x000000008002397c       0x1c ./Debug_Linux/obj/user_board_init.c.o
                                         0x20 (size before relaxing)
                0x000000008002397c                board_init
 .text          0x0000000080023998       0x60 ./Debug_Linux/obj/stdio_read.c.o
                0x0000000080023998                _read
 .text          0x00000000800239f8       0x44 ./Debug_Linux/obj/stdio_write.c.o
                0x00000000800239f8                _write
 .text          0x0000000080023a3c      0x590 ./Debug_Linux/obj/adcifa_adcifa.c.o
                0x0000000080023a3c                adcifa_get_calibration_data
                0x0000000080023a78                adcifa_configure
                0x0000000080023b2c                adcifa_configure_sequencer
                0x0000000080023dd6                adcifa_configure_window_monitor
                0x0000000080023e54                adcifa_start_sequencer
                0x0000000080023e90                adcifa_check_eoc
                0x0000000080023ec2                adcifa_check_eos
                0x0000000080023ef4                adcifa_get_values_from_sequencer
                0x0000000080023f84                adcifa_start_itimer
                0x0000000080023f96                adcifa_stop_itimer
                0x0000000080023fa4                adcifa_enable_interrupt
                0x0000000080023fb2                adcifa_disable_interrupt
                0x0000000080023fc0                adcifa_clear_interrupt
 .text          0x0000000080023fcc      0xd88 ./Debug_Linux/obj/usart_usart.c.o
                0x0000000080024034                usart_spi_selectChip
                0x0000000080024044                usart_spi_unselectChip
                0x000000008002406c                usart_write_char
                0x000000008002408c                usart_putchar
                0x00000000800240b2                usart_read_char
                0x00000000800240e2                usart_getchar
                0x0000000080024106                usart_write_line
                0x000000008002413a                usart_get_echo_line
                0x00000000800241cc                usart_reset
                0x0000000080024200                usart_send_address
                0x0000000080024230                usart_init_spi_slave
                0x00000000800242e0                usart_init_spi_master
                0x00000000800243ae                usart_init_iso7816
                0x0000000080024470                usart_init_sync_slave
                0x000000008002454c                usart_init_sync_master
                0x000000008002464c                usart_init_rs232_tx_only
                0x0000000080024746                usart_init_rs232
                0x0000000080024830                usart_init_lin_slave
                0x00000000800248ce                usart_init_lin_master
                0x000000008002496c                usart_init_IrDA
                0x0000000080024a78                usart_init_rs485
                0x0000000080024b6c                usart_init_modem
                0x0000000080024c60                usart_init_hw_handshaking
 .text          0x0000000080024d54      0xa0c ./Debug_Linux/obj/twim_twim.c.o
                                        0xa1c (size before relaxing)
                0x0000000080024f10                twim_set_speed
                0x0000000080024f8e                twim_status
                0x0000000080024fa8                twim_disable_interrupt
                0x0000000080024fc4                twim_chained_transfer
                0x00000000800251c8                twim_write
                0x0000000080025284                twim_write_packet
                0x00000000800253b4                twim_read
                0x0000000080025480                twim_read_packet
                0x000000008002558c                twim_probe
                0x0000000080025650                twim_master_init
 .text          0x0000000080025760       0xcc ./Debug_Linux/obj/intc_intc.c.o
                                         0xd0 (size before relaxing)
                0x0000000080025768                INTC_register_interrupt
                0x00000000800257a0                INTC_init_interrupts
                0x00000000800257ec                _get_interrupt_handler
 .text          0x000000008002582c      0x216 ./Debug_Linux/obj/ast_ast.c.o
                0x000000008002582c                ast_init_calendar
                0x0000000080025868                ast_init_counter
                0x0000000080025890                ast_enable
                0x00000000800258b0                ast_set_calendar_value
                0x00000000800258ce                ast_set_counter_value
                0x00000000800258ea                ast_get_calendar_value
                0x00000000800258f6                ast_get_counter_value
                0x0000000080025902                ast_set_alarm0_value
                0x000000008002590e                ast_set_alarm1_value
                0x000000008002591a                ast_enable_alarm0
                0x000000008002593c                ast_disable_alarm0
                0x000000008002595e                ast_enable_alarm1
                0x0000000080025980                ast_disable_alarm1
                0x00000000800259a2                ast_set_periodic0_value
                0x00000000800259ae                ast_set_periodic1_value
                0x00000000800259ba                ast_enable_periodic0
                0x00000000800259dc                ast_disable_periodic0
                0x00000000800259fe                ast_enable_periodic1
                0x0000000080025a20                ast_disable_periodic1
 .text          0x0000000080025a42      0x376 ./Debug_Linux/obj/pevc_pevc.c.o
                0x0000000080025a42                pevc_channel_configure
                0x0000000080025ac6                pevc_igfd_set
                0x0000000080025ad6                pevc_channels_enable
                0x0000000080025af4                pevc_channels_disable
                0x0000000080025b12                pevc_get_channel_status
                0x0000000080025b50                pevc_get_channel_state
                0x0000000080025b8e                pevc_channel_sev_enable
                0x0000000080025baa                pevc_channels_trigger_sev
                0x0000000080025bc8                pevc_channel_sev_disable
                0x0000000080025be4                pevc_channels_enable_trigger_interrupt
                0x0000000080025c02                pevc_channels_disable_trigger_interrupt
                0x0000000080025c20                pevc_channel_is_trigger_interrupt_enabled
                0x0000000080025c62                pevc_channel_is_trigger_interrupt_raised
                0x0000000080025ca0                pevc_channel_clear_trigger_interrupt
                0x0000000080025ccc                pevc_channels_enable_overrun_interrupt
                0x0000000080025cea                pevc_channels_disable_overrun_interrupt
                0x0000000080025d08                pevc_channel_is_overrun_interrupt_enabled
                0x0000000080025d4a                pevc_channel_is_overrun_interrupt_raised
                0x0000000080025d8c                pevc_channel_clear_overrun_interrupt
 .text          0x0000000080025db8      0x3b0 ./Debug_Linux/obj/spi_spi.c.o
                                        0x3b4 (size before relaxing)
                0x0000000080025db8                getBaudDiv
                0x0000000080025ddc                spi_initSlave
                0x0000000080025e40                spi_initTest
                0x0000000080025e5c                spi_initMaster
                0x0000000080025e9e                spi_selectionMode
                0x0000000080025ede                spi_selectChip
                0x0000000080025f3a                spi_unselectChip
                0x0000000080025f6a                spi_setupChipReg
                0x0000000080026024                spi_enable
                0x0000000080026032                spi_disable
                0x0000000080026040                spi_is_enabled
                0x0000000080026050                spi_writeRegisterEmptyCheck
                0x0000000080026060                spi_write
                0x0000000080026086                spi_variableSlaveWrite
                0x00000000800260dc                spi_writeEndCheck
                0x00000000800260ec                spi_readRegisterFullCheck
                0x00000000800260fc                spi_read
                0x0000000080026128                spi_getStatus
 .text          0x0000000080026168      0x3e6 ./Debug_Linux/obj/pdca_pdca.c.o
                0x0000000080026168                pdca_get_handler
                0x0000000080026182                pdca_get_channel_status
                0x00000000800261aa                pdca_disable
                0x00000000800261ce                pdca_enable
                0x00000000800261f2                pdca_get_load_size
                0x0000000080026212                pdca_get_reload_size
                0x0000000080026232                pdca_set_peripheral_select
                0x0000000080026252                pdca_set_transfer_size
                0x0000000080026278                pdca_disable_event_trigger
                0x00000000800262a0                pdca_enable_event_trigger
                0x00000000800262c8                pdca_enable_interrupt_transfer_error
                0x00000000800262ec                pdca_enable_interrupt_transfer_complete
                0x0000000080026310                pdca_enable_interrupt_reload_counter_zero
                0x0000000080026334                pdca_get_transfer_status
                0x0000000080026354                pdca_disable_interrupt_reload_counter_zero
                0x0000000080026394                pdca_disable_interrupt_transfer_complete
                0x00000000800263d4                pdca_disable_interrupt_transfer_error
                0x0000000080026414                pdca_reload_channel
                0x0000000080026460                pdca_load_channel
                0x00000000800264ac                pdca_init_channel
 .text          0x000000008002654e      0x1c8 ./Debug_Linux/obj/eic_eic.c.o
                0x000000008002654e                eic_init
                0x0000000080026608                eic_enable_lines
                0x0000000080026614                eic_enable_line
                0x0000000080026626                eic_disable_lines
                0x0000000080026632                eic_disable_line
                0x0000000080026644                eic_is_line_enabled
                0x000000008002665c                eic_enable_interrupt_lines
                0x0000000080026668                eic_enable_interrupt_line
                0x000000008002667a                eic_is_interrupt_line_enabled
                0x0000000080026692                eic_is_interrupt_line_pending
                0x00000000800266aa                eic_clear_interrupt_line
                0x00000000800266c8                eic_clear_interrupt_lines
                0x00000000800266e0                eic_disable_interrupt_line
                0x00000000800266fe                eic_disable_interrupt_lines
 *fill*         0x0000000080026716        0x2 d703d703
 .text          0x0000000080026718      0x43c ./Debug_Linux/obj/dacifb_dacifb.c.o
                                        0x440 (size before relaxing)
                0x0000000080026718                dacifb_get_calibration_data
                0x0000000080026746                dacifb_check_eoc
                0x0000000080026752                dacifb_set_value
                0x000000008002678e                dacifb_reload_timer
                0x00000000800267e6                dacifb_start_channel
                0x0000000080026888                dacifb_configure_channel
                0x0000000080026aae                dacifb_configure
 .text          0x0000000080026b54     0x3464 ./Debug_Linux/obj/flashc_flashc.c.o
                                       0x3470 (size before relaxing)
                0x0000000080026b54                flashc_get_flash_size
                0x0000000080026b74                flashc_get_page_count
                0x0000000080026b94                flashc_get_page_count_per_region
                0x0000000080026bb4                flashc_get_wait_state
                0x0000000080026bc8                flashc_set_wait_state
                0x0000000080026bde                flashc_set_bus_freq
                0x0000000080026c16                flashc_is_ready_int_enabled
                0x0000000080026c2a                flashc_enable_ready_int
                0x0000000080026c40                flashc_is_lock_error_int_enabled
                0x0000000080026c54                flashc_enable_lock_error_int
                0x0000000080026c6a                flashc_is_prog_error_int_enabled
                0x0000000080026c7e                flashc_enable_prog_error_int
                0x0000000080026c94                flashc_is_ready
                0x0000000080026ca8                flashc_default_wait_until_ready
                0x0000000080026cc4                flashc_is_lock_error
                0x0000000080026cdc                flashc_is_programming_error
                0x0000000080026cf4                flashc_get_command
                0x0000000080026d08                flashc_get_page_number
                0x0000000080026d1c                flashc_issue_command
                0x0000000080026d64                flashc_is_security_bit_active
                0x0000000080026d78                flashc_get_bootloader_protected_size
                0x0000000080026de4                flashc_is_external_privileged_fetch_locked
                0x0000000080026e0a                flashc_is_region_locked
                0x0000000080026e2a                flashc_read_gp_fuse_bit
                0x0000000080026e78                flashc_read_gp_fuse_bitfield
                0x0000000080026f00                flashc_read_gp_fuse_byte
                0x0000000080026f4e                flashc_read_all_gp_fuses
                0x0000000080026f74                flashc_is_page_erased
                0x0000000080026f88                flashc_get_page_region
                0x0000000080026fc0                flashc_get_region_first_page_number
                0x0000000080026fe4                flashc_is_page_region_locked
                0x000000008002702c                flashc_no_operation
                0x0000000080027068                flashc_erase_all
                0x00000000800270a4                flashc_activate_security_bit
                0x00000000800270e0                flashc_lock_page_region
                0x0000000080027130                flashc_erase_gp_fuse_bit
                0x00000000800271b4                flashc_erase_all_gp_fuses
                0x0000000080027210                flashc_write_gp_fuse_byte
                0x0000000080027260                flashc_clear_page_buffer
                0x000000008002729c                flashc_quick_page_read
                0x00000000800272ec                flashc_erase_page
                0x0000000080027370                flashc_write_page
                0x00000000800273b8                flashc_quick_user_page_read
                0x00000000800273f8                flashc_write_user_page
                0x0000000080027434                flashc_erase_gp_fuse_bitfield
                0x0000000080027574                flashc_write_gp_fuse_bit
                0x00000000800275c8                flashc_set_flash_waitstate_and_readmode
                0x0000000080027648                flashc_write_gp_fuse_bitfield
                0x00000000800276e8                flashc_lock_region
                0x000000008002774c                flashc_write_all_gp_fuses
                0x0000000080027990                flashc_lock_all_regions
                0x00000000800280ec                flashc_erase_gp_fuse_byte
                0x0000000080028520                flashc_set_gp_fuse_bit
                0x000000008002857c                flashc_erase_user_page
                0x00000000800285e4                flashc_set_gp_fuse_bitfield
                0x000000008002869c                flashc_set_bootloader_protected_size
                0x00000000800287f0                flashc_erase_all_pages
                0x00000000800288f4                flashc_set_all_gp_fuses
                0x0000000080028d84                flashc_memcpy
                0x0000000080029360                flashc_set_gp_fuse_byte
                0x0000000080029b2c                flashc_memset64
                0x0000000080029efc                flashc_memset32
                0x0000000080029f18                flashc_memset16
                0x0000000080029f3c                flashc_memset8
                0x0000000080029f64                flashc_lock_external_privileged_fetch
 .text          0x0000000080029fb8      0x60c ./Debug_Linux/obj/gpio_gpio.c.o
                                        0x610 (size before relaxing)
                0x0000000080029fb8                gpio_enable_module_pin
                0x000000008002a06c                gpio_enable_module
                0x000000008002a09c                gpio_enable_gpio
                0x000000008002a0cc                gpio_enable_gpio_pin
                0x000000008002a0ea                gpio_enable_pin_pull_up
                0x000000008002a10a                gpio_disable_pin_pull_up
                0x000000008002a126                gpio_enable_pin_pull_down
                0x000000008002a146                gpio_disable_pin_pull_down
                0x000000008002a162                gpio_enable_pin_buskeeper
                0x000000008002a182                gpio_disable_pin_buskeeper
                0x000000008002a1a2                gpio_configure_pin
                0x000000008002a26c                gpio_configure_group
                0x000000008002a324                gpio_get_pin_value
                0x000000008002a342                gpio_get_gpio_pin_output_value
                0x000000008002a360                gpio_get_gpio_open_drain_pin_output_value
                0x000000008002a382                gpio_set_gpio_pin
                0x000000008002a3a4                gpio_set_pin_high
                0x000000008002a3c0                gpio_set_group_high
                0x000000008002a3d4                gpio_set_pin_low
                0x000000008002a3f0                gpio_clr_gpio_pin
                0x000000008002a412                gpio_set_group_low
                0x000000008002a426                gpio_tgl_gpio_pin
                0x000000008002a448                gpio_toggle_pin
                0x000000008002a464                gpio_toggle_group
                0x000000008002a478                gpio_set_gpio_open_drain_pin
                0x000000008002a496                gpio_clr_gpio_open_drain_pin
                0x000000008002a4b8                gpio_tgl_gpio_open_drain_pin
                0x000000008002a4da                gpio_enable_pin_glitch_filter
                0x000000008002a4f6                gpio_disable_pin_glitch_filter
                0x000000008002a512                gpio_enable_pin_interrupt
                0x000000008002a56c                gpio_disable_pin_interrupt
                0x000000008002a588                gpio_get_pin_interrupt_flag
                0x000000008002a5a8                gpio_clear_pin_interrupt_flag
 .text          0x000000008002a5c4      0x842 ./Debug_Linux/obj/scif_scif_uc3c.c.o
                0x000000008002a5c4                scif_read_gplp
                0x000000008002a5d8                scif_write_gplp
                0x000000008002a5f6                scif_is_osc_ready
                0x000000008002a61c                scif_wait_for_pll_locked
                0x000000008002a646                scif_start_gclk
                0x000000008002a68c                scif_stop_gclk
                0x000000008002a6c4                scif_gc_setup
                0x000000008002a758                scif_gc_enable
                0x000000008002a77c                scif_bod18_enable_irq
                0x000000008002a78e                scif_bod18_clear_irq
                0x000000008002a7a0                scif_bod18_get_irq_status
                0x000000008002a7b4                scif_bod18_get_irq_enable_bit
                0x000000008002a7c8                scif_bod18_get_level
                0x000000008002a7dc                scif_bod33_enable_irq
                0x000000008002a7f0                scif_bod33_clear_irq
                0x000000008002a804                scif_bod33_get_irq_status
                0x000000008002a818                scif_bod33_get_irq_enable_bit
                0x000000008002a82c                scif_bod33_get_level
                0x000000008002a840                scif_bod50_enable_irq
                0x000000008002a854                scif_bod50_clear_irq
                0x000000008002a868                scif_bod50_get_irq_status
                0x000000008002a87c                scif_bod50_get_irq_enable_bit
                0x000000008002a890                scif_bod50_get_level
                0x000000008002a8a4                scif_bod50_disable_irq
                0x000000008002a8d8                scif_bod33_disable_irq
                0x000000008002a90c                scif_bod18_disable_irq
                0x000000008002a93c                scif_stop_rc120M
                0x000000008002a968                scif_start_rc120M
                0x000000008002a992                scif_stop_rc8M
                0x000000008002a9be                scif_start_rc8M
                0x000000008002a9f2                scif_stop_osc32
                0x000000008002aa1e                scif_start_osc32
                0x000000008002aa7c                scif_pll_disable
                0x000000008002aac4                scif_pll_enable
                0x000000008002ab0c                scif_pll_setup
                0x000000008002ab7e                scif_enable_extosc
                0x000000008002abc6                scif_enable_osc
                0x000000008002ac38                scif_configure_osc_extmode
                0x000000008002ac80                scif_configure_osc_crystalmode
                0x000000008002ad44                scif_stop_osc
                0x000000008002ad76                scif_start_osc
 *fill*         0x000000008002ae06        0x2 d703d703
 .text          0x000000008002ae08     0x1048 ./Debug_Linux/obj/usbc_usbc_device.c.o
                                       0x107c (size before relaxing)
                0x000000008002ae08                udd_include_vbus_monitoring
                0x000000008002ae12                udd_is_high_speed
                0x000000008002ae1c                udd_set_address
                0x000000008002ae46                udd_getaddress
                0x000000008002ae5a                udd_get_frame_number
                0x000000008002ae6e                udd_get_micro_frame_number
                0x000000008002ae78                udd_set_setup_payload
                0x000000008002ae8c                udd_ep_is_halted
                0x000000008002aea6                udd_ep_clear_halt
                0x000000008002af08                udd_ep_wait_stall_clear
                0x000000008002af70                udd_ep_alloc
                0x000000008002b19c                udd_ep_abort
                0x000000008002b1bc                udd_ep_run
                0x000000008002b540                udd_enable
                0x000000008002b650                udd_ep_free
                0x000000008002b688                udd_ep_set_halt
                0x000000008002bc20                udd_disable
                0x000000008002bc90                udd_detach
                0x000000008002bce0                udd_attach
                0x000000008002be04                udd_send_wake_up
 .text._stext   0x000000008002be50       0x50 ./Debug_Linux/obj/startup_startup_uc3.S.o
                0x000000008002be50                _stext
 .text          0x000000008002bea0       0x74 ./Debug_Linux/obj/delay_delay.c.o
                                         0x78 (size before relaxing)
                0x000000008002bea0                delay_init
                0x000000008002beb4                delay_ms
 .text          0x000000008002bf14       0xdc ./Debug_Linux/obj/stdio_usb_stdio_usb.c.o
                                        0x100 (size before relaxing)
                0x000000008002bf14                stdio_usb_enable
                0x000000008002bf2c                stdio_usb_disable
                0x000000008002bf40                stdio_usb_vbus_event
                0x000000008002bf58                stdio_usb_getchar
                0x000000008002bf90                stdio_usb_putchar
                0x000000008002bfb8                stdio_usb_init
 .text          0x000000008002bff0      0x26c ./Debug_Linux/obj/uc3_spi_spi_master.c.o
                                        0x270 (size before relaxing)
                0x000000008002bff0                spi_read_packet
                0x000000008002c03e                spi_write_packet
                0x000000008002c06e                spi_master_setup_device
 .text          0x000000008002c25c       0x80 ./Debug_Linux/obj/uc3c_pll.c.o
                0x000000008002c25c                pll_disable
                0x000000008002c286                pll_enable
                0x000000008002c2b2                pll_config_write
 .text          0x000000008002c2dc      0x154 ./Debug_Linux/obj/uc3c_osc.c.o
                0x000000008002c2dc                osc_priv_disable_rc120m
                0x000000008002c302                osc_priv_enable_rc120m
                0x000000008002c328                osc_priv_disable_rc8m
                0x000000008002c356                osc_priv_enable_rc8m
                0x000000008002c398                osc_priv_disable_osc32
                0x000000008002c3be                osc_priv_enable_osc32
                0x000000008002c3e6                osc_priv_disable_osc0
                0x000000008002c40a                osc_priv_enable_osc0
 .text          0x000000008002c430      0x1ec ./Debug_Linux/obj/uc3c_sysclk.c.o
                                        0x20c (size before relaxing)
                0x000000008002c430                sysclk_disable_usb
                0x000000008002c444                sysclk_set_source
                0x000000008002c466                sysclk_set_prescalers
                0x000000008002c4d6                sysclk_priv_disable_module
                0x000000008002c512                sysclk_priv_enable_module
                0x000000008002c54c                sysclk_enable_usb
                0x000000008002c590                sysclk_init
 .text          0x000000008002c61c      0x7d4 ./Debug_Linux/obj/udc_udc.c.o
                                        0x7fc (size before relaxing)
                0x000000008002c61c                udc_get_interface_desc
                0x000000008002c630                udc_sof_notify
                0x000000008002c8c0                udc_reset
                0x000000008002c914                udc_process_setup
 .text          0x000000008002cdf0      0x9b0 ./Debug_Linux/obj/device_udi_cdc.c.o
                                        0xa04 (size before relaxing)
                0x000000008002cdf0                udi_cdc_data_disable
                0x000000008002cdfa                udi_cdc_comm_setup
                0x000000008002ce78                udi_cdc_data_setup
                0x000000008002ce82                udi_cdc_getsetting
                0x000000008002ce8c                udi_cdc_line_coding_received
                0x000000008002ce96                udi_cdc_is_rx_ready
                0x000000008002cec8                udi_cdc_is_tx_ready
                0x000000008002cf30                udi_cdc_data_recevied
                0x000000008002cfc0                udi_cdc_signal_parity_error
                0x000000008002d018                udi_cdc_serial_state_msg_sent
                0x000000008002d140                udi_cdc_data_sent
                0x000000008002d17c                udi_cdc_data_sof_notify
                0x000000008002d188                udi_cdc_comm_disable
                0x000000008002d1a0                udi_cdc_comm_enable
                0x000000008002d1dc                udi_cdc_putc
                0x000000008002d298                udi_cdc_write_buf
                0x000000008002d390                udi_cdc_getc
                0x000000008002d480                udi_cdc_read_buf
                0x000000008002d564                udi_cdc_data_enable
                0x000000008002d620                udi_cdc_signal_framing_error
                0x000000008002d678                udi_cdc_ctrl_signal_dsr
                0x000000008002d6e0                udi_cdc_ctrl_signal_dcd
                0x000000008002d748                udi_cdc_signal_overrun
 .text.cos      0x000000008002d7a0       0x8c /usr/local/avr32-gnu-toolchain-linux_x86_64/bin/../lib/gcc/avr32/4.4.7/../../../../avr32/lib/ucr3fp/libm.a(lib_a-s_cos.o)
                                         0x9c (size before relaxing)
                0x000000008002d7a0                cos
 .text.floor    0x000000008002d82c      0x120 /usr/local/avr32-gnu-toolchain-linux_x86_64/bin/../lib/gcc/avr32/4.4.7/../../../../avr32/lib/ucr3fp/libm.a(lib_a-s_floor.o)
                                        0x128 (size before relaxing)
                0x000000008002d82c                floor
 .text.sin      0x000000008002d94c       0x90 /usr/local/avr32-gnu-toolchain-linux_x86_64/bin/../lib/gcc/avr32/4.4.7/../../../../avr32/lib/ucr3fp/libm.a(lib_a-s_sin.o)
                                         0xa0 (size before relaxing)
                0x000000008002d94c                sin
 .text.asin     0x000000008002d9dc       0x94 /usr/local/avr32-gnu-toolchain-linux_x86_64/bin/../lib/gcc/avr32/4.4.7/../../../../avr32/lib/ucr3fp/libm.a(lib_a-w_asin.o)
                                         0xb0 (size before relaxing)
                0x000000008002d9dc                asin
 .text.atan2    0x000000008002da70        0x8 /usr/local/avr32-gnu-toolchain-linux_x86_64/bin/../lib/gcc/avr32/4.4.7/../../../../avr32/lib/ucr3fp/libm.a(lib_a-w_atan2.o)
                                          0xc (size before relaxing)
                0x000000008002da70                atan2
 .text.fmod     0x000000008002da78       0xa4 /usr/local/avr32-gnu-toolchain-linux_x86_64/bin/../lib/gcc/avr32/4.4.7/../../../../avr32/lib/ucr3fp/libm.a(lib_a-w_fmod.o)
                                         0xbc (size before relaxing)
                0x000000008002da78                fmod
 .text.pow      0x000000008002db1c      0x2b8 /usr/local/avr32-gnu-toolchain-linux_x86_64/bin/../lib/gcc/avr32/4.4.7/../../../../avr32/lib/ucr3fp/libm.a(lib_a-w_pow.o)
                                        0x300 (size before relaxing)
                0x000000008002db1c                pow
 .text.sqrt     0x000000008002ddd4       0x9c /usr/local/avr32-gnu-toolchain-linux_x86_64/bin/../lib/gcc/avr32/4.4.7/../../../../avr32/lib/ucr3fp/libm.a(lib_a-w_sqrt.o)
                                         0xb4 (size before relaxing)
                0x000000008002ddd4                sqrt
 .text.__ieee754_asin
                0x000000008002de70      0x4f0 /usr/local/avr32-gnu-toolchain-linux_x86_64/bin/../lib/gcc/avr32/4.4.7/../../../../avr32/lib/ucr3fp/libm.a(lib_a-e_asin.o)
                                        0x50c (size before relaxing)
                0x000000008002de70                __ieee754_asin
 .text.__ieee754_atan2
                0x000000008002e360      0x22c /usr/local/avr32-gnu-toolchain-linux_x86_64/bin/../lib/gcc/avr32/4.4.7/../../../../avr32/lib/ucr3fp/libm.a(lib_a-e_atan2.o)
                                        0x240 (size before relaxing)
                0x000000008002e360                __ieee754_atan2
 .text.__ieee754_fmod
                0x000000008002e58c      0x238 /usr/local/avr32-gnu-toolchain-linux_x86_64/bin/../lib/gcc/avr32/4.4.7/../../../../avr32/lib/ucr3fp/libm.a(lib_a-e_fmod.o)
                                        0x240 (size before relaxing)
                0x000000008002e58c                __ieee754_fmod
 .text.__ieee754_pow
                0x000000008002e7c4      0xaa4 /usr/local/avr32-gnu-toolchain-linux_x86_64/bin/../lib/gcc/avr32/4.4.7/../../../../avr32/lib/ucr3fp/libm.a(lib_a-e_pow.o)
                                        0xaf0 (size before relaxing)
                0x000000008002e7c4                __ieee754_pow
 .text.__ieee754_rem_pio2
                0x000000008002f268      0x470 /usr/local/avr32-gnu-toolchain-linux_x86_64/bin/../lib/gcc/avr32/4.4.7/../../../../avr32/lib/ucr3fp/libm.a(lib_a-e_rem_pio2.o)
                                        0x4a0 (size before relaxing)
                0x000000008002f268                __ieee754_rem_pio2
 .text.__ieee754_sqrt
                0x000000008002f6d8      0x18c /usr/local/avr32-gnu-toolchain-linux_x86_64/bin/../lib/gcc/avr32/4.4.7/../../../../avr32/lib/ucr3fp/libm.a(lib_a-e_sqrt.o)
                                        0x19c (size before relaxing)
                0x000000008002f6d8                __ieee754_sqrt
 .text.__kernel_cos
                0x000000008002f864      0x1e8 /usr/local/avr32-gnu-toolchain-linux_x86_64/bin/../lib/gcc/avr32/4.4.7/../../../../avr32/lib/ucr3fp/libm.a(lib_a-k_cos.o)
                                        0x1f8 (size before relaxing)
                0x000000008002f864                __kernel_cos
 .text.__kernel_rem_pio2
                0x000000008002fa4c      0x6e0 /usr/local/avr32-gnu-toolchain-linux_x86_64/bin/../lib/gcc/avr32/4.4.7/../../../../avr32/lib/ucr3fp/libm.a(lib_a-k_rem_pio2.o)
                                        0x718 (size before relaxing)
                0x000000008002fa4c                __kernel_rem_pio2
 .text.__kernel_sin
                0x000000008003012c      0x194 /usr/local/avr32-gnu-toolchain-linux_x86_64/bin/../lib/gcc/avr32/4.4.7/../../../../avr32/lib/ucr3fp/libm.a(lib_a-k_sin.o)
                                        0x1a4 (size before relaxing)
                0x000000008003012c                __kernel_sin
 .text.atan     0x00000000800302c0      0x334 /usr/local/avr32-gnu-toolchain-linux_x86_64/bin/../lib/gcc/avr32/4.4.7/../../../../avr32/lib/ucr3fp/libm.a(lib_a-s_atan.o)
                                        0x368 (size before relaxing)
                0x00000000800302c0                atan
 .text.fabs     0x00000000800305f4        0x8 /usr/local/avr32-gnu-toolchain-linux_x86_64/bin/../lib/gcc/avr32/4.4.7/../../../../avr32/lib/ucr3fp/libm.a(lib_a-s_fabs.o)
                0x00000000800305f4                fabs
 .text.finite   0x00000000800305fc       0x10 /usr/local/avr32-gnu-toolchain-linux_x86_64/bin/../lib/gcc/avr32/4.4.7/../../../../avr32/lib/ucr3fp/libm.a(lib_a-s_finite.o)
                0x00000000800305fc                finite
 .text.__isnand
                0x000000008003060c       0x1c /usr/local/avr32-gnu-toolchain-linux_x86_64/bin/../lib/gcc/avr32/4.4.7/../../../../avr32/lib/ucr3fp/libm.a(lib_a-s_isnand.o)
                0x000000008003060c                __isnand
 .text.matherr  0x0000000080030628        0x2 /usr/local/avr32-gnu-toolchain-linux_x86_64/bin/../lib/gcc/avr32/4.4.7/../../../../avr32/lib/ucr3fp/libm.a(lib_a-s_matherr.o)
                0x0000000080030628                matherr
 .text.nan      0x000000008003062a        0x8 /usr/local/avr32-gnu-toolchain-linux_x86_64/bin/../lib/gcc/avr32/4.4.7/../../../../avr32/lib/ucr3fp/libm.a(lib_a-s_nan.o)
                0x000000008003062a                nan
 *fill*         0x0000000080030632        0x2 d703d703
 .text.rint     0x0000000080030634      0x118 /usr/local/avr32-gnu-toolchain-linux_x86_64/bin/../lib/gcc/avr32/4.4.7/../../../../avr32/lib/ucr3fp/libm.a(lib_a-s_rint.o)
                                        0x124 (size before relaxing)
                0x0000000080030634                rint
 .text.scalbn   0x000000008003074c       0xdc /usr/local/avr32-gnu-toolchain-linux_x86_64/bin/../lib/gcc/avr32/4.4.7/../../../../avr32/lib/ucr3fp/libm.a(lib_a-s_scalbn.o)
                                         0xf0 (size before relaxing)
                0x000000008003074c                scalbn
 .text.copysign
                0x0000000080030828       0x18 /usr/local/avr32-gnu-toolchain-linux_x86_64/bin/../lib/gcc/avr32/4.4.7/../../../../avr32/lib/ucr3fp/libm.a(lib_a-s_copysign.o)
                0x0000000080030828                copysign
 .text          0x0000000080030840      0x1d4 /usr/local/avr32-gnu-toolchain-linux_x86_64/bin/../lib/gcc/avr32/4.4.7/ucr3fp/libgcc.a(_avr32_f64_mul.o)
                0x0000000080030840                __avr32_f64_mul
 .text          0x0000000080030a14      0x2b0 /usr/local/avr32-gnu-toolchain-linux_x86_64/bin/../lib/gcc/avr32/4.4.7/ucr3fp/libgcc.a(_avr32_f64_addsub.o)
                0x0000000080030a18                __avr32_f64_sub
                0x0000000080030bb4                __avr32_f64_add
 .text          0x0000000080030cc4       0x2a /usr/local/avr32-gnu-toolchain-linux_x86_64/bin/../lib/gcc/avr32/4.4.7/ucr3fp/libgcc.a(_avr32_f64_to_s32.o)
                0x0000000080030cc4                __avr32_f64_to_u32
                0x0000000080030cc8                __avr32_f64_to_s32
 .text          0x0000000080030cee       0x60 /usr/local/avr32-gnu-toolchain-linux_x86_64/bin/../lib/gcc/avr32/4.4.7/ucr3fp/libgcc.a(_avr32_f64_to_s64.o)
                0x0000000080030cee                __avr32_f64_to_u64
                0x0000000080030cfa                __avr32_f64_to_s64
 .text          0x0000000080030d4e       0xe8 /usr/local/avr32-gnu-toolchain-linux_x86_64/bin/../lib/gcc/avr32/4.4.7/ucr3fp/libgcc.a(_avr32_s32_to_f64.o)
                0x0000000080030d4e                __avr32_u32_to_f64
                0x0000000080030d56                __avr32_s32_to_f64
 .text          0x0000000080030e36       0x26 /usr/local/avr32-gnu-toolchain-linux_x86_64/bin/../lib/gcc/avr32/4.4.7/ucr3fp/libgcc.a(_avr32_f64_cmp_eq.o)
                0x0000000080030e36                __avr32_f64_cmp_eq
 .text          0x0000000080030e5c       0x68 /usr/local/avr32-gnu-toolchain-linux_x86_64/bin/../lib/gcc/avr32/4.4.7/ucr3fp/libgcc.a(_avr32_f64_cmp_ge.o)
                0x0000000080030e5c                __avr32_f64_cmp_ge
 .text          0x0000000080030ec4       0x68 /usr/local/avr32-gnu-toolchain-linux_x86_64/bin/../lib/gcc/avr32/4.4.7/ucr3fp/libgcc.a(_avr32_f64_cmp_lt.o)
                0x0000000080030ec4                __avr32_f64_cmp_lt
 .text          0x0000000080030f2c      0x318 /usr/local/avr32-gnu-toolchain-linux_x86_64/bin/../lib/gcc/avr32/4.4.7/ucr3fp/libgcc.a(_avr32_f64_div.o)
                0x0000000080030f2c                __avr32_f64_div
 .text          0x0000000080031244      0x160 /usr/local/avr32-gnu-toolchain-linux_x86_64/bin/../lib/gcc/avr32/4.4.7/ucr3fp/libgcc.a(_avr32_f32_div.o)
                0x0000000080031244                __avr32_f32_div
 .text          0x00000000800313a4       0x60 /usr/local/avr32-gnu-toolchain-linux_x86_64/bin/../lib/gcc/avr32/4.4.7/ucr3fp/libgcc.a(_avr32_f32_to_f64.o)
                0x00000000800313a4                __avr32_f32_to_f64
 .text          0x0000000080031404       0x8a /usr/local/avr32-gnu-toolchain-linux_x86_64/bin/../lib/gcc/avr32/4.4.7/ucr3fp/libgcc.a(_avr32_f64_to_f32.o)
                0x0000000080031404                __avr32_f64_to_f32
 *fill*         0x000000008003148e        0x2 d703d703
 .text          0x0000000080031490       0x2c /usr/local/avr32-gnu-toolchain-linux_x86_64/bin/../lib/gcc/avr32/4.4.7/ucr3fp/libgcc.a(_floatdidf.o)
                                         0x3c (size before relaxing)
                0x0000000080031490                __floatdidf
                0x0000000080031490                __avr32_s64_to_f64
 .text          0x00000000800314bc      0x2b4 /usr/local/avr32-gnu-toolchain-linux_x86_64/bin/../lib/gcc/avr32/4.4.7/ucr3fp/libgcc.a(_divdi3.o)
                0x00000000800314bc                __divdi3
                0x00000000800314bc                __avr32_sdiv64
 .text          0x0000000080031770      0x280 /usr/local/avr32-gnu-toolchain-linux_x86_64/bin/../lib/gcc/avr32/4.4.7/ucr3fp/libgcc.a(_moddi3.o)
                0x0000000080031770                __avr32_smod64
                0x0000000080031770                __moddi3
 .text          0x00000000800319f0      0x264 /usr/local/avr32-gnu-toolchain-linux_x86_64/bin/../lib/gcc/avr32/4.4.7/ucr3fp/libgcc.a(_udivdi3.o)
                0x00000000800319f0                __udivdi3
                0x00000000800319f0                __avr32_udiv64
 .text          0x0000000080031c54      0x20c /usr/local/avr32-gnu-toolchain-linux_x86_64/bin/../lib/gcc/avr32/4.4.7/ucr3fp/libgcc.a(_umoddi3.o)
                0x0000000080031c54                __umoddi3
                0x0000000080031c54                __avr32_umod64
 .text.__errno  0x0000000080031e60        0xc /usr/local/avr32-gnu-toolchain-linux_x86_64/bin/../lib/gcc/avr32/4.4.7/../../../../avr32/lib/ucr3fp/libc.a(lib_a-errno.o)
                0x0000000080031e60                __errno
 .text.free     0x0000000080031e6c       0x14 /usr/local/avr32-gnu-toolchain-linux_x86_64/bin/../lib/gcc/avr32/4.4.7/../../../../avr32/lib/ucr3fp/libc.a(lib_a-malloc.o)
                                         0x18 (size before relaxing)
                0x0000000080031e6c                free
 .text.malloc   0x0000000080031e80       0x10 /usr/local/avr32-gnu-toolchain-linux_x86_64/bin/../lib/gcc/avr32/4.4.7/../../../../avr32/lib/ucr3fp/libc.a(lib_a-malloc.o)
                                         0x18 (size before relaxing)
                0x0000000080031e80                malloc
 .text._malloc_r
                0x0000000080031e90      0x428 /usr/local/avr32-gnu-toolchain-linux_x86_64/bin/../lib/gcc/avr32/4.4.7/../../../../avr32/lib/ucr3fp/libc.a(lib_a-mallocr.o)
                                        0x450 (size before relaxing)
                0x0000000080031e90                _malloc_r
 .text          0x00000000800322b8      0x148 /usr/local/avr32-gnu-toolchain-linux_x86_64/bin/../lib/gcc/avr32/4.4.7/../../../../avr32/lib/ucr3fp/libc.a(lib_a-memcpy.o)
                0x00000000800322b8                memcpy
 .text.memset   0x0000000080032400        0xe /usr/local/avr32-gnu-toolchain-linux_x86_64/bin/../lib/gcc/avr32/4.4.7/../../../../avr32/lib/ucr3fp/libc.a(lib_a-memset.o)
                0x0000000080032400                memset
 .text.__malloc_lock
                0x000000008003240e        0x2 /usr/local/avr32-gnu-toolchain-linux_x86_64/bin/../lib/gcc/avr32/4.4.7/../../../../avr32/lib/ucr3fp/libc.a(lib_a-mlock.o)
                0x000000008003240e                __malloc_lock
 .text.__malloc_unlock
                0x0000000080032410        0x2 /usr/local/avr32-gnu-toolchain-linux_x86_64/bin/../lib/gcc/avr32/4.4.7/../../../../avr32/lib/ucr3fp/libc.a(lib_a-mlock.o)
                0x0000000080032410                __malloc_unlock
 *fill*         0x0000000080032412        0x2 d703d703
 .text._sbrk_r  0x0000000080032414       0x20 /usr/local/avr32-gnu-toolchain-linux_x86_64/bin/../lib/gcc/avr32/4.4.7/../../../../avr32/lib/ucr3fp/libc.a(lib_a-sbrkr.o)
                                         0x28 (size before relaxing)
                0x0000000080032414                _sbrk_r
 .text.snprintf
                0x0000000080032434       0x60 /usr/local/avr32-gnu-toolchain-linux_x86_64/bin/../lib/gcc/avr32/4.4.7/../../../../avr32/lib/ucr3fp/libc.a(lib_a-snprintf.o)
                                         0x64 (size before relaxing)
                0x0000000080032434                snprintf
 .text.strcpy   0x0000000080032494       0x12 /usr/local/avr32-gnu-toolchain-linux_x86_64/bin/../lib/gcc/avr32/4.4.7/../../../../avr32/lib/ucr3fp/libc.a(lib_a-strcpy.o)
                0x0000000080032494                strcpy
 .text.strlen   0x00000000800324a6       0x16 /usr/local/avr32-gnu-toolchain-linux_x86_64/bin/../lib/gcc/avr32/4.4.7/../../../../avr32/lib/ucr3fp/libc.a(lib_a-strlen.o)
                0x00000000800324a6                strlen
 .text._close   0x00000000800324bc       0x18 /usr/local/avr32-gnu-toolchain-linux_x86_64/bin/../lib/gcc/avr32/4.4.7/../../../../avr32/lib/ucr3fp/libc.a(lib_a-syscalls.o)
                0x00000000800324bc                _close
 .text._lseek   0x00000000800324d4       0x18 /usr/local/avr32-gnu-toolchain-linux_x86_64/bin/../lib/gcc/avr32/4.4.7/../../../../avr32/lib/ucr3fp/libc.a(lib_a-syscalls.o)
                0x00000000800324d4                _lseek
 .text.isatty   0x00000000800324ec       0x18 /usr/local/avr32-gnu-toolchain-linux_x86_64/bin/../lib/gcc/avr32/4.4.7/../../../../avr32/lib/ucr3fp/libc.a(lib_a-syscalls.o)
                0x00000000800324ec                isatty
 .text._fstat_host
                0x0000000080032504       0x18 /usr/local/avr32-gnu-toolchain-linux_x86_64/bin/../lib/gcc/avr32/4.4.7/../../../../avr32/lib/ucr3fp/libc.a(lib_a-syscalls.o)
                0x0000000080032504                _fstat_host
 .text._fstat   0x000000008003251c       0x4c /usr/local/avr32-gnu-toolchain-linux_x86_64/bin/../lib/gcc/avr32/4.4.7/../../../../avr32/lib/ucr3fp/libc.a(lib_a-syscalls.o)
                                         0x50 (size before relaxing)
                0x000000008003251c                _fstat
 .text._sbrk    0x0000000080032568       0x3c /usr/local/avr32-gnu-toolchain-linux_x86_64/bin/../lib/gcc/avr32/4.4.7/../../../../avr32/lib/ucr3fp/libc.a(lib_a-syscalls.o)
                                         0x40 (size before relaxing)
                0x0000000080032568                _sbrk
 .text.get_arg  0x00000000800325a4      0x31c /usr/local/avr32-gnu-toolchain-linux_x86_64/bin/../lib/gcc/avr32/4.4.7/../../../../avr32/lib/ucr3fp/libc.a(lib_a-vfprintf.o)
                                        0x324 (size before relaxing)
 .text.__sprint_r
                0x00000000800328c0       0x1c /usr/local/avr32-gnu-toolchain-linux_x86_64/bin/../lib/gcc/avr32/4.4.7/../../../../avr32/lib/ucr3fp/libc.a(lib_a-vfprintf.o)
                                         0x20 (size before relaxing)
 .text._vfprintf_r
                0x00000000800328dc     0x1f2c /usr/local/avr32-gnu-toolchain-linux_x86_64/bin/../lib/gcc/avr32/4.4.7/../../../../avr32/lib/ucr3fp/libc.a(lib_a-vfprintf.o)
                                       0x1f9c (size before relaxing)
                0x00000000800328dc                _vfprintf_r
 .text.__swsetup_r
                0x0000000080034808       0xdc /usr/local/avr32-gnu-toolchain-linux_x86_64/bin/../lib/gcc/avr32/4.4.7/../../../../avr32/lib/ucr3fp/libc.a(lib_a-wsetup.o)
                                         0xe8 (size before relaxing)
                0x0000000080034808                __swsetup_r
 .text.quorem   0x00000000800348e4      0x120 /usr/local/avr32-gnu-toolchain-linux_x86_64/bin/../lib/gcc/avr32/4.4.7/../../../../avr32/lib/ucr3fp/libc.a(lib_a-dtoa.o)
                                        0x124 (size before relaxing)
 .text._dtoa_r  0x0000000080034a04      0xbe0 /usr/local/avr32-gnu-toolchain-linux_x86_64/bin/../lib/gcc/avr32/4.4.7/../../../../avr32/lib/ucr3fp/libc.a(lib_a-dtoa.o)
                                        0xc90 (size before relaxing)
                0x0000000080034a04                _dtoa_r
 .text._fflush_r
                0x00000000800355e4      0x110 /usr/local/avr32-gnu-toolchain-linux_x86_64/bin/../lib/gcc/avr32/4.4.7/../../../../avr32/lib/ucr3fp/libc.a(lib_a-fflush.o)
                                        0x118 (size before relaxing)
                0x00000000800355e4                _fflush_r
 .text.__sfp_lock_acquire
                0x00000000800356f4        0x2 /usr/local/avr32-gnu-toolchain-linux_x86_64/bin/../lib/gcc/avr32/4.4.7/../../../../avr32/lib/ucr3fp/libc.a(lib_a-findfp.o)
                0x00000000800356f4                __sfp_lock_acquire
 .text.__sfp_lock_release
                0x00000000800356f6        0x2 /usr/local/avr32-gnu-toolchain-linux_x86_64/bin/../lib/gcc/avr32/4.4.7/../../../../avr32/lib/ucr3fp/libc.a(lib_a-findfp.o)
                0x00000000800356f6                __sfp_lock_release
 .text._cleanup_r
                0x00000000800356f8        0xc /usr/local/avr32-gnu-toolchain-linux_x86_64/bin/../lib/gcc/avr32/4.4.7/../../../../avr32/lib/ucr3fp/libc.a(lib_a-findfp.o)
                                         0x14 (size before relaxing)
                0x00000000800356f8                _cleanup_r
 .text.__sfmoreglue
                0x0000000080035704       0x28 /usr/local/avr32-gnu-toolchain-linux_x86_64/bin/../lib/gcc/avr32/4.4.7/../../../../avr32/lib/ucr3fp/libc.a(lib_a-findfp.o)
                                         0x30 (size before relaxing)
                0x0000000080035704                __sfmoreglue
 .text.__sfp    0x000000008003572c       0x70 /usr/local/avr32-gnu-toolchain-linux_x86_64/bin/../lib/gcc/avr32/4.4.7/../../../../avr32/lib/ucr3fp/libc.a(lib_a-findfp.o)
                                         0x7c (size before relaxing)
                0x000000008003572c                __sfp
 .text.__sinit  0x000000008003579c       0x9c /usr/local/avr32-gnu-toolchain-linux_x86_64/bin/../lib/gcc/avr32/4.4.7/../../../../avr32/lib/ucr3fp/libc.a(lib_a-findfp.o)
                                         0xb0 (size before relaxing)
                0x000000008003579c                __sinit
 .text._malloc_trim_r
                0x0000000080035838       0x9c /usr/local/avr32-gnu-toolchain-linux_x86_64/bin/../lib/gcc/avr32/4.4.7/../../../../avr32/lib/ucr3fp/libc.a(lib_a-freer.o)
                                         0xa8 (size before relaxing)
                0x0000000080035838                _malloc_trim_r
 .text._free_r  0x00000000800358d4      0x190 /usr/local/avr32-gnu-toolchain-linux_x86_64/bin/../lib/gcc/avr32/4.4.7/../../../../avr32/lib/ucr3fp/libc.a(lib_a-freer.o)
                                        0x1a0 (size before relaxing)
                0x00000000800358d4                _free_r
 .text.__sfvwrite_r
                0x0000000080035a64      0x294 /usr/local/avr32-gnu-toolchain-linux_x86_64/bin/../lib/gcc/avr32/4.4.7/../../../../avr32/lib/ucr3fp/libc.a(lib_a-fvwrite.o)
                                        0x2c4 (size before relaxing)
                0x0000000080035a64                __sfvwrite_r
 .text._fwalk   0x0000000080035cf8       0x4c /usr/local/avr32-gnu-toolchain-linux_x86_64/bin/../lib/gcc/avr32/4.4.7/../../../../avr32/lib/ucr3fp/libc.a(lib_a-fwalk.o)
                                         0x54 (size before relaxing)
                0x0000000080035cf8                _fwalk
 .text._localeconv_r
                0x0000000080035d44        0x8 /usr/local/avr32-gnu-toolchain-linux_x86_64/bin/../lib/gcc/avr32/4.4.7/../../../../avr32/lib/ucr3fp/libc.a(lib_a-locale.o)
                0x0000000080035d44                _localeconv_r
 .text.__smakebuf_r
                0x0000000080035d4c       0xbc /usr/local/avr32-gnu-toolchain-linux_x86_64/bin/../lib/gcc/avr32/4.4.7/../../../../avr32/lib/ucr3fp/libc.a(lib_a-makebuf.o)
                                         0xcc (size before relaxing)
                0x0000000080035d4c                __smakebuf_r
 .text.memchr   0x0000000080035e08       0x16 /usr/local/avr32-gnu-toolchain-linux_x86_64/bin/../lib/gcc/avr32/4.4.7/../../../../avr32/lib/ucr3fp/libc.a(lib_a-memchr.o)
                0x0000000080035e08                memchr
 .text.memmove  0x0000000080035e1e       0x3e /usr/local/avr32-gnu-toolchain-linux_x86_64/bin/../lib/gcc/avr32/4.4.7/../../../../avr32/lib/ucr3fp/libc.a(lib_a-memmove.o)
                0x0000000080035e1e                memmove
 .text.__hi0bits
                0x0000000080035e5c       0x60 /usr/local/avr32-gnu-toolchain-linux_x86_64/bin/../lib/gcc/avr32/4.4.7/../../../../avr32/lib/ucr3fp/libc.a(lib_a-mprec.o)
                0x0000000080035e5c                __hi0bits
 .text.__lo0bits
                0x0000000080035ebc       0x8e /usr/local/avr32-gnu-toolchain-linux_x86_64/bin/../lib/gcc/avr32/4.4.7/../../../../avr32/lib/ucr3fp/libc.a(lib_a-mprec.o)
                0x0000000080035ebc                __lo0bits
 .text.__mcmp   0x0000000080035f4a       0x32 /usr/local/avr32-gnu-toolchain-linux_x86_64/bin/../lib/gcc/avr32/4.4.7/../../../../avr32/lib/ucr3fp/libc.a(lib_a-mprec.o)
                0x0000000080035f4a                __mcmp
 .text._Bfree   0x0000000080035f7c       0x34 /usr/local/avr32-gnu-toolchain-linux_x86_64/bin/../lib/gcc/avr32/4.4.7/../../../../avr32/lib/ucr3fp/libc.a(lib_a-mprec.o)
                                         0x38 (size before relaxing)
                0x0000000080035f7c                _Bfree
 .text._Balloc  0x0000000080035fb0       0x70 /usr/local/avr32-gnu-toolchain-linux_x86_64/bin/../lib/gcc/avr32/4.4.7/../../../../avr32/lib/ucr3fp/libc.a(lib_a-mprec.o)
                                         0x78 (size before relaxing)
                0x0000000080035fb0                _Balloc
 .text.__d2b    0x0000000080036020       0xa0 /usr/local/avr32-gnu-toolchain-linux_x86_64/bin/../lib/gcc/avr32/4.4.7/../../../../avr32/lib/ucr3fp/libc.a(lib_a-mprec.o)
                                         0xb4 (size before relaxing)
                0x0000000080036020                __d2b
 .text.__mdiff  0x00000000800360c0       0xd0 /usr/local/avr32-gnu-toolchain-linux_x86_64/bin/../lib/gcc/avr32/4.4.7/../../../../avr32/lib/ucr3fp/libc.a(lib_a-mprec.o)
                                         0xd8 (size before relaxing)
                0x00000000800360c0                __mdiff
 .text.__lshift
                0x0000000080036190       0x88 /usr/local/avr32-gnu-toolchain-linux_x86_64/bin/../lib/gcc/avr32/4.4.7/../../../../avr32/lib/ucr3fp/libc.a(lib_a-mprec.o)
                                         0x94 (size before relaxing)
                0x0000000080036190                __lshift
 .text.__multiply
                0x0000000080036218      0x100 /usr/local/avr32-gnu-toolchain-linux_x86_64/bin/../lib/gcc/avr32/4.4.7/../../../../avr32/lib/ucr3fp/libc.a(lib_a-mprec.o)
                                        0x108 (size before relaxing)
                0x0000000080036218                __multiply
 .text.__i2b    0x0000000080036318       0x10 /usr/local/avr32-gnu-toolchain-linux_x86_64/bin/../lib/gcc/avr32/4.4.7/../../../../avr32/lib/ucr3fp/libc.a(lib_a-mprec.o)
                                         0x18 (size before relaxing)
                0x0000000080036318                __i2b
 .text.__multadd
                0x0000000080036328       0x7c /usr/local/avr32-gnu-toolchain-linux_x86_64/bin/../lib/gcc/avr32/4.4.7/../../../../avr32/lib/ucr3fp/libc.a(lib_a-mprec.o)
                                         0x88 (size before relaxing)
                0x0000000080036328                __multadd
 .text.__pow5mult
                0x00000000800363a4       0x90 /usr/local/avr32-gnu-toolchain-linux_x86_64/bin/../lib/gcc/avr32/4.4.7/../../../../avr32/lib/ucr3fp/libc.a(lib_a-mprec.o)
                                         0xac (size before relaxing)
                0x00000000800363a4                __pow5mult
 .text._realloc_r
                0x0000000080036434      0x2c4 /usr/local/avr32-gnu-toolchain-linux_x86_64/bin/../lib/gcc/avr32/4.4.7/../../../../avr32/lib/ucr3fp/libc.a(lib_a-reallocr.o)
                                        0x2e0 (size before relaxing)
                0x0000000080036434                _realloc_r
 .text.__isinfd
                0x00000000800366f8       0x2a /usr/local/avr32-gnu-toolchain-linux_x86_64/bin/../lib/gcc/avr32/4.4.7/../../../../avr32/lib/ucr3fp/libc.a(lib_a-s_isinfd.o)
                0x00000000800366f8                __isinfd
 *fill*         0x0000000080036722        0x2 d703d703
 .text.__sclose
                0x0000000080036724        0x8 /usr/local/avr32-gnu-toolchain-linux_x86_64/bin/../lib/gcc/avr32/4.4.7/../../../../avr32/lib/ucr3fp/libc.a(lib_a-stdio.o)
                                         0x10 (size before relaxing)
                0x0000000080036724                __sclose
 .text.__sseek  0x000000008003672c       0x20 /usr/local/avr32-gnu-toolchain-linux_x86_64/bin/../lib/gcc/avr32/4.4.7/../../../../avr32/lib/ucr3fp/libc.a(lib_a-stdio.o)
                                         0x28 (size before relaxing)
                0x000000008003672c                __sseek
 .text.__swrite
                0x000000008003674c       0x2c /usr/local/avr32-gnu-toolchain-linux_x86_64/bin/../lib/gcc/avr32/4.4.7/../../../../avr32/lib/ucr3fp/libc.a(lib_a-stdio.o)
                                         0x38 (size before relaxing)
                0x000000008003674c                __swrite
 .text.__sread  0x0000000080036778       0x1c /usr/local/avr32-gnu-toolchain-linux_x86_64/bin/../lib/gcc/avr32/4.4.7/../../../../avr32/lib/ucr3fp/libc.a(lib_a-stdio.o)
                                         0x24 (size before relaxing)
                0x0000000080036778                __sread
 .text._write_r
                0x0000000080036794       0x28 /usr/local/avr32-gnu-toolchain-linux_x86_64/bin/../lib/gcc/avr32/4.4.7/../../../../avr32/lib/ucr3fp/libc.a(lib_a-writer.o)
                                         0x2c (size before relaxing)
                0x0000000080036794                _write_r
 .text._calloc_r
                0x00000000800367bc       0x58 /usr/local/avr32-gnu-toolchain-linux_x86_64/bin/../lib/gcc/avr32/4.4.7/../../../../avr32/lib/ucr3fp/libc.a(lib_a-callocr.o)
                                         0x60 (size before relaxing)
                0x00000000800367bc                _calloc_r
 .text._close_r
                0x0000000080036814       0x24 /usr/local/avr32-gnu-toolchain-linux_x86_64/bin/../lib/gcc/avr32/4.4.7/../../../../avr32/lib/ucr3fp/libc.a(lib_a-closer.o)
                                         0x28 (size before relaxing)
                0x0000000080036814                _close_r
 .text._fclose_r
                0x0000000080036838       0xbc /usr/local/avr32-gnu-toolchain-linux_x86_64/bin/../lib/gcc/avr32/4.4.7/../../../../avr32/lib/ucr3fp/libc.a(lib_a-fclose.o)
                                         0xd0 (size before relaxing)
                0x0000000080036838                _fclose_r
 .text.fclose   0x00000000800368f4       0x10 /usr/local/avr32-gnu-toolchain-linux_x86_64/bin/../lib/gcc/avr32/4.4.7/../../../../avr32/lib/ucr3fp/libc.a(lib_a-fclose.o)
                                         0x18 (size before relaxing)
                0x00000000800368f4                fclose
 .text._fstat_r
                0x0000000080036904       0x28 /usr/local/avr32-gnu-toolchain-linux_x86_64/bin/../lib/gcc/avr32/4.4.7/../../../../avr32/lib/ucr3fp/libc.a(lib_a-fstatr.o)
                                         0x2c (size before relaxing)
                0x0000000080036904                _fstat_r
 .text._lseek_r
                0x000000008003692c       0x28 /usr/local/avr32-gnu-toolchain-linux_x86_64/bin/../lib/gcc/avr32/4.4.7/../../../../avr32/lib/ucr3fp/libc.a(lib_a-lseekr.o)
                                         0x2c (size before relaxing)
                0x000000008003692c                _lseek_r
 .text._read_r  0x0000000080036954       0x28 /usr/local/avr32-gnu-toolchain-linux_x86_64/bin/../lib/gcc/avr32/4.4.7/../../../../avr32/lib/ucr3fp/libc.a(lib_a-readr.o)
                                         0x2c (size before relaxing)
                0x0000000080036954                _read_r
 *(.text.*personality*)
 *(.gnu.warning)

.exception      0x0000000080036a00      0x200
 .exception     0x0000000080036a00      0x200 ./Debug_Linux/obj/intc_exception.S.o
                0x0000000080036a00                _evba
                0x0000000080036b3c                ipr_val

.fini
 *(.fini)
                0x0000000080036c00                PROVIDE (__etext, .)
                0x0000000080036c00                PROVIDE (_etext, .)
                0x0000000080036c00                PROVIDE (etext, .)

.rodata         0x0000000080036c00    0x12994
 *(.rodata .rodata.* .gnu.linkonce.r.*)
 .rodata.str1.4
                0x0000000080036c00       0x13 ./Debug_Linux/obj/src_main.cpp.o
                                         0x14 (size before relaxing)
 *fill*         0x0000000080036c13        0x1 
 .rodata.str1.4
                0x0000000080036c14       0x60 ./Debug_Linux/obj/src_boardsupport.c.o
 .rodata.str1.4
                0x0000000080036c74      0x4f5 ./Debug_Linux/obj/src_mavlink_telemetry.c.o
                                        0x4f8 (size before relaxing)
 *fill*         0x0000000080037169        0x3 
 .rodata.C.988.30007
                0x000000008003716c       0x50 ./Debug_Linux/obj/src_central_data.c.o
 .rodata.stabiliser_defaults_copter
                0x00000000800371bc      0x3c4 ./Debug_Linux/obj/src_central_data.c.o
 .rodata.C.989.30008
                0x0000000080037580       0x18 ./Debug_Linux/obj/src_central_data.c.o
 .rodata.C.987.30004
                0x0000000080037598        0xc ./Debug_Linux/obj/src_central_data.c.o
 .rodata.C.990.30009
                0x00000000800375a4       0x1c ./Debug_Linux/obj/src_central_data.c.o
 .rodata.C.991.30010
                0x00000000800375c0        0xc ./Debug_Linux/obj/src_central_data.c.o
 .rodata        0x00000000800375cc       0x28 ./Debug_Linux/obj/communication_mavlink_stream.c.o
 .rodata.mavlink_message_crcs.1925
                0x00000000800375f4      0x100 ./Debug_Linux/obj/communication_mavlink_stream.c.o
 .rodata.str1.4
                0x00000000800376f4      0x4a4 ./Debug_Linux/obj/communication_mavlink_waypoint_handler.c.o
                                        0x4b0 (size before relaxing)
 .rodata.str1.4
                0x0000000080037b98      0x1c8 ./Debug_Linux/obj/communication_onboard_parameters.c.o
                                        0x1cc (size before relaxing)
 .rodata.str1.4
                0x0000000080037d60      0x16a ./Debug_Linux/obj/communication_mavlink_message_handler.c.o
                                        0x178 (size before relaxing)
 *fill*         0x0000000080037eca        0x2 
 .rodata.str1.4
                0x0000000080037ecc       0x6f ./Debug_Linux/obj/communication_mavlink_communication.c.o
                                         0x74 (size before relaxing)
 *fill*         0x0000000080037f3b        0x1 
 .rodata.str1.4
                0x0000000080037f3c       0x42 ./Debug_Linux/obj/communication_state.c.o
                                         0x4c (size before relaxing)
 *fill*         0x0000000080037f7e        0x2 
 .rodata.str1.4
                0x0000000080037f80       0x1d ./Debug_Linux/obj/communication_hud.c.o
                                         0x20 (size before relaxing)
 *fill*         0x0000000080037f9d        0x3 
 .rodata.str1.4
                0x0000000080037fa0       0x33 ./Debug_Linux/obj/communication_state_machine.c.o
                                         0x34 (size before relaxing)
 *fill*         0x0000000080037fd3        0x1 
 .rodata        0x0000000080037fd4       0x78 ./Debug_Linux/obj/communication_data_logging.c.o
 .rodata.str1.4
                0x000000008003804c      0x446 ./Debug_Linux/obj/communication_data_logging.c.o
                                        0x454 (size before relaxing)
 *fill*         0x0000000080038492        0x2 
 .rodata.str1.4
                0x0000000080038494      0x1bf ./Debug_Linux/obj/control_navigation.c.o
                                        0x1dc (size before relaxing)
 *fill*         0x0000000080038653        0x1 
 .rodata.str1.4
                0x0000000080038654       0x1d ./Debug_Linux/obj/control_stabilisation_copter.c.o
                                         0x20 (size before relaxing)
 *fill*         0x0000000080038671        0x3 
 .rodata.str1.4
                0x0000000080038674       0x16 ./Debug_Linux/obj/control_stabilisation.c.o
                                         0x18 (size before relaxing)
 *fill*         0x000000008003868a        0x2 
 .rodata.str1.4
                0x000000008003868c       0x34 ./Debug_Linux/obj/control_joystick_parsing.c.o
 .rodata.C.1001.28362
                0x00000000800386c0        0x4 ./Debug_Linux/obj/hal_bmp085.c.o
 .rodata.str1.4
                0x00000000800386c4       0x6f ./Debug_Linux/obj/hal_bmp085.c.o
                                         0x70 (size before relaxing)
 *fill*         0x0000000080038733        0x1 
 .rodata.C.1000.28361
                0x0000000080038734        0x4 ./Debug_Linux/obj/hal_bmp085.c.o
 .rodata.LED_DESCRIPTOR
                0x0000000080038738       0x30 ./Debug_Linux/obj/hal_led.c.o
 .rodata.ADCIFA_GPIO_MAP
                0x0000000080038768       0x26 ./Debug_Linux/obj/hal_adc_int.c.o
 *fill*         0x000000008003878e        0x2 
 .rodata.C.60.15724
                0x0000000080038790        0xc ./Debug_Linux/obj/hal_dac_dma.c.o
 .rodata.DACIFB_GPIO_MAP.15721
                0x000000008003879c        0x8 ./Debug_Linux/obj/hal_dac_dma.c.o
 .rodata.PEVC_EVS_OPTIONS.15713
                0x00000000800387a4       0x10 ./Debug_Linux/obj/hal_dac_dma.c.o
 .rodata.str1.4
                0x00000000800387b4       0x38 ./Debug_Linux/obj/hal_dac_dma.c.o
 .rodata.str1.4
                0x00000000800387ec       0x46 ./Debug_Linux/obj/hal_i2c_driver_int.c.o
                                         0x4c (size before relaxing)
 *fill*         0x0000000080038832        0x2 
 .rodata        0x0000000080038834       0x24 ./Debug_Linux/obj/hal_gps_ublox.c.o
 .rodata.str1.4
                0x0000000080038858      0x561 ./Debug_Linux/obj/hal_gps_ublox.c.o
                                        0x568 (size before relaxing)
 *fill*         0x0000000080038db9        0x3 
 .rodata.str1.4
                0x0000000080038dbc       0x58 ./Debug_Linux/obj/hal_hmc5883l.c.o
 .rodata.C.998.28296
                0x0000000080038e14        0x2 ./Debug_Linux/obj/hal_lsm330dlc.c.o
 .rodata.C.997.28262
                0x0000000080038e16        0x2 ./Debug_Linux/obj/hal_lsm330dlc.c.o
 .rodata.fifo_config
                0x0000000080038e18        0x4 ./Debug_Linux/obj/hal_lsm330dlc.c.o
 .rodata.str1.4
                0x0000000080038e1c       0x47 ./Debug_Linux/obj/hal_lsm330dlc.c.o
                                         0x48 (size before relaxing)
 .rodata.lsm_gyro_default_config
                0x0000000080038e63        0x6 ./Debug_Linux/obj/hal_lsm330dlc.c.o
 .rodata.lsm_acc_default_config
                0x0000000080038e69        0x6 ./Debug_Linux/obj/hal_lsm330dlc.c.o
 .rodata.USART_GPIO_MAP.29448
                0x0000000080038e6f        0x4 ./Debug_Linux/obj/hal_spektrum_satellite.c.o
 *fill*         0x0000000080038e73        0x1 
 .rodata.usart_opt.29447
                0x0000000080038e74        0xc ./Debug_Linux/obj/hal_spektrum_satellite.c.o
 .rodata.str1.4
                0x0000000080038e80       0x22 ./Debug_Linux/obj/hal_servos.c.o
                                         0x24 (size before relaxing)
 .rodata.PWM_GPIO_MAP.28140
                0x0000000080038ea2       0x10 ./Debug_Linux/obj/hal_pwm_servos.c.o
 .rodata.PWM_GPIO_MAP.28141
                0x0000000080038eb2        0xc ./Debug_Linux/obj/hal_pwm_servos.c.o
 *fill*         0x0000000080038ebe        0x2 
 .rodata.dummy_data
                0x0000000080038ec0      0x404 ./Debug_Linux/obj/hal_sd_spi.c.o
                0x0000000080038ec0                dummy_data
 .rodata.SD_MMC_SPI_GPIO_MAP.15844
                0x00000000800392c4        0x8 ./Debug_Linux/obj/hal_sd_spi.c.o
 .rodata.str1.4
                0x00000000800392cc      0x335 ./Debug_Linux/obj/hal_sd_spi.c.o
                                        0x340 (size before relaxing)
 *fill*         0x0000000080039601        0x3 
 .rodata.C.77.15867
                0x0000000080039604       0x10 ./Debug_Linux/obj/hal_sd_spi.c.o
 .rodata.str1.4
                0x0000000080039614       0xf6 ./Debug_Linux/obj/runtime_scheduler.c.o
                                         0xf8 (size before relaxing)
 *fill*         0x000000008003970a        0x2 
 .rodata.str1.4
                0x000000008003970c       0xf3 ./Debug_Linux/obj/sensing_position_estimation.c.o
                                        0x118 (size before relaxing)
 *fill*         0x00000000800397ff        0x1 
 .rodata.str1.4
                0x0000000080039800       0x19 ./Debug_Linux/obj/sensing_qfilter.c.o
                                         0x1c (size before relaxing)
 *fill*         0x0000000080039819        0x3 
 .rodata.str1.4
                0x000000008003981c       0xb6 ./Debug_Linux/obj/sensing_simulation.c.o
                                        0x124 (size before relaxing)
 *fill*         0x00000000800398d2        0x2 
 .rodata.alphabet
                0x00000000800398d4       0x24 ./Debug_Linux/obj/util_print_util.c.o
 .rodata.str1.4
                0x00000000800398f8        0xb ./Debug_Linux/obj/util_print_util.c.o
                                         0x20 (size before relaxing)
 *fill*         0x0000000080039903        0x1 
 .rodata.acos_y
                0x0000000080039904       0xc8 ./Debug_Linux/obj/util_quick_trig.c.o
                0x0000000080039904                acos_y
 .rodata.sin_y  0x00000000800399cc       0xc8 ./Debug_Linux/obj/util_quick_trig.c.o
                0x00000000800399cc                sin_y
 .rodata.atan_y
                0x0000000080039a94       0xc8 ./Debug_Linux/obj/util_quick_trig.c.o
                0x0000000080039a94                atan_y
 .rodata.tan_y  0x0000000080039b5c       0xc8 ./Debug_Linux/obj/util_quick_trig.c.o
                0x0000000080039b5c                tan_y
 .rodata.str1.4
                0x0000000080039c24      0x462 ./Debug_Linux/obj/fat_fs_diskio.c.o
                                        0x490 (size before relaxing)
 *fill*         0x000000008003a086        0x2 
 .rodata        0x000000008003a088       0x5c ./Debug_Linux/obj/fat_fs_ff.c.o
 .rodata.str1.4
                0x000000008003a0e4       0x13 ./Debug_Linux/obj/fat_fs_ff.c.o
                                         0x14 (size before relaxing)
 *fill*         0x000000008003a0f7        0x1 
 .rodata.tbl_lower.1527
                0x000000008003a0f8      0x1e0 ./Debug_Linux/obj/option_cc932.c.o
 .rodata.uni2sjis
                0x000000008003a2d8     0x7378 ./Debug_Linux/obj/option_cc932.c.o
 .rodata.tbl_upper.1528
                0x0000000080041650      0x1e0 ./Debug_Linux/obj/option_cc932.c.o
 .rodata.sjis2uni
                0x0000000080041830     0x7378 ./Debug_Linux/obj/option_cc932.c.o
 .rodata.str1.4
                0x0000000080048ba8        0xb ./Debug_Linux/obj/usart_usart.c.o
                                          0xc (size before relaxing)
 *fill*         0x0000000080048bb3        0x1 
 .rodata._int_handler_table
                0x0000000080048bb4      0x178 ./Debug_Linux/obj/intc_intc.c.o
 .rodata.FLASH_SIZE.14153
                0x0000000080048d2c       0x40 ./Debug_Linux/obj/flashc_flashc.c.o
 .rodata        0x0000000080048d6c       0x20 ./Debug_Linux/obj/gpio_gpio.c.o
 .rodata.str1.4
                0x0000000080048d8c        0x5 /usr/local/avr32-gnu-toolchain-linux_x86_64/bin/../lib/gcc/avr32/4.4.7/../../../../avr32/lib/ucr3fp/libm.a(lib_a-w_asin.o)
                                          0xc (size before relaxing)
 *fill*         0x0000000080048d91        0x3 
 .rodata.str1.4
                0x0000000080048d94        0x5 /usr/local/avr32-gnu-toolchain-linux_x86_64/bin/../lib/gcc/avr32/4.4.7/../../../../avr32/lib/ucr3fp/libm.a(lib_a-w_fmod.o)
                                          0x8 (size before relaxing)
 *fill*         0x0000000080048d99        0x3 
 .rodata.str1.4
                0x0000000080048d9c        0x4 /usr/local/avr32-gnu-toolchain-linux_x86_64/bin/../lib/gcc/avr32/4.4.7/../../../../avr32/lib/ucr3fp/libm.a(lib_a-w_pow.o)
 .rodata.str1.4
                0x0000000080048da0        0x5 /usr/local/avr32-gnu-toolchain-linux_x86_64/bin/../lib/gcc/avr32/4.4.7/../../../../avr32/lib/ucr3fp/libm.a(lib_a-w_sqrt.o)
                                          0x8 (size before relaxing)
 *fill*         0x0000000080048da5        0x3 
 .rodata.Zero   0x0000000080048da8       0x10 /usr/local/avr32-gnu-toolchain-linux_x86_64/bin/../lib/gcc/avr32/4.4.7/../../../../avr32/lib/ucr3fp/libm.a(lib_a-e_fmod.o)
 .rodata.dp_h   0x0000000080048db8       0x10 /usr/local/avr32-gnu-toolchain-linux_x86_64/bin/../lib/gcc/avr32/4.4.7/../../../../avr32/lib/ucr3fp/libm.a(lib_a-e_pow.o)
 .rodata.dp_l   0x0000000080048dc8       0x10 /usr/local/avr32-gnu-toolchain-linux_x86_64/bin/../lib/gcc/avr32/4.4.7/../../../../avr32/lib/ucr3fp/libm.a(lib_a-e_pow.o)
 .rodata.bp     0x0000000080048dd8       0x10 /usr/local/avr32-gnu-toolchain-linux_x86_64/bin/../lib/gcc/avr32/4.4.7/../../../../avr32/lib/ucr3fp/libm.a(lib_a-e_pow.o)
 .rodata.str1.4
                0x0000000000000000        0x4 /usr/local/avr32-gnu-toolchain-linux_x86_64/bin/../lib/gcc/avr32/4.4.7/../../../../avr32/lib/ucr3fp/libm.a(lib_a-e_pow.o)
 .rodata.npio2_hw
                0x0000000080048de8       0x80 /usr/local/avr32-gnu-toolchain-linux_x86_64/bin/../lib/gcc/avr32/4.4.7/../../../../avr32/lib/ucr3fp/libm.a(lib_a-e_rem_pio2.o)
 .rodata.two_over_pi
                0x0000000080048e68      0x108 /usr/local/avr32-gnu-toolchain-linux_x86_64/bin/../lib/gcc/avr32/4.4.7/../../../../avr32/lib/ucr3fp/libm.a(lib_a-e_rem_pio2.o)
 .rodata.init_jk
                0x0000000080048f70       0x10 /usr/local/avr32-gnu-toolchain-linux_x86_64/bin/../lib/gcc/avr32/4.4.7/../../../../avr32/lib/ucr3fp/libm.a(lib_a-k_rem_pio2.o)
 .rodata.PIo2   0x0000000080048f80       0x40 /usr/local/avr32-gnu-toolchain-linux_x86_64/bin/../lib/gcc/avr32/4.4.7/../../../../avr32/lib/ucr3fp/libm.a(lib_a-k_rem_pio2.o)
 .rodata.atanlo
                0x0000000080048fc0       0x20 /usr/local/avr32-gnu-toolchain-linux_x86_64/bin/../lib/gcc/avr32/4.4.7/../../../../avr32/lib/ucr3fp/libm.a(lib_a-s_atan.o)
 .rodata.atanhi
                0x0000000080048fe0       0x20 /usr/local/avr32-gnu-toolchain-linux_x86_64/bin/../lib/gcc/avr32/4.4.7/../../../../avr32/lib/ucr3fp/libm.a(lib_a-s_atan.o)
 .rodata.TWO52  0x0000000080049000       0x10 /usr/local/avr32-gnu-toolchain-linux_x86_64/bin/../lib/gcc/avr32/4.4.7/../../../../avr32/lib/ucr3fp/libm.a(lib_a-s_rint.o)
 .rodata.str1.4
                0x0000000080049010        0x2 /usr/local/avr32-gnu-toolchain-linux_x86_64/bin/../lib/gcc/avr32/4.4.7/../../../../avr32/lib/ucr3fp/libc.a(lib_a-impure.o)
                                          0x4 (size before relaxing)
 *fill*         0x0000000080049012        0x2 
 .rodata._global_impure_ptr
                0x0000000080049014        0x4 /usr/local/avr32-gnu-toolchain-linux_x86_64/bin/../lib/gcc/avr32/4.4.7/../../../../avr32/lib/ucr3fp/libc.a(lib_a-impure.o)
                0x0000000080049014                _global_impure_ptr
 .rodata.get_arg
                0x0000000080049018       0x3c /usr/local/avr32-gnu-toolchain-linux_x86_64/bin/../lib/gcc/avr32/4.4.7/../../../../avr32/lib/ucr3fp/libc.a(lib_a-vfprintf.o)
 .rodata._vfprintf_r
                0x0000000080049054      0x164 /usr/local/avr32-gnu-toolchain-linux_x86_64/bin/../lib/gcc/avr32/4.4.7/../../../../avr32/lib/ucr3fp/libc.a(lib_a-vfprintf.o)
 .rodata.state_table
                0x00000000800491b8       0x6c /usr/local/avr32-gnu-toolchain-linux_x86_64/bin/../lib/gcc/avr32/4.4.7/../../../../avr32/lib/ucr3fp/libc.a(lib_a-vfprintf.o)
 .rodata.action_table
                0x0000000080049224       0x6c /usr/local/avr32-gnu-toolchain-linux_x86_64/bin/../lib/gcc/avr32/4.4.7/../../../../avr32/lib/ucr3fp/libc.a(lib_a-vfprintf.o)
 .rodata.str1.4
                0x0000000080049290       0x3a /usr/local/avr32-gnu-toolchain-linux_x86_64/bin/../lib/gcc/avr32/4.4.7/../../../../avr32/lib/ucr3fp/libc.a(lib_a-vfprintf.o)
                                         0x3c (size before relaxing)
 *fill*         0x00000000800492ca        0x2 
 .rodata.blanks.3430
                0x00000000800492cc       0x10 /usr/local/avr32-gnu-toolchain-linux_x86_64/bin/../lib/gcc/avr32/4.4.7/../../../../avr32/lib/ucr3fp/libc.a(lib_a-vfprintf.o)
 .rodata.zeroes.3431
                0x00000000800492dc       0x10 /usr/local/avr32-gnu-toolchain-linux_x86_64/bin/../lib/gcc/avr32/4.4.7/../../../../avr32/lib/ucr3fp/libc.a(lib_a-vfprintf.o)
 .rodata.chclass
                0x00000000800492ec      0x100 /usr/local/avr32-gnu-toolchain-linux_x86_64/bin/../lib/gcc/avr32/4.4.7/../../../../avr32/lib/ucr3fp/libc.a(lib_a-vfprintf.o)
 .rodata.str1.4
                0x00000000800493ec       0x10 /usr/local/avr32-gnu-toolchain-linux_x86_64/bin/../lib/gcc/avr32/4.4.7/../../../../avr32/lib/ucr3fp/libc.a(lib_a-dtoa.o)
                                         0x14 (size before relaxing)
 .rodata.__sf_fake_stdin
                0x00000000800493fc       0x20 /usr/local/avr32-gnu-toolchain-linux_x86_64/bin/../lib/gcc/avr32/4.4.7/../../../../avr32/lib/ucr3fp/libc.a(lib_a-findfp.o)
                0x00000000800493fc                __sf_fake_stdin
 .rodata.__sf_fake_stdout
                0x000000008004941c       0x20 /usr/local/avr32-gnu-toolchain-linux_x86_64/bin/../lib/gcc/avr32/4.4.7/../../../../avr32/lib/ucr3fp/libc.a(lib_a-findfp.o)
                0x000000008004941c                __sf_fake_stdout
 .rodata.__sf_fake_stderr
                0x000000008004943c       0x20 /usr/local/avr32-gnu-toolchain-linux_x86_64/bin/../lib/gcc/avr32/4.4.7/../../../../avr32/lib/ucr3fp/libc.a(lib_a-findfp.o)
                0x000000008004943c                __sf_fake_stderr
 .rodata.lconv  0x000000008004945c       0x30 /usr/local/avr32-gnu-toolchain-linux_x86_64/bin/../lib/gcc/avr32/4.4.7/../../../../avr32/lib/ucr3fp/libc.a(lib_a-locale.o)
 .rodata.str1.4
                0x000000008004948c        0xc /usr/local/avr32-gnu-toolchain-linux_x86_64/bin/../lib/gcc/avr32/4.4.7/../../../../avr32/lib/ucr3fp/libc.a(lib_a-locale.o)
                                         0x18 (size before relaxing)
 .rodata.p05.2471
                0x0000000080049498        0xc /usr/local/avr32-gnu-toolchain-linux_x86_64/bin/../lib/gcc/avr32/4.4.7/../../../../avr32/lib/ucr3fp/libc.a(lib_a-mprec.o)
 .rodata.__mprec_tens
                0x00000000800494a4       0xc8 /usr/local/avr32-gnu-toolchain-linux_x86_64/bin/../lib/gcc/avr32/4.4.7/../../../../avr32/lib/ucr3fp/libc.a(lib_a-mprec.o)
                0x00000000800494a4                __mprec_tens
 .rodata.__mprec_bigtens
                0x000000008004956c       0x28 /usr/local/avr32-gnu-toolchain-linux_x86_64/bin/../lib/gcc/avr32/4.4.7/../../../../avr32/lib/ucr3fp/libc.a(lib_a-mprec.o)
                0x000000008004956c                __mprec_bigtens

.rodata1
 *(.rodata1)

.eh_frame_hdr
 *(.eh_frame_hdr)

.eh_frame
 *(.eh_frame)

.gcc_except_table
 *(.gcc_except_table)
 *(.gcc_except_table.*)

.dalign         0x0000000080049594        0x4
                0x0000000080049598                . = ALIGN (0x8)
 *fill*         0x0000000080049594        0x4 
                0x0000000080049598                PROVIDE (_data_lma, .)
                0x0000000000000004                PROVIDE (_data, ORIGIN (CPUSRAM))
                0x0000000000000004                . = ORIGIN (CPUSRAM)

.eh_frame
 *(.eh_frame)

.gcc_except_table
 *(.gcc_except_table)
 *(.gcc_except_table.*)

.tdata
 *(.tdata .tdata.* .gnu.linkonce.td.*)

.tbss
 *(.tbss .tbss.* .gnu.linkonce.tb.*)
 *(.tcommon)
                0x0000000000000004                PROVIDE (__preinit_array_start, ALIGN (0x4))

.preinit_array
 *(.preinit_array)
                0x0000000000000004                PROVIDE (__preinit_array_end, .)
                0x0000000000000004                PROVIDE (__init_array_start, .)

.init_array
 *(.init_array)
                0x0000000000000004                PROVIDE (__init_array_end, .)
                0x0000000000000004                PROVIDE (__fini_array_start, .)

.fini_array
 *(.fini_array)
                0x0000000000000004                PROVIDE (__fini_array_end, .)

.ctors
 *crtbegin*.o(.ctors)
 *(EXCLUDE_FILE(*crtend*.o) .ctors)
 *(SORT(.ctors.*))
 *(.ctors)

.dtors
 *crtbegin*.o(.dtors)
 *(EXCLUDE_FILE(*crtend*.o) .dtors)
 *(SORT(.dtors.*))
 *(.dtors)

.jcr
 *(.jcr)

.data.rel.ro
 *(.data.rel.ro.local)
 *(.data.rel.ro*)

.dynamic
 *(.dynamic)

.got
 *(.got.plt)
 *(.got)

.data           0x0000000000000004      0x6cc load address 0x0000000080049598
 *(.data .data.* .gnu.linkonce.d.*)
 .data.LED_State
                0x0000000000000004        0x4 ./Debug_Linux/obj/hal_led.c.o
 .data.PDCA_TX_OPTIONS.15127
                0x0000000000000008       0x1c ./Debug_Linux/obj/hal_spi_buffered.c.o
 .data.PDCA_RX_OPTIONS.15128
                0x0000000000000024       0x1c ./Debug_Linux/obj/hal_spi_buffered.c.o
 .data.adcifa   0x0000000000000040        0x4 ./Debug_Linux/obj/hal_adc_int.c.o
                0x0000000000000040                adcifa
 .data.adc_config_options
                0x0000000000000044       0x14 ./Debug_Linux/obj/hal_adc_int.c.o
                0x0000000000000044                adc_config_options
 .data.adcifa_sequence_opt
                0x0000000000000058        0x7 ./Debug_Linux/obj/hal_adc_int.c.o
                0x0000000000000058                adcifa_sequence_opt
 *fill*         0x000000000000005f        0x1 
 .data.ppevc    0x0000000000000060        0x4 ./Debug_Linux/obj/hal_dac_dma.c.o
                0x0000000000000060                ppevc
 .data.dac_channel_audio
                0x0000000000000064        0x1 ./Debug_Linux/obj/hal_dac_dma.c.o
                0x0000000000000064                dac_channel_audio
 *fill*         0x0000000000000065        0x3 
 .data.PDCA_OPTIONS.15741
                0x0000000000000068       0x1c ./Debug_Linux/obj/hal_dac_dma.c.o
 .data.dacifb   0x0000000000000084        0x4 ./Debug_Linux/obj/hal_dac_dma.c.o
                0x0000000000000084                dacifb
 .data.twi_opt.28666
                0x0000000000000088       0x10 ./Debug_Linux/obj/hal_i2c_driver_int.c.o
 .data.ubx_last_vel_ned_message
                0x0000000000000098        0x4 ./Debug_Linux/obj/hal_gps_ublox.c.o
                0x0000000000000098                ubx_last_vel_ned_message
 .data.ubx_last_tim_tp_message
                0x000000000000009c        0x4 ./Debug_Linux/obj/hal_gps_ublox.c.o
                0x000000000000009c                ubx_last_tim_tp_message
 .data.ubx_current_sv_info_message
                0x00000000000000a0        0x4 ./Debug_Linux/obj/hal_gps_ublox.c.o
                0x00000000000000a0                ubx_current_sv_info_message
 .data.ubx_current_tim_tp_message
                0x00000000000000a4        0x4 ./Debug_Linux/obj/hal_gps_ublox.c.o
                0x00000000000000a4                ubx_current_tim_tp_message
 .data.ubx_current_mon_rxr_message
                0x00000000000000a8        0x4 ./Debug_Linux/obj/hal_gps_ublox.c.o
                0x00000000000000a8                ubx_current_mon_rxr_message
 .data.ubx_current_cfg_rate_message
                0x00000000000000ac        0x4 ./Debug_Linux/obj/hal_gps_ublox.c.o
                0x00000000000000ac                ubx_current_cfg_rate_message
 .data.num_skipped_msg
                0x00000000000000b0        0x1 ./Debug_Linux/obj/hal_gps_ublox.c.o
                0x00000000000000b0                num_skipped_msg
 *fill*         0x00000000000000b1        0x3 
 .data.ubx_current_nav_settings_message
                0x00000000000000b4        0x4 ./Debug_Linux/obj/hal_gps_ublox.c.o
                0x00000000000000b4                ubx_current_nav_settings_message
 .data.ubx_current_tim_vrfy_message
                0x00000000000000b8        0x4 ./Debug_Linux/obj/hal_gps_ublox.c.o
                0x00000000000000b8                ubx_current_tim_vrfy_message
 .data.ubx_last_cfg_set_get_rate_message
                0x00000000000000bc        0x4 ./Debug_Linux/obj/hal_gps_ublox.c.o
                0x00000000000000bc                ubx_last_cfg_set_get_rate_message
 .data.ubx_current_status_message
                0x00000000000000c0        0x4 ./Debug_Linux/obj/hal_gps_ublox.c.o
                0x00000000000000c0                ubx_current_status_message
 .data.ubx_current_pos_llh_message
                0x00000000000000c4        0x4 ./Debug_Linux/obj/hal_gps_ublox.c.o
                0x00000000000000c4                ubx_current_pos_llh_message
 .data.ubx_last_status_message
                0x00000000000000c8        0x4 ./Debug_Linux/obj/hal_gps_ublox.c.o
                0x00000000000000c8                ubx_last_status_message
 .data.ubx_current_vel_ned_message
                0x00000000000000cc        0x4 ./Debug_Linux/obj/hal_gps_ublox.c.o
                0x00000000000000cc                ubx_current_vel_ned_message
 .data.ubx_last_sv_info_message
                0x00000000000000d0        0x4 ./Debug_Linux/obj/hal_gps_ublox.c.o
                0x00000000000000d0                ubx_last_sv_info_message
 .data.ubx_last_mon_rxr_message
                0x00000000000000d4        0x4 ./Debug_Linux/obj/hal_gps_ublox.c.o
                0x00000000000000d4                ubx_last_mon_rxr_message
 .data.ubx_current_solution_message
                0x00000000000000d8        0x4 ./Debug_Linux/obj/hal_gps_ublox.c.o
                0x00000000000000d8                ubx_current_solution_message
 .data.ubx_last_tim_vrfy_message
                0x00000000000000dc        0x4 ./Debug_Linux/obj/hal_gps_ublox.c.o
                0x00000000000000dc                ubx_last_tim_vrfy_message
 .data.ubx_last_cfg_rate_message
                0x00000000000000e0        0x4 ./Debug_Linux/obj/hal_gps_ublox.c.o
                0x00000000000000e0                ubx_last_cfg_rate_message
 .data.ubx_current_cfg_set_get_rate_message
                0x00000000000000e4        0x4 ./Debug_Linux/obj/hal_gps_ublox.c.o
                0x00000000000000e4                ubx_current_cfg_set_get_rate_message
 .data.ubx_last_solution_message
                0x00000000000000e8        0x4 ./Debug_Linux/obj/hal_gps_ublox.c.o
                0x00000000000000e8                ubx_last_solution_message
 .data.ubx_last_pos_llh_message
                0x00000000000000ec        0x4 ./Debug_Linux/obj/hal_gps_ublox.c.o
                0x00000000000000ec                ubx_last_pos_llh_message
 .data.ubx_last_nav_settings_message
                0x00000000000000f0        0x4 ./Debug_Linux/obj/hal_gps_ublox.c.o
                0x00000000000000f0                ubx_last_nav_settings_message
 .data.compass_default_configuration.14952
                0x00000000000000f4        0x4 ./Debug_Linux/obj/hal_hmc5883l.c.o
 .data.flashc_wait_until_ready
                0x00000000000000f8        0x4 ./Debug_Linux/obj/flashc_flashc.c.o
                0x00000000000000f8                flashc_wait_until_ready
 .data.udc_string_product_name
                0x00000000000000fc        0x4 ./Debug_Linux/obj/udc_udc.c.o
 .data.udc_string_manufacturer_name
                0x0000000000000100        0xc ./Debug_Linux/obj/udc_udc.c.o
 .data.udc_string_desc
                0x000000000000010c       0x14 ./Debug_Linux/obj/udc_udc.c.o
 .data.udc_string_desc_languageid
                0x0000000000000120        0x4 ./Debug_Linux/obj/udc_udc.c.o
 .data.udi_api_cdc_data
                0x0000000000000124       0x14 ./Debug_Linux/obj/device_udi_cdc.c.o
                0x0000000000000124                udi_api_cdc_data
 .data.udi_api_cdc_comm
                0x0000000000000138       0x14 ./Debug_Linux/obj/device_udi_cdc.c.o
                0x0000000000000138                udi_api_cdc_comm
 .data.uid_cdc_state_msg
                0x000000000000014c        0xc ./Debug_Linux/obj/device_udi_cdc.c.o
 .data.udc_desc
                0x0000000000000158       0x44 ./Debug_Linux/obj/device_udi_cdc_desc.c.o
                0x0000000000000158                udc_desc
 .data.udc_config_fshs
                0x000000000000019c        0x8 ./Debug_Linux/obj/device_udi_cdc_desc.c.o
                0x000000000000019c                udc_config_fshs
 .data.udi_apis
                0x00000000000001a4        0x8 ./Debug_Linux/obj/device_udi_cdc_desc.c.o
                0x00000000000001a4                udi_apis
 .data.udc_config
                0x00000000000001ac        0x8 ./Debug_Linux/obj/device_udi_cdc_desc.c.o
                0x00000000000001ac                udc_config
 .data.udc_device_desc
                0x00000000000001b4       0x14 ./Debug_Linux/obj/device_udi_cdc_desc.c.o
                0x00000000000001b4                udc_device_desc
 .data.__fdlib_version
                0x00000000000001c8        0x4 /usr/local/avr32-gnu-toolchain-linux_x86_64/bin/../lib/gcc/avr32/4.4.7/../../../../avr32/lib/ucr3fp/libm.a(lib_a-s_lib_ver.o)
                0x00000000000001c8                __fdlib_version
 .data.impure_data
                0x00000000000001cc       0xf0 /usr/local/avr32-gnu-toolchain-linux_x86_64/bin/../lib/gcc/avr32/4.4.7/../../../../avr32/lib/ucr3fp/libc.a(lib_a-impure.o)
 .data._impure_ptr
                0x00000000000002bc        0x4 /usr/local/avr32-gnu-toolchain-linux_x86_64/bin/../lib/gcc/avr32/4.4.7/../../../../avr32/lib/ucr3fp/libc.a(lib_a-impure.o)
                0x00000000000002bc                _impure_ptr
 .data.__malloc_av_
                0x00000000000002c0      0x408 /usr/local/avr32-gnu-toolchain-linux_x86_64/bin/../lib/gcc/avr32/4.4.7/../../../../avr32/lib/ucr3fp/libc.a(lib_a-mallocr.o)
                0x00000000000002c0                __malloc_av_
 .data.__malloc_trim_threshold
                0x00000000000006c8        0x4 /usr/local/avr32-gnu-toolchain-linux_x86_64/bin/../lib/gcc/avr32/4.4.7/../../../../avr32/lib/ucr3fp/libc.a(lib_a-mallocr.o)
                0x00000000000006c8                __malloc_trim_threshold
 .data.__malloc_sbrk_base
                0x00000000000006cc        0x4 /usr/local/avr32-gnu-toolchain-linux_x86_64/bin/../lib/gcc/avr32/4.4.7/../../../../avr32/lib/ucr3fp/libc.a(lib_a-mallocr.o)
                0x00000000000006cc                __malloc_sbrk_base
 *(.gnu.linkonce.d.*personality*)

.data1
 *(.data1)

.balign         0x00000000000006d0        0x0 load address 0x0000000080049c64
                0x00000000000006d0                . = ALIGN (0x8)
                0x00000000000006d0                _edata = .
                0x00000000000006d0                _edata = .
                0x00000000000006d0                PROVIDE (edata, .)
                0x00000000000006d0                __bss_start = .

.bss            0x00000000000006e0     0x82c0 load address 0x0000000080049c80
 *(.dynbss)
 *(.bss .bss.* .gnu.linkonce.b.*)
 .bss.last_fix_time
                0x00000000000006e0        0x4 ./Debug_Linux/obj/src_main.cpp.o
                0x00000000000006e0                last_fix_time
 .bss.new_speed
                0x00000000000006e4        0x1 ./Debug_Linux/obj/src_main.cpp.o
                0x00000000000006e4                new_speed
 .bss.msg_id    0x00000000000006e5        0x1 ./Debug_Linux/obj/src_main.cpp.o
                0x00000000000006e5                msg_id
 .bss.payload_length
                0x00000000000006e6        0x2 ./Debug_Linux/obj/src_main.cpp.o
                0x00000000000006e6                payload_length
 .bss.new_position
                0x00000000000006e8        0x1 ./Debug_Linux/obj/src_main.cpp.o
                0x00000000000006e8                new_position
 *fill*         0x00000000000006e9        0x1 
 .bss.payload_counter
                0x00000000000006ea        0x2 ./Debug_Linux/obj/src_main.cpp.o
                0x00000000000006ea                payload_counter
 .bss.central_data
                0x00000000000006ec        0x4 ./Debug_Linux/obj/src_main.cpp.o
                0x00000000000006ec                central_data
 .bss.idle_timer
                0x00000000000006f0        0x4 ./Debug_Linux/obj/src_main.cpp.o
                0x00000000000006f0                idle_timer
 .bss.idle_timeout
                0x00000000000006f4        0x4 ./Debug_Linux/obj/src_main.cpp.o
                0x00000000000006f4                idle_timeout
 .bss.disable_counter
                0x00000000000006f8        0x1 ./Debug_Linux/obj/src_main.cpp.o
                0x00000000000006f8                disable_counter
 .bss.step      0x00000000000006f9        0x1 ./Debug_Linux/obj/src_main.cpp.o
                0x00000000000006f9                step
 .bss.cksum_a   0x00000000000006fa        0x1 ./Debug_Linux/obj/src_main.cpp.o
                0x00000000000006fa                cksum_a
 .bss.cksum_b   0x00000000000006fb        0x1 ./Debug_Linux/obj/src_main.cpp.o
                0x00000000000006fb                cksum_b
 .bss.engine_nav_setting
                0x00000000000006fc        0x4 ./Debug_Linux/obj/src_main.cpp.o
                0x00000000000006fc                engine_nav_setting
 .bss.have_raw_velocity
                0x0000000000000700        0x1 ./Debug_Linux/obj/src_main.cpp.o
                0x0000000000000700                have_raw_velocity
 .bss.next_fix  0x0000000000000701        0x1 ./Debug_Linux/obj/src_main.cpp.o
                0x0000000000000701                next_fix
 *fill*         0x0000000000000702        0x2 
 .bss.nav_settings
                0x0000000000000704       0x24 ./Debug_Linux/obj/src_main.cpp.o
                0x0000000000000704                nav_settings
 .bss.ubx_class
                0x0000000000000728        0x1 ./Debug_Linux/obj/src_main.cpp.o
                0x0000000000000728                ubx_class
 *fill*         0x0000000000000729        0x3 
 .bss.central_data
                0x000000000000072c     0x1790 ./Debug_Linux/obj/src_central_data.c.o
 .bss.m_mavlink_buffer.1834
                0x0000000000001ebc      0x440 ./Debug_Linux/obj/communication_mavlink_stream.c.o
 .bss.m_mavlink_status.1827
                0x00000000000022fc       0x40 ./Debug_Linux/obj/communication_mavlink_stream.c.o
 .bss.m_mavlink_status.1827
                0x000000000000233c       0x40 ./Debug_Linux/obj/communication_mavlink_waypoint_handler.c.o
 .bss.m_mavlink_status.1827
                0x000000000000237c       0x40 ./Debug_Linux/obj/communication_onboard_parameters.c.o
 .bss.m_mavlink_status.1827
                0x00000000000023bc       0x40 ./Debug_Linux/obj/communication_state.c.o
 .bss.m_mavlink_status.2598
                0x00000000000023fc       0x40 ./Debug_Linux/obj/communication_hud.c.o
 .bss.m_mavlink_status.1875
                0x000000000000243c       0x40 ./Debug_Linux/obj/communication_remote.c.o
 .bss.m_mavlink_status.1827
                0x000000000000247c       0x40 ./Debug_Linux/obj/control_navigation.c.o
 .bss.m_mavlink_status.2598
                0x00000000000024bc       0x40 ./Debug_Linux/obj/control_stabilisation.c.o
 .bss.m_mavlink_status.1827
                0x00000000000024fc       0x40 ./Debug_Linux/obj/control_joystick_parsing.c.o
 .bss.m_mavlink_status.1827
                0x000000000000253c       0x40 ./Debug_Linux/obj/hal_bmp085.c.o
 .bss.usart_conf
                0x000000000000257c      0xac8 ./Debug_Linux/obj/hal_uart_int.c.o
 .bss.spi_buffers
                0x0000000000003044       0xa8 ./Debug_Linux/obj/hal_spi_buffered.c.o
 .bss.last_adc_int_time
                0x00000000000030ec        0x4 ./Debug_Linux/obj/hal_adc_int.c.o
 .bss.oversampling_divider
                0x00000000000030f0        0x4 ./Debug_Linux/obj/hal_adc_int.c.o
 .bss.channel_count
                0x00000000000030f4        0x4 ./Debug_Linux/obj/hal_adc_int.c.o
 .bss.adc_int_period
                0x00000000000030f8        0x4 ./Debug_Linux/obj/hal_adc_int.c.o
 .bss.sample_counter
                0x00000000000030fc        0x4 ./Debug_Linux/obj/hal_adc_int.c.o
 .bss.number_of_samples
                0x0000000000003100        0x4 ./Debug_Linux/obj/hal_adc_int.c.o
 .bss.oversampling
                0x0000000000003104        0x4 ./Debug_Linux/obj/hal_adc_int.c.o
 .bss.sequencer_item_count
                0x0000000000003108        0x4 ./Debug_Linux/obj/hal_adc_int.c.o
 .bss.oversampling_counter
                0x000000000000310c        0x4 ./Debug_Linux/obj/hal_adc_int.c.o
 .bss.internal_buffer
                0x0000000000003110       0x40 ./Debug_Linux/obj/hal_adc_int.c.o
 .bss.from      0x0000000000003150        0x2 ./Debug_Linux/obj/hal_dac_dma.c.o
 .bss.to        0x0000000000003152        0x2 ./Debug_Linux/obj/hal_dac_dma.c.o
 .bss.buffer    0x0000000000003154        0x4 ./Debug_Linux/obj/hal_dac_dma.c.o
 .bss.autoplay  0x0000000000003158        0x4 ./Debug_Linux/obj/hal_dac_dma.c.o
 .bss.interrupt_counter
                0x000000000000315c        0x4 ./Debug_Linux/obj/hal_ads1274.c.o
 .bss.adc_buffer
                0x0000000000003160     0x4000 ./Debug_Linux/obj/hal_ads1274.c.o
 .bss.sample_counter
                0x0000000000007160        0x4 ./Debug_Linux/obj/hal_ads1274.c.o
 .bss.function_generator
                0x0000000000007164        0x4 ./Debug_Linux/obj/hal_ads1274.c.o
 .bss.ubx_number_of_valid_tim_tp_message
                0x0000000000007168        0x2 ./Debug_Linux/obj/hal_gps_ublox.c.o
                0x0000000000007168                ubx_number_of_valid_tim_tp_message
 .bss.ubx_number_of_valid_solution_message
                0x000000000000716a        0x2 ./Debug_Linux/obj/hal_gps_ublox.c.o
                0x000000000000716a                ubx_number_of_valid_solution_message
 .bss.ubx_valid_message
                0x000000000000716c        0x4 ./Debug_Linux/obj/hal_gps_ublox.c.o
                0x000000000000716c                ubx_valid_message
 .bss.m_mavlink_status.2397
                0x0000000000007170       0x40 ./Debug_Linux/obj/hal_gps_ublox.c.o
 .bss.loop_pos_llh
                0x00000000000071b0        0x1 ./Debug_Linux/obj/hal_gps_ublox.c.o
                0x00000000000071b0                loop_pos_llh
 *fill*         0x00000000000071b1        0x1 
 .bss.ubx_number_of_valid_sv_info_message
                0x00000000000071b2        0x2 ./Debug_Linux/obj/hal_gps_ublox.c.o
                0x00000000000071b2                ubx_number_of_valid_sv_info_message
 .bss.ubx_number_of_valid_mon_rxr_message
                0x00000000000071b4        0x2 ./Debug_Linux/obj/hal_gps_ublox.c.o
                0x00000000000071b4                ubx_number_of_valid_mon_rxr_message
 *fill*         0x00000000000071b6        0x2 
 .bss.ubx_last_message
                0x00000000000071b8        0x4 ./Debug_Linux/obj/hal_gps_ublox.c.o
                0x00000000000071b8                ubx_last_message
 .bss.ubx_current_message
                0x00000000000071bc        0x4 ./Debug_Linux/obj/hal_gps_ublox.c.o
                0x00000000000071bc                ubx_current_message
 .bss.ubx_number_of_valid_tim_vrfy_message
                0x00000000000071c0        0x2 ./Debug_Linux/obj/hal_gps_ublox.c.o
                0x00000000000071c0                ubx_number_of_valid_tim_vrfy_message
 .bss.ubx_number_of_valid_status_message
                0x00000000000071c2        0x2 ./Debug_Linux/obj/hal_gps_ublox.c.o
                0x00000000000071c2                ubx_number_of_valid_status_message
 .bss.loop_vel_ned
                0x00000000000071c4        0x1 ./Debug_Linux/obj/hal_gps_ublox.c.o
                0x00000000000071c4                loop_vel_ned
 .bss.loop_tim_vrfy
                0x00000000000071c5        0x1 ./Debug_Linux/obj/hal_gps_ublox.c.o
                0x00000000000071c5                loop_tim_vrfy
 .bss.loop_tim_tp
                0x00000000000071c6        0x1 ./Debug_Linux/obj/hal_gps_ublox.c.o
                0x00000000000071c6                loop_tim_tp
 .bss.print_nav_on_debug
                0x00000000000071c7        0x1 ./Debug_Linux/obj/hal_gps_ublox.c.o
                0x00000000000071c7                print_nav_on_debug
 .bss.loop_status
                0x00000000000071c8        0x1 ./Debug_Linux/obj/hal_gps_ublox.c.o
                0x00000000000071c8                loop_status
 *fill*         0x00000000000071c9        0x1 
 .bss.ubx_number_of_valid_vel_ned_message
                0x00000000000071ca        0x2 ./Debug_Linux/obj/hal_gps_ublox.c.o
                0x00000000000071ca                ubx_number_of_valid_vel_ned_message
 .bss.loop_solution
                0x00000000000071cc        0x1 ./Debug_Linux/obj/hal_gps_ublox.c.o
                0x00000000000071cc                loop_solution
 *fill*         0x00000000000071cd        0x1 
 .bss.ubx_number_of_valid_cfg_rate_message
                0x00000000000071ce        0x2 ./Debug_Linux/obj/hal_gps_ublox.c.o
                0x00000000000071ce                ubx_number_of_valid_cfg_rate_message
 .bss.ubx_number_of_valid_cfg_set_get_rate_message
                0x00000000000071d0        0x2 ./Debug_Linux/obj/hal_gps_ublox.c.o
                0x00000000000071d0                ubx_number_of_valid_cfg_set_get_rate_message
 .bss.ubx_number_of_valid_nav_settings_message
                0x00000000000071d2        0x2 ./Debug_Linux/obj/hal_gps_ublox.c.o
                0x00000000000071d2                ubx_number_of_valid_nav_settings_message
 .bss.ubx_number_of_valid_pos_llh_message
                0x00000000000071d4        0x2 ./Debug_Linux/obj/hal_gps_ublox.c.o
                0x00000000000071d4                ubx_number_of_valid_pos_llh_message
 *fill*         0x00000000000071d6        0x2 
 .bss.m_mavlink_status.1827
                0x00000000000071d8       0x40 ./Debug_Linux/obj/hal_servos.c.o
 .bss.gl_ptr_mem
                0x0000000000007218        0x4 ./Debug_Linux/obj/hal_sd_spi.c.o
 .bss.usb_conf  0x000000000000721c        0xc ./Debug_Linux/obj/hal_usb_int.c.o
 .bss.m_mavlink_status.1827
                0x0000000000007228       0x40 ./Debug_Linux/obj/runtime_scheduler.c.o
 .bss.m_mavlink_status.2598
                0x0000000000007268       0x40 ./Debug_Linux/obj/sensing_imu.c.o
 .bss.m_mavlink_status.2598
                0x00000000000072a8       0x40 ./Debug_Linux/obj/sensing_position_estimation.c.o
 .bss.m_mavlink_status.15186
                0x00000000000072e8       0x40 ./Debug_Linux/obj/sensing_simulation.c.o
 .bss.m_mavlink_status.2583
                0x0000000000007328       0x40 ./Debug_Linux/obj/sensing_ahrs.c.o
 .bss.lfsr.15626
                0x0000000000007368        0x4 ./Debug_Linux/obj/fat_fs_diskio.c.o
 .bss.Fsid      0x000000000000736c        0x2 ./Debug_Linux/obj/fat_fs_ff.c.o
 *fill*         0x000000000000736e        0x2 
 .bss.FatFs     0x0000000000007370        0x4 ./Debug_Linux/obj/fat_fs_ff.c.o
 .bss.twim_inst
                0x0000000000007374        0x4 ./Debug_Linux/obj/twim_twim.c.o
 .bss.twim_rx_data
                0x0000000000007378        0x4 ./Debug_Linux/obj/twim_twim.c.o
 .bss.twim_rx_nb_bytes
                0x000000000000737c        0x4 ./Debug_Linux/obj/twim_twim.c.o
 .bss.transfer_status
                0x0000000000007380        0x4 ./Debug_Linux/obj/twim_twim.c.o
 .bss.twim_tx_data
                0x0000000000007384        0x4 ./Debug_Linux/obj/twim_twim.c.o
 .bss.twim_it_mask
                0x0000000000007388        0x4 ./Debug_Linux/obj/twim_twim.c.o
 .bss.twim_next
                0x000000000000738c        0x1 ./Debug_Linux/obj/twim_twim.c.o
 *fill*         0x000000000000738d        0x3 
 .bss.twim_package
                0x0000000000007390        0x4 ./Debug_Linux/obj/twim_twim.c.o
 .bss.twim_tx_nb_bytes
                0x0000000000007394        0x4 ./Debug_Linux/obj/twim_twim.c.o
 .bss._int_line_handler_table_0
                0x0000000000007398        0x4 ./Debug_Linux/obj/intc_intc.c.o
 .bss._int_line_handler_table_1
                0x000000000000739c        0x8 ./Debug_Linux/obj/intc_intc.c.o
 .bss._int_line_handler_table_2
                0x00000000000073a4        0x4 ./Debug_Linux/obj/intc_intc.c.o
 .bss._int_line_handler_table_3
                0x00000000000073a8       0x10 ./Debug_Linux/obj/intc_intc.c.o
 .bss._int_line_handler_table_4
                0x00000000000073b8       0x10 ./Debug_Linux/obj/intc_intc.c.o
 .bss._int_line_handler_table_5
                0x00000000000073c8       0x10 ./Debug_Linux/obj/intc_intc.c.o
 .bss._int_line_handler_table_6
                0x00000000000073d8       0x10 ./Debug_Linux/obj/intc_intc.c.o
 .bss._int_line_handler_table_7
                0x00000000000073e8        0x4 ./Debug_Linux/obj/intc_intc.c.o
 .bss._int_line_handler_table_8
                0x00000000000073ec        0x4 ./Debug_Linux/obj/intc_intc.c.o
 .bss._int_line_handler_table_9
                0x00000000000073f0       0x28 ./Debug_Linux/obj/intc_intc.c.o
 .bss._int_line_handler_table_10
                0x0000000000007418        0x4 ./Debug_Linux/obj/intc_intc.c.o
 .bss._int_line_handler_table_11
                0x000000000000741c        0x4 ./Debug_Linux/obj/intc_intc.c.o
 .bss._int_line_handler_table_12
                0x0000000000007420        0x4 ./Debug_Linux/obj/intc_intc.c.o
 .bss._int_line_handler_table_13
                0x0000000000007424        0x4 ./Debug_Linux/obj/intc_intc.c.o
 .bss._int_line_handler_table_14
                0x0000000000007428       0x14 ./Debug_Linux/obj/intc_intc.c.o
 .bss._int_line_handler_table_15
                0x000000000000743c       0x10 ./Debug_Linux/obj/intc_intc.c.o
 .bss._int_line_handler_table_16
                0x000000000000744c       0x10 ./Debug_Linux/obj/intc_intc.c.o
 .bss._int_line_handler_table_17
                0x000000000000745c        0x4 ./Debug_Linux/obj/intc_intc.c.o
 .bss._int_line_handler_table_18
                0x0000000000007460       0x40 ./Debug_Linux/obj/intc_intc.c.o
 .bss._int_line_handler_table_19
                0x00000000000074a0        0x4 ./Debug_Linux/obj/intc_intc.c.o
 .bss._int_line_handler_table_33
                0x00000000000074a4        0xc ./Debug_Linux/obj/intc_intc.c.o
 .bss._int_line_handler_table_34
                0x00000000000074b0        0xc ./Debug_Linux/obj/intc_intc.c.o
 .bss._int_line_handler_table_35
                0x00000000000074bc        0x8 ./Debug_Linux/obj/intc_intc.c.o
 .bss._int_line_handler_table_36
                0x00000000000074c4       0x18 ./Debug_Linux/obj/intc_intc.c.o
 .bss._int_line_handler_table_37
                0x00000000000074dc        0x4 ./Debug_Linux/obj/intc_intc.c.o
 .bss._int_line_handler_table_38
                0x00000000000074e0        0x4 ./Debug_Linux/obj/intc_intc.c.o
 .bss._int_line_handler_table_39
                0x00000000000074e4       0x18 ./Debug_Linux/obj/intc_intc.c.o
 .bss._int_line_handler_table_40
                0x00000000000074fc       0x18 ./Debug_Linux/obj/intc_intc.c.o
 .bss._int_line_handler_table_29
                0x0000000000007514        0x4 ./Debug_Linux/obj/intc_intc.c.o
 .bss._int_line_handler_table_30
                0x0000000000007518        0x4 ./Debug_Linux/obj/intc_intc.c.o
 .bss._int_line_handler_table_31
                0x000000000000751c        0x4 ./Debug_Linux/obj/intc_intc.c.o
 .bss._int_line_handler_table_41
                0x0000000000007520        0x4 ./Debug_Linux/obj/intc_intc.c.o
 .bss._int_line_handler_table_32
                0x0000000000007524        0x4 ./Debug_Linux/obj/intc_intc.c.o
 .bss._int_line_handler_table_45
                0x0000000000007528        0x4 ./Debug_Linux/obj/intc_intc.c.o
 .bss._int_line_handler_table_20
                0x000000000000752c        0x4 ./Debug_Linux/obj/intc_intc.c.o
 .bss._int_line_handler_table_21
                0x0000000000007530        0x4 ./Debug_Linux/obj/intc_intc.c.o
 .bss._int_line_handler_table_22
                0x0000000000007534        0x4 ./Debug_Linux/obj/intc_intc.c.o
 .bss._int_line_handler_table_23
                0x0000000000007538        0x4 ./Debug_Linux/obj/intc_intc.c.o
 .bss._int_line_handler_table_24
                0x000000000000753c        0x4 ./Debug_Linux/obj/intc_intc.c.o
 .bss._int_line_handler_table_25
                0x0000000000007540        0x4 ./Debug_Linux/obj/intc_intc.c.o
 .bss._int_line_handler_table_26
                0x0000000000007544        0x4 ./Debug_Linux/obj/intc_intc.c.o
 .bss._int_line_handler_table_27
                0x0000000000007548        0x4 ./Debug_Linux/obj/intc_intc.c.o
 .bss._int_line_handler_table_28
                0x000000000000754c        0x4 ./Debug_Linux/obj/intc_intc.c.o
 .bss._int_line_handler_table_42
                0x0000000000007550        0x4 ./Debug_Linux/obj/intc_intc.c.o
 .bss._int_line_handler_table_43
                0x0000000000007554        0x4 ./Debug_Linux/obj/intc_intc.c.o
 .bss._int_line_handler_table_44
                0x0000000000007558        0x4 ./Debug_Linux/obj/intc_intc.c.o
 .bss._int_line_handler_table_46
                0x000000000000755c        0x4 ./Debug_Linux/obj/intc_intc.c.o
 .bss.flashc_error_status
                0x0000000000007560        0x4 ./Debug_Linux/obj/flashc_flashc.c.o
 .bss.udd_ctrl_prev_payload_nb_trans
                0x0000000000007564        0x2 ./Debug_Linux/obj/usbc_usbc_device.c.o
 *fill*         0x0000000000007566        0x2 
 .bss.udd_ep_job
                0x0000000000007568       0x3c ./Debug_Linux/obj/usbc_usbc_device.c.o
 *fill*         0x00000000000075a4       0x1c 
 .bss.udd_g_ep_table
                0x00000000000075c0       0x80 ./Debug_Linux/obj/usbc_usbc_device.c.o
 .bss.udd_b_idle
                0x0000000000007640        0x1 ./Debug_Linux/obj/usbc_usbc_device.c.o
 *fill*         0x0000000000007641        0x1 
 .bss.udd_ctrl_payload_nb_trans
                0x0000000000007642        0x2 ./Debug_Linux/obj/usbc_usbc_device.c.o
 .bss.udd_ep_control_state
                0x0000000000007644        0x4 ./Debug_Linux/obj/usbc_usbc_device.c.o
 .bss.udd_ctrl_payload_need_in_zlp
                0x0000000000007648        0x1 ./Debug_Linux/obj/usbc_usbc_device.c.o
 *fill*         0x0000000000007649        0x3 
 .bss.s_fcpu_hz
                0x000000000000764c        0x4 ./Debug_Linux/obj/delay_delay.c.o
 .bss.stdio_usb_interface_enable
                0x0000000000007650        0x1 ./Debug_Linux/obj/stdio_usb_stdio_usb.c.o
 *fill*         0x0000000000007651        0x3 
 .bss.udc_ptr_conf
                0x0000000000007654        0x4 ./Debug_Linux/obj/udc_udc.c.o
 .bss.udc_iface_setting.15456
                0x0000000000007658        0x1 ./Debug_Linux/obj/udc_udc.c.o
 *fill*         0x0000000000007659        0x1 
 .bss.udc_ep_status.15252
                0x000000000000765a        0x2 ./Debug_Linux/obj/udc_udc.c.o
 .bss.udc_device_status
                0x000000000000765c        0x2 ./Debug_Linux/obj/udc_udc.c.o
 .bss.udc_num_configuration
                0x000000000000765e        0x1 ./Debug_Linux/obj/udc_udc.c.o
 *fill*         0x000000000000765f        0x1 
 .bss.udc_ptr_iface
                0x0000000000007660        0x4 ./Debug_Linux/obj/udc_udc.c.o
 .bss.udi_cdc_line_coding
                0x0000000000007664        0x7 ./Debug_Linux/obj/device_udi_cdc.c.o
 .bss.udi_cdc_tx_buf_sel
                0x000000000000766b        0x1 ./Debug_Linux/obj/device_udi_cdc.c.o
 .bss.udi_cdc_tx_buf_nb
                0x000000000000766c        0x4 ./Debug_Linux/obj/device_udi_cdc.c.o
 .bss.udi_cdc_tx_buf
                0x0000000000007670       0x80 ./Debug_Linux/obj/device_udi_cdc.c.o
 .bss.udi_cdc_rx_buf_nb
                0x00000000000076f0        0x4 ./Debug_Linux/obj/device_udi_cdc.c.o
 .bss.udi_cdc_serial_state_msg_ongoing
                0x00000000000076f4        0x1 ./Debug_Linux/obj/device_udi_cdc.c.o
 *fill*         0x00000000000076f5        0x1 
 .bss.udi_cdc_rx_pos
                0x00000000000076f6        0x2 ./Debug_Linux/obj/device_udi_cdc.c.o
 .bss.udi_cdc_tx_sof_num
                0x00000000000076f8        0x2 ./Debug_Linux/obj/device_udi_cdc.c.o
 .bss.udi_cdc_rx_buf_sel
                0x00000000000076fa        0x1 ./Debug_Linux/obj/device_udi_cdc.c.o
 .bss.udi_cdc_running
                0x00000000000076fb        0x1 ./Debug_Linux/obj/device_udi_cdc.c.o
 .bss.udi_cdc_tx_trans_ongoing
                0x00000000000076fc        0x1 ./Debug_Linux/obj/device_udi_cdc.c.o
 *fill*         0x00000000000076fd        0x3 
 .bss.udi_cdc_rx_buf
                0x0000000000007700       0x80 ./Debug_Linux/obj/device_udi_cdc.c.o
 .bss.udi_cdc_rx_trans_ongoing
                0x0000000000007780        0x1 ./Debug_Linux/obj/device_udi_cdc.c.o
 .bss.udi_cdc_tx_both_buf_to_send
                0x0000000000007781        0x1 ./Debug_Linux/obj/device_udi_cdc.c.o
 .bss.udi_cdc_state
                0x0000000000007782        0x2 ./Debug_Linux/obj/device_udi_cdc.c.o
 .bss.__malloc_max_total_mem
                0x0000000000007784        0x4 /usr/local/avr32-gnu-toolchain-linux_x86_64/bin/../lib/gcc/avr32/4.4.7/../../../../avr32/lib/ucr3fp/libc.a(lib_a-mallocr.o)
                0x0000000000007784                __malloc_max_total_mem
 .bss.__malloc_max_sbrked_mem
                0x0000000000007788        0x4 /usr/local/avr32-gnu-toolchain-linux_x86_64/bin/../lib/gcc/avr32/4.4.7/../../../../avr32/lib/ucr3fp/libc.a(lib_a-mallocr.o)
                0x0000000000007788                __malloc_max_sbrked_mem
 .bss.__malloc_top_pad
                0x000000000000778c        0x4 /usr/local/avr32-gnu-toolchain-linux_x86_64/bin/../lib/gcc/avr32/4.4.7/../../../../avr32/lib/ucr3fp/libc.a(lib_a-mallocr.o)
                0x000000000000778c                __malloc_top_pad
 .bss.__malloc_current_mallinfo
                0x0000000000007790       0x28 /usr/local/avr32-gnu-toolchain-linux_x86_64/bin/../lib/gcc/avr32/4.4.7/../../../../avr32/lib/ucr3fp/libc.a(lib_a-mallocr.o)
                0x0000000000007790                __malloc_current_mallinfo
 .bss.cur_heap_pos.1869
                0x00000000000077b8        0x4 /usr/local/avr32-gnu-toolchain-linux_x86_64/bin/../lib/gcc/avr32/4.4.7/../../../../avr32/lib/ucr3fp/libc.a(lib_a-syscalls.o)
 *(COMMON)
 COMMON         0x00000000000077bc      0x134 ./Debug_Linux/obj/communication_console.c.o
                0x00000000000077bc                console_out_stream
                0x00000000000077d4                console_in_buffer
                0x00000000000078d8                console_in_stream
 COMMON         0x00000000000078f0       0x16 ./Debug_Linux/obj/hal_bmp085.c.o
                0x00000000000078f0                b2
                0x00000000000078f2                mb
                0x00000000000078f4                ac1
                0x00000000000078f6                b1
                0x00000000000078f8                ac6
                0x00000000000078fa                ac5
                0x00000000000078fc                ac2
                0x00000000000078fe                md
                0x0000000000007900                ac4
                0x0000000000007902                mc
                0x0000000000007904                ac3
 *fill*         0x0000000000007906        0x2 
 COMMON         0x0000000000007908       0x5a ./Debug_Linux/obj/hal_adc_int.c.o
                0x0000000000007908                adci_buffer
                0x0000000000007948                continuous_mode
                0x0000000000007949                even_odd
                0x000000000000794a                adcifa_sequencer0_conversion_opt
 *fill*         0x0000000000007962        0x2 
 COMMON         0x0000000000007964        0xc ./Debug_Linux/obj/hal_ads1274.c.o
                0x0000000000007964                eic_options
                0x000000000000796c                gcfg
 COMMON         0x0000000000007970      0x124 ./Debug_Linux/obj/hal_i2c_driver_int.c.o
                0x0000000000007970                current_transfer
                0x0000000000007974                current_slot
                0x0000000000007978                last_slot
                0x000000000000797c                transfer_queue
 COMMON         0x0000000000007a94      0x340 ./Debug_Linux/obj/hal_gps_ublox.c.o
                0x0000000000007a94                ubx_cfg_rate_message
                0x0000000000007aa0                ubx_solution_message
                0x0000000000007b08                ubx_tim_vrfy_message
                0x0000000000007b30                ubx_vel_ned_message
                0x0000000000007b78                ubx_mon_rxr_message
                0x0000000000007b7c                ubx_nav_settings_message
                0x0000000000007bc4                ubx_sv_info_message
                0x0000000000007d54                ubx_pos_llh_message
                0x0000000000007d8c                ubx_tim_tp_message
                0x0000000000007dac                ubx_cfg_set_get_rate_message
                0x0000000000007db4                ubx_status_message
 COMMON         0x0000000000007dd4      0x134 ./Debug_Linux/obj/hal_xbee.c.o
                0x0000000000007dd4                xbee_in_buffer
                0x0000000000007ed8                xbee_in_stream
                0x0000000000007ef0                xbee_out_stream
 COMMON         0x0000000000007f08      0x154 ./Debug_Linux/obj/hal_spektrum_satellite.c.o
                0x0000000000007f08                sat
                0x000000000000803c                channel_center
 COMMON         0x000000000000805c      0x808 ./Debug_Linux/obj/hal_sd_spi.c.o
                0x000000000000805c                ram_buffer2
                0x0000000000008444                end_of_transfer
                0x0000000000008448                sd_spi
                0x0000000000008474                pdca_channeltx
                0x0000000000008478                pdca_channelrx
                0x000000000000847c                ram_buffer
 COMMON         0x0000000000008864        0x5 ./Debug_Linux/obj/util_print_util.c.o
                0x0000000000008864                deb_stream
                0x0000000000008868                blocking
 COMMON         0x0000000000008869        0x1 ./Debug_Linux/obj/fat_fs_diskio.c.o
                0x0000000000008869                actual_status
 *fill*         0x000000000000886a        0x2 
 COMMON         0x000000000000886c        0x4 ./Debug_Linux/obj/stdio_read.c.o
                0x000000000000886c                ptr_get
 COMMON         0x0000000000008870        0x8 ./Debug_Linux/obj/stdio_write.c.o
                0x0000000000008870                ptr_put
                0x0000000000008874                stdio_base
 COMMON         0x0000000000008878      0x118 ./Debug_Linux/obj/usbc_usbc_device.c.o
                0x0000000000008878                udd_ep_out_cache_buffer
                0x0000000000008938                udd_g_ctrlreq
                0x0000000000008950                udd_ctrl_buffer
 COMMON         0x0000000000008990        0x7 ./Debug_Linux/obj/uc3_sleepmgr.c.o
                0x0000000000008990                sleepmgr_locks
 *fill*         0x0000000000008997        0x1 
 COMMON         0x0000000000008998        0x4 /usr/local/avr32-gnu-toolchain-linux_x86_64/bin/../lib/gcc/avr32/4.4.7/../../../../avr32/lib/ucr3fp/libc.a(lib_a-reent.o)
                0x0000000000008998                errno
                0x00000000000089a0                . = ALIGN (0x8)
 *fill*         0x000000000000899c        0x4 
                0x00000000000089a0                . = ALIGN (0x8)
                0x00000000000089a0                _end = .
                0x00000000000089a0                PROVIDE (end, .)
                0x00000000000089a0                __heap_start__ = ALIGN (0x8)
                0x000000000000f000                . = ((ORIGIN (CPUSRAM) + 0xfffc) - _stack_size)
                0x000000000000f000                __heap_end__ = .

.stab
 *(.stab)

.stabstr
 *(.stabstr)

.stab.excl
 *(.stab.excl)

.stab.exclstr
 *(.stab.exclstr)

.stab.index
 *(.stab.index)

.stab.indexstr
 *(.stab.indexstr)

.comment        0x0000000000000000       0x30
 *(.comment)
 .comment       0x0000000000000000       0x30 ./Debug_Linux/obj/src_tasks.c.o
                                         0x31 (size before relaxing)
 .comment       0x0000000000000000       0x31 ./Debug_Linux/obj/src_main.cpp.o
 .comment       0x0000000000000000       0x31 ./Debug_Linux/obj/src_boardsupport.c.o
 .comment       0x0000000000000000       0x31 ./Debug_Linux/obj/src_mavlink_telemetry.c.o
 .comment       0x0000000000000000       0x31 ./Debug_Linux/obj/src_central_data.c.o
 .comment       0x0000000000000000       0x31 ./Debug_Linux/obj/communication_mavlink_stream.c.o
 .comment       0x0000000000000000       0x31 ./Debug_Linux/obj/communication_mavlink_waypoint_handler.c.o
 .comment       0x0000000000000000       0x31 ./Debug_Linux/obj/communication_onboard_parameters.c.o
 .comment       0x0000000000000000       0x31 ./Debug_Linux/obj/communication_mavlink_message_handler.c.o
 .comment       0x0000000000000000       0x31 ./Debug_Linux/obj/communication_mavlink_communication.c.o
 .comment       0x0000000000000000       0x31 ./Debug_Linux/obj/communication_console.c.o
 .comment       0x0000000000000000       0x31 ./Debug_Linux/obj/communication_state.c.o
 .comment       0x0000000000000000       0x31 ./Debug_Linux/obj/communication_hud.c.o
 .comment       0x0000000000000000       0x31 ./Debug_Linux/obj/communication_remote.c.o
 .comment       0x0000000000000000       0x31 ./Debug_Linux/obj/communication_state_machine.c.o
 .comment       0x0000000000000000       0x31 ./Debug_Linux/obj/communication_data_logging.c.o
 .comment       0x0000000000000000       0x31 ./Debug_Linux/obj/control_pid_control.c.o
 .comment       0x0000000000000000       0x31 ./Debug_Linux/obj/control_navigation.c.o
 .comment       0x0000000000000000       0x31 ./Debug_Linux/obj/control_stabilisation_copter.c.o
 .comment       0x0000000000000000       0x31 ./Debug_Linux/obj/control_stabilisation.c.o
 .comment       0x0000000000000000       0x31 ./Debug_Linux/obj/control_attitude_error_estimator.c.o
 .comment       0x0000000000000000       0x31 ./Debug_Linux/obj/control_attitude_controller_p2.c.o
 .comment       0x0000000000000000       0x31 ./Debug_Linux/obj/control_joystick_parsing.c.o
 .comment       0x0000000000000000       0x31 ./Debug_Linux/obj/control_servos_mix_quadcopter_diag.c.o
 .comment       0x0000000000000000       0x31 ./Debug_Linux/obj/hal_bmp085.c.o
 .comment       0x0000000000000000       0x31 ./Debug_Linux/obj/hal_time_keeper.c.o
 .comment       0x0000000000000000       0x31 ./Debug_Linux/obj/hal_uart_int.c.o
 .comment       0x0000000000000000       0x31 ./Debug_Linux/obj/hal_led.c.o
 .comment       0x0000000000000000       0x31 ./Debug_Linux/obj/hal_spi_buffered.c.o
 .comment       0x0000000000000000       0x31 ./Debug_Linux/obj/hal_adc_int.c.o
 .comment       0x0000000000000000       0x31 ./Debug_Linux/obj/hal_dac_dma.c.o
 .comment       0x0000000000000000       0x31 ./Debug_Linux/obj/hal_ads1274.c.o
 .comment       0x0000000000000000       0x31 ./Debug_Linux/obj/hal_analog_monitor.c.o
 .comment       0x0000000000000000       0x31 ./Debug_Linux/obj/hal_i2c_driver_int.c.o
 .comment       0x0000000000000000       0x31 ./Debug_Linux/obj/hal_piezo_speaker.c.o
 .comment       0x0000000000000000       0x31 ./Debug_Linux/obj/hal_gps_ublox.c.o
 .comment       0x0000000000000000       0x31 ./Debug_Linux/obj/hal_xbee.c.o
 .comment       0x0000000000000000       0x31 ./Debug_Linux/obj/hal_hmc5883l.c.o
 .comment       0x0000000000000000       0x31 ./Debug_Linux/obj/hal_lsm330dlc.c.o
 .comment       0x0000000000000000       0x31 ./Debug_Linux/obj/hal_spektrum_satellite.c.o
 .comment       0x0000000000000000       0x31 ./Debug_Linux/obj/hal_servos.c.o
 .comment       0x0000000000000000       0x31 ./Debug_Linux/obj/hal_pwm_servos.c.o
 .comment       0x0000000000000000       0x31 ./Debug_Linux/obj/hal_sd_spi.c.o
 .comment       0x0000000000000000       0x31 ./Debug_Linux/obj/hal_usb_int.c.o
 .comment       0x0000000000000000       0x31 ./Debug_Linux/obj/runtime_scheduler.c.o
 .comment       0x0000000000000000       0x31 ./Debug_Linux/obj/sensing_imu.c.o
 .comment       0x0000000000000000       0x31 ./Debug_Linux/obj/sensing_position_estimation.c.o
 .comment       0x0000000000000000       0x31 ./Debug_Linux/obj/sensing_qfilter.c.o
 .comment       0x0000000000000000       0x31 ./Debug_Linux/obj/sensing_simulation.c.o
 .comment       0x0000000000000000       0x31 ./Debug_Linux/obj/sensing_ahrs.c.o
 .comment       0x0000000000000000       0x31 ./Debug_Linux/obj/util_coord_conventions.c.o
 .comment       0x0000000000000000       0x31 ./Debug_Linux/obj/util_print_util.c.o
 .comment       0x0000000000000000       0x31 ./Debug_Linux/obj/util_buffer.c.o
 .comment       0x0000000000000000       0x31 ./Debug_Linux/obj/util_quick_trig.c.o
 .comment       0x0000000000000000       0x31 ./Debug_Linux/obj/fat_fs_diskio.c.o
 .comment       0x0000000000000000       0x31 ./Debug_Linux/obj/fat_fs_ff.c.o
 .comment       0x0000000000000000       0x31 ./Debug_Linux/obj/option_cc932.c.o
 .comment       0x0000000000000000       0x31 ./Debug_Linux/obj/option_syscall.c.o
 .comment       0x0000000000000000       0x31 ./Debug_Linux/obj/user_board_init.c.o
 .comment       0x0000000000000000       0x31 ./Debug_Linux/obj/stdio_read.c.o
 .comment       0x0000000000000000       0x31 ./Debug_Linux/obj/stdio_write.c.o
 .comment       0x0000000000000000       0x31 ./Debug_Linux/obj/adcifa_adcifa.c.o
 .comment       0x0000000000000000       0x31 ./Debug_Linux/obj/usart_usart.c.o
 .comment       0x0000000000000000       0x31 ./Debug_Linux/obj/twim_twim.c.o
 .comment       0x0000000000000000       0x31 ./Debug_Linux/obj/intc_intc.c.o
 .comment       0x0000000000000000       0x31 ./Debug_Linux/obj/ast_ast.c.o
 .comment       0x0000000000000000       0x31 ./Debug_Linux/obj/pevc_pevc.c.o
 .comment       0x0000000000000000       0x31 ./Debug_Linux/obj/spi_spi.c.o
 .comment       0x0000000000000000       0x31 ./Debug_Linux/obj/pdca_pdca.c.o
 .comment       0x0000000000000000       0x31 ./Debug_Linux/obj/eic_eic.c.o
 .comment       0x0000000000000000       0x31 ./Debug_Linux/obj/dacifb_dacifb.c.o
 .comment       0x0000000000000000       0x31 ./Debug_Linux/obj/flashc_flashc.c.o
 .comment       0x0000000000000000       0x31 ./Debug_Linux/obj/gpio_gpio.c.o
 .comment       0x0000000000000000       0x31 ./Debug_Linux/obj/scif_scif_uc3c.c.o
 .comment       0x0000000000000000       0x31 ./Debug_Linux/obj/usbc_usbc_device.c.o
 .comment       0x0000000000000000       0x31 ./Debug_Linux/obj/delay_delay.c.o
 .comment       0x0000000000000000       0x31 ./Debug_Linux/obj/stdio_usb_stdio_usb.c.o
 .comment       0x0000000000000000       0x31 ./Debug_Linux/obj/uc3_sleepmgr.c.o
 .comment       0x0000000000000000       0x31 ./Debug_Linux/obj/uc3_spi_spi_master.c.o
 .comment       0x0000000000000000       0x31 ./Debug_Linux/obj/uc3c_pll.c.o
 .comment       0x0000000000000000       0x31 ./Debug_Linux/obj/uc3c_osc.c.o
 .comment       0x0000000000000000       0x31 ./Debug_Linux/obj/uc3c_sysclk.c.o
 .comment       0x0000000000000000       0x31 ./Debug_Linux/obj/udc_udc.c.o
 .comment       0x0000000000000000       0x31 ./Debug_Linux/obj/device_udi_cdc.c.o
 .comment       0x0000000000000000       0x31 ./Debug_Linux/obj/device_udi_cdc_desc.c.o
 .comment       0x0000000000000000       0x31 /usr/local/avr32-gnu-toolchain-linux_x86_64/bin/../lib/gcc/avr32/4.4.7/../../../../avr32/lib/ucr3fp/libm.a(lib_a-s_cos.o)
 .comment       0x0000000000000000       0x31 /usr/local/avr32-gnu-toolchain-linux_x86_64/bin/../lib/gcc/avr32/4.4.7/../../../../avr32/lib/ucr3fp/libm.a(lib_a-s_floor.o)
 .comment       0x0000000000000000       0x31 /usr/local/avr32-gnu-toolchain-linux_x86_64/bin/../lib/gcc/avr32/4.4.7/../../../../avr32/lib/ucr3fp/libm.a(lib_a-s_sin.o)
 .comment       0x0000000000000000       0x31 /usr/local/avr32-gnu-toolchain-linux_x86_64/bin/../lib/gcc/avr32/4.4.7/../../../../avr32/lib/ucr3fp/libm.a(lib_a-w_asin.o)
 .comment       0x0000000000000000       0x31 /usr/local/avr32-gnu-toolchain-linux_x86_64/bin/../lib/gcc/avr32/4.4.7/../../../../avr32/lib/ucr3fp/libm.a(lib_a-w_atan2.o)
 .comment       0x0000000000000000       0x31 /usr/local/avr32-gnu-toolchain-linux_x86_64/bin/../lib/gcc/avr32/4.4.7/../../../../avr32/lib/ucr3fp/libm.a(lib_a-w_fmod.o)
 .comment       0x0000000000000000       0x31 /usr/local/avr32-gnu-toolchain-linux_x86_64/bin/../lib/gcc/avr32/4.4.7/../../../../avr32/lib/ucr3fp/libm.a(lib_a-w_pow.o)
 .comment       0x0000000000000000       0x31 /usr/local/avr32-gnu-toolchain-linux_x86_64/bin/../lib/gcc/avr32/4.4.7/../../../../avr32/lib/ucr3fp/libm.a(lib_a-w_sqrt.o)
 .comment       0x0000000000000000       0x31 /usr/local/avr32-gnu-toolchain-linux_x86_64/bin/../lib/gcc/avr32/4.4.7/../../../../avr32/lib/ucr3fp/libm.a(lib_a-e_asin.o)
 .comment       0x0000000000000000       0x31 /usr/local/avr32-gnu-toolchain-linux_x86_64/bin/../lib/gcc/avr32/4.4.7/../../../../avr32/lib/ucr3fp/libm.a(lib_a-e_atan2.o)
 .comment       0x0000000000000000       0x31 /usr/local/avr32-gnu-toolchain-linux_x86_64/bin/../lib/gcc/avr32/4.4.7/../../../../avr32/lib/ucr3fp/libm.a(lib_a-e_fmod.o)
 .comment       0x0000000000000000       0x31 /usr/local/avr32-gnu-toolchain-linux_x86_64/bin/../lib/gcc/avr32/4.4.7/../../../../avr32/lib/ucr3fp/libm.a(lib_a-e_pow.o)
 .comment       0x0000000000000000       0x31 /usr/local/avr32-gnu-toolchain-linux_x86_64/bin/../lib/gcc/avr32/4.4.7/../../../../avr32/lib/ucr3fp/libm.a(lib_a-e_rem_pio2.o)
 .comment       0x0000000000000000       0x31 /usr/local/avr32-gnu-toolchain-linux_x86_64/bin/../lib/gcc/avr32/4.4.7/../../../../avr32/lib/ucr3fp/libm.a(lib_a-e_sqrt.o)
 .comment       0x0000000000000000       0x31 /usr/local/avr32-gnu-toolchain-linux_x86_64/bin/../lib/gcc/avr32/4.4.7/../../../../avr32/lib/ucr3fp/libm.a(lib_a-k_cos.o)
 .comment       0x0000000000000000       0x31 /usr/local/avr32-gnu-toolchain-linux_x86_64/bin/../lib/gcc/avr32/4.4.7/../../../../avr32/lib/ucr3fp/libm.a(lib_a-k_rem_pio2.o)
 .comment       0x0000000000000000       0x31 /usr/local/avr32-gnu-toolchain-linux_x86_64/bin/../lib/gcc/avr32/4.4.7/../../../../avr32/lib/ucr3fp/libm.a(lib_a-k_sin.o)
 .comment       0x0000000000000000       0x31 /usr/local/avr32-gnu-toolchain-linux_x86_64/bin/../lib/gcc/avr32/4.4.7/../../../../avr32/lib/ucr3fp/libm.a(lib_a-s_atan.o)
 .comment       0x0000000000000000       0x31 /usr/local/avr32-gnu-toolchain-linux_x86_64/bin/../lib/gcc/avr32/4.4.7/../../../../avr32/lib/ucr3fp/libm.a(lib_a-s_fabs.o)
 .comment       0x0000000000000000       0x31 /usr/local/avr32-gnu-toolchain-linux_x86_64/bin/../lib/gcc/avr32/4.4.7/../../../../avr32/lib/ucr3fp/libm.a(lib_a-s_finite.o)
 .comment       0x0000000000000000       0x31 /usr/local/avr32-gnu-toolchain-linux_x86_64/bin/../lib/gcc/avr32/4.4.7/../../../../avr32/lib/ucr3fp/libm.a(lib_a-s_isnand.o)
 .comment       0x0000000000000000       0x31 /usr/local/avr32-gnu-toolchain-linux_x86_64/bin/../lib/gcc/avr32/4.4.7/../../../../avr32/lib/ucr3fp/libm.a(lib_a-s_lib_ver.o)
 .comment       0x0000000000000000       0x31 /usr/local/avr32-gnu-toolchain-linux_x86_64/bin/../lib/gcc/avr32/4.4.7/../../../../avr32/lib/ucr3fp/libm.a(lib_a-s_matherr.o)
 .comment       0x0000000000000000       0x31 /usr/local/avr32-gnu-toolchain-linux_x86_64/bin/../lib/gcc/avr32/4.4.7/../../../../avr32/lib/ucr3fp/libm.a(lib_a-s_nan.o)
 .comment       0x0000000000000000       0x31 /usr/local/avr32-gnu-toolchain-linux_x86_64/bin/../lib/gcc/avr32/4.4.7/../../../../avr32/lib/ucr3fp/libm.a(lib_a-s_rint.o)
 .comment       0x0000000000000000       0x31 /usr/local/avr32-gnu-toolchain-linux_x86_64/bin/../lib/gcc/avr32/4.4.7/../../../../avr32/lib/ucr3fp/libm.a(lib_a-s_scalbn.o)
 .comment       0x0000000000000000       0x31 /usr/local/avr32-gnu-toolchain-linux_x86_64/bin/../lib/gcc/avr32/4.4.7/../../../../avr32/lib/ucr3fp/libm.a(lib_a-s_copysign.o)
 .comment       0x0000000000000000       0x31 /usr/local/avr32-gnu-toolchain-linux_x86_64/bin/../lib/gcc/avr32/4.4.7/ucr3fp/libgcc.a(_floatdidf.o)
 .comment       0x0000000000000000       0x31 /usr/local/avr32-gnu-toolchain-linux_x86_64/bin/../lib/gcc/avr32/4.4.7/ucr3fp/libgcc.a(_divdi3.o)
 .comment       0x0000000000000000       0x31 /usr/local/avr32-gnu-toolchain-linux_x86_64/bin/../lib/gcc/avr32/4.4.7/ucr3fp/libgcc.a(_moddi3.o)
 .comment       0x0000000000000000       0x31 /usr/local/avr32-gnu-toolchain-linux_x86_64/bin/../lib/gcc/avr32/4.4.7/ucr3fp/libgcc.a(_udivdi3.o)
 .comment       0x0000000000000000       0x31 /usr/local/avr32-gnu-toolchain-linux_x86_64/bin/../lib/gcc/avr32/4.4.7/ucr3fp/libgcc.a(_umoddi3.o)
 .comment       0x0000000000000000       0x31 /usr/local/avr32-gnu-toolchain-linux_x86_64/bin/../lib/gcc/avr32/4.4.7/../../../../avr32/lib/ucr3fp/libc.a(lib_a-errno.o)
 .comment       0x0000000000000000       0x31 /usr/local/avr32-gnu-toolchain-linux_x86_64/bin/../lib/gcc/avr32/4.4.7/../../../../avr32/lib/ucr3fp/libc.a(lib_a-impure.o)
 .comment       0x0000000000000000       0x31 /usr/local/avr32-gnu-toolchain-linux_x86_64/bin/../lib/gcc/avr32/4.4.7/../../../../avr32/lib/ucr3fp/libc.a(lib_a-malloc.o)
 .comment       0x0000000000000000       0x31 /usr/local/avr32-gnu-toolchain-linux_x86_64/bin/../lib/gcc/avr32/4.4.7/../../../../avr32/lib/ucr3fp/libc.a(lib_a-mallocr.o)
 .comment       0x0000000000000000       0x31 /usr/local/avr32-gnu-toolchain-linux_x86_64/bin/../lib/gcc/avr32/4.4.7/../../../../avr32/lib/ucr3fp/libc.a(lib_a-memset.o)
 .comment       0x0000000000000000       0x31 /usr/local/avr32-gnu-toolchain-linux_x86_64/bin/../lib/gcc/avr32/4.4.7/../../../../avr32/lib/ucr3fp/libc.a(lib_a-mlock.o)
 .comment       0x0000000000000000       0x31 /usr/local/avr32-gnu-toolchain-linux_x86_64/bin/../lib/gcc/avr32/4.4.7/../../../../avr32/lib/ucr3fp/libc.a(lib_a-sbrkr.o)
 .comment       0x0000000000000000       0x31 /usr/local/avr32-gnu-toolchain-linux_x86_64/bin/../lib/gcc/avr32/4.4.7/../../../../avr32/lib/ucr3fp/libc.a(lib_a-snprintf.o)
 .comment       0x0000000000000000       0x31 /usr/local/avr32-gnu-toolchain-linux_x86_64/bin/../lib/gcc/avr32/4.4.7/../../../../avr32/lib/ucr3fp/libc.a(lib_a-strcpy.o)
 .comment       0x0000000000000000       0x31 /usr/local/avr32-gnu-toolchain-linux_x86_64/bin/../lib/gcc/avr32/4.4.7/../../../../avr32/lib/ucr3fp/libc.a(lib_a-strlen.o)
 .comment       0x0000000000000000       0x31 /usr/local/avr32-gnu-toolchain-linux_x86_64/bin/../lib/gcc/avr32/4.4.7/../../../../avr32/lib/ucr3fp/libc.a(lib_a-syscalls.o)
 .comment       0x0000000000000000       0x31 /usr/local/avr32-gnu-toolchain-linux_x86_64/bin/../lib/gcc/avr32/4.4.7/../../../../avr32/lib/ucr3fp/libc.a(lib_a-vfprintf.o)
 .comment       0x0000000000000000       0x31 /usr/local/avr32-gnu-toolchain-linux_x86_64/bin/../lib/gcc/avr32/4.4.7/../../../../avr32/lib/ucr3fp/libc.a(lib_a-wsetup.o)
 .comment       0x0000000000000000       0x31 /usr/local/avr32-gnu-toolchain-linux_x86_64/bin/../lib/gcc/avr32/4.4.7/../../../../avr32/lib/ucr3fp/libc.a(lib_a-dtoa.o)
 .comment       0x0000000000000000       0x31 /usr/local/avr32-gnu-toolchain-linux_x86_64/bin/../lib/gcc/avr32/4.4.7/../../../../avr32/lib/ucr3fp/libc.a(lib_a-fflush.o)
 .comment       0x0000000000000000       0x31 /usr/local/avr32-gnu-toolchain-linux_x86_64/bin/../lib/gcc/avr32/4.4.7/../../../../avr32/lib/ucr3fp/libc.a(lib_a-findfp.o)
 .comment       0x0000000000000000       0x31 /usr/local/avr32-gnu-toolchain-linux_x86_64/bin/../lib/gcc/avr32/4.4.7/../../../../avr32/lib/ucr3fp/libc.a(lib_a-freer.o)
 .comment       0x0000000000000000       0x31 /usr/local/avr32-gnu-toolchain-linux_x86_64/bin/../lib/gcc/avr32/4.4.7/../../../../avr32/lib/ucr3fp/libc.a(lib_a-fvwrite.o)
 .comment       0x0000000000000000       0x31 /usr/local/avr32-gnu-toolchain-linux_x86_64/bin/../lib/gcc/avr32/4.4.7/../../../../avr32/lib/ucr3fp/libc.a(lib_a-fwalk.o)
 .comment       0x0000000000000000       0x31 /usr/local/avr32-gnu-toolchain-linux_x86_64/bin/../lib/gcc/avr32/4.4.7/../../../../avr32/lib/ucr3fp/libc.a(lib_a-locale.o)
 .comment       0x0000000000000000       0x31 /usr/local/avr32-gnu-toolchain-linux_x86_64/bin/../lib/gcc/avr32/4.4.7/../../../../avr32/lib/ucr3fp/libc.a(lib_a-makebuf.o)
 .comment       0x0000000000000000       0x31 /usr/local/avr32-gnu-toolchain-linux_x86_64/bin/../lib/gcc/avr32/4.4.7/../../../../avr32/lib/ucr3fp/libc.a(lib_a-memchr.o)
 .comment       0x0000000000000000       0x31 /usr/local/avr32-gnu-toolchain-linux_x86_64/bin/../lib/gcc/avr32/4.4.7/../../../../avr32/lib/ucr3fp/libc.a(lib_a-memmove.o)
 .comment       0x0000000000000000       0x31 /usr/local/avr32-gnu-toolchain-linux_x86_64/bin/../lib/gcc/avr32/4.4.7/../../../../avr32/lib/ucr3fp/libc.a(lib_a-mprec.o)
 .comment       0x0000000000000000       0x31 /usr/local/avr32-gnu-toolchain-linux_x86_64/bin/../lib/gcc/avr32/4.4.7/../../../../avr32/lib/ucr3fp/libc.a(lib_a-reallocr.o)
 .comment       0x0000000000000000       0x31 /usr/local/avr32-gnu-toolchain-linux_x86_64/bin/../lib/gcc/avr32/4.4.7/../../../../avr32/lib/ucr3fp/libc.a(lib_a-reent.o)
 .comment       0x0000000000000000       0x31 /usr/local/avr32-gnu-toolchain-linux_x86_64/bin/../lib/gcc/avr32/4.4.7/../../../../avr32/lib/ucr3fp/libc.a(lib_a-s_isinfd.o)
 .comment       0x0000000000000000       0x31 /usr/local/avr32-gnu-toolchain-linux_x86_64/bin/../lib/gcc/avr32/4.4.7/../../../../avr32/lib/ucr3fp/libc.a(lib_a-stdio.o)
 .comment       0x0000000000000000       0x31 /usr/local/avr32-gnu-toolchain-linux_x86_64/bin/../lib/gcc/avr32/4.4.7/../../../../avr32/lib/ucr3fp/libc.a(lib_a-writer.o)
 .comment       0x0000000000000000       0x31 /usr/local/avr32-gnu-toolchain-linux_x86_64/bin/../lib/gcc/avr32/4.4.7/../../../../avr32/lib/ucr3fp/libc.a(lib_a-callocr.o)
 .comment       0x0000000000000000       0x31 /usr/local/avr32-gnu-toolchain-linux_x86_64/bin/../lib/gcc/avr32/4.4.7/../../../../avr32/lib/ucr3fp/libc.a(lib_a-closer.o)
 .comment       0x0000000000000000       0x31 /usr/local/avr32-gnu-toolchain-linux_x86_64/bin/../lib/gcc/avr32/4.4.7/../../../../avr32/lib/ucr3fp/libc.a(lib_a-fclose.o)
 .comment       0x0000000000000000       0x31 /usr/local/avr32-gnu-toolchain-linux_x86_64/bin/../lib/gcc/avr32/4.4.7/../../../../avr32/lib/ucr3fp/libc.a(lib_a-fstatr.o)
 .comment       0x0000000000000000       0x31 /usr/local/avr32-gnu-toolchain-linux_x86_64/bin/../lib/gcc/avr32/4.4.7/../../../../avr32/lib/ucr3fp/libc.a(lib_a-lseekr.o)
 .comment       0x0000000000000000       0x31 /usr/local/avr32-gnu-toolchain-linux_x86_64/bin/../lib/gcc/avr32/4.4.7/../../../../avr32/lib/ucr3fp/libc.a(lib_a-readr.o)

.debug
 *(.debug)

.line
 *(.line)

.debug_srcinfo
 *(.debug_srcinfo)

.debug_sfnames
 *(.debug_sfnames)

.debug_aranges  0x0000000000000000      0xa60
 *(.debug_aranges)
 .debug_aranges
                0x0000000000000000       0x20 ./Debug_Linux/obj/src_tasks.c.o
 .debug_aranges
                0x0000000000000020       0x20 ./Debug_Linux/obj/src_main.cpp.o
 .debug_aranges
                0x0000000000000040       0x20 ./Debug_Linux/obj/src_boardsupport.c.o
 .debug_aranges
                0x0000000000000060       0x20 ./Debug_Linux/obj/src_mavlink_telemetry.c.o
 .debug_aranges
                0x0000000000000080       0x20 ./Debug_Linux/obj/src_central_data.c.o
 .debug_aranges
                0x00000000000000a0       0x20 ./Debug_Linux/obj/communication_mavlink_stream.c.o
 .debug_aranges
                0x00000000000000c0       0x20 ./Debug_Linux/obj/communication_mavlink_waypoint_handler.c.o
 .debug_aranges
                0x00000000000000e0       0x20 ./Debug_Linux/obj/communication_onboard_parameters.c.o
 .debug_aranges
                0x0000000000000100       0x20 ./Debug_Linux/obj/communication_mavlink_message_handler.c.o
 .debug_aranges
                0x0000000000000120       0x20 ./Debug_Linux/obj/communication_mavlink_communication.c.o
 .debug_aranges
                0x0000000000000140       0x20 ./Debug_Linux/obj/communication_console.c.o
 .debug_aranges
                0x0000000000000160       0x20 ./Debug_Linux/obj/communication_state.c.o
 .debug_aranges
                0x0000000000000180       0x20 ./Debug_Linux/obj/communication_hud.c.o
 .debug_aranges
                0x00000000000001a0       0x20 ./Debug_Linux/obj/communication_remote.c.o
 .debug_aranges
                0x00000000000001c0       0x20 ./Debug_Linux/obj/communication_state_machine.c.o
 .debug_aranges
                0x00000000000001e0       0x20 ./Debug_Linux/obj/communication_data_logging.c.o
 .debug_aranges
                0x0000000000000200       0x20 ./Debug_Linux/obj/control_pid_control.c.o
 .debug_aranges
                0x0000000000000220       0x20 ./Debug_Linux/obj/control_navigation.c.o
 .debug_aranges
                0x0000000000000240       0x20 ./Debug_Linux/obj/control_stabilisation_copter.c.o
 .debug_aranges
                0x0000000000000260       0x20 ./Debug_Linux/obj/control_stabilisation.c.o
 .debug_aranges
                0x0000000000000280       0x20 ./Debug_Linux/obj/control_attitude_error_estimator.c.o
 .debug_aranges
                0x00000000000002a0       0x20 ./Debug_Linux/obj/control_attitude_controller_p2.c.o
 .debug_aranges
                0x00000000000002c0       0x20 ./Debug_Linux/obj/control_joystick_parsing.c.o
 .debug_aranges
                0x00000000000002e0       0x20 ./Debug_Linux/obj/control_servos_mix_quadcopter_diag.c.o
 .debug_aranges
                0x0000000000000300       0x20 ./Debug_Linux/obj/hal_bmp085.c.o
 .debug_aranges
                0x0000000000000320       0x20 ./Debug_Linux/obj/hal_time_keeper.c.o
 .debug_aranges
                0x0000000000000340       0x20 ./Debug_Linux/obj/hal_uart_int.c.o
 .debug_aranges
                0x0000000000000360       0x20 ./Debug_Linux/obj/hal_led.c.o
 .debug_aranges
                0x0000000000000380       0x20 ./Debug_Linux/obj/hal_spi_buffered.c.o
 .debug_aranges
                0x00000000000003a0       0x20 ./Debug_Linux/obj/hal_adc_int.c.o
 .debug_aranges
                0x00000000000003c0       0x20 ./Debug_Linux/obj/hal_dac_dma.c.o
 .debug_aranges
                0x00000000000003e0       0x20 ./Debug_Linux/obj/hal_ads1274.c.o
 .debug_aranges
                0x0000000000000400       0x20 ./Debug_Linux/obj/hal_analog_monitor.c.o
 .debug_aranges
                0x0000000000000420       0x20 ./Debug_Linux/obj/hal_i2c_driver_int.c.o
 .debug_aranges
                0x0000000000000440       0x20 ./Debug_Linux/obj/hal_piezo_speaker.c.o
 .debug_aranges
                0x0000000000000460       0x20 ./Debug_Linux/obj/hal_gps_ublox.c.o
 .debug_aranges
                0x0000000000000480       0x20 ./Debug_Linux/obj/hal_xbee.c.o
 .debug_aranges
                0x00000000000004a0       0x20 ./Debug_Linux/obj/hal_hmc5883l.c.o
 .debug_aranges
                0x00000000000004c0       0x20 ./Debug_Linux/obj/hal_lsm330dlc.c.o
 .debug_aranges
                0x00000000000004e0       0x20 ./Debug_Linux/obj/hal_spektrum_satellite.c.o
 .debug_aranges
                0x0000000000000500       0x20 ./Debug_Linux/obj/hal_servos.c.o
 .debug_aranges
                0x0000000000000520       0x20 ./Debug_Linux/obj/hal_pwm_servos.c.o
 .debug_aranges
                0x0000000000000540       0x20 ./Debug_Linux/obj/hal_sd_spi.c.o
 .debug_aranges
                0x0000000000000560       0x20 ./Debug_Linux/obj/hal_usb_int.c.o
 .debug_aranges
                0x0000000000000580       0x20 ./Debug_Linux/obj/runtime_scheduler.c.o
 .debug_aranges
                0x00000000000005a0       0x20 ./Debug_Linux/obj/sensing_imu.c.o
 .debug_aranges
                0x00000000000005c0       0x20 ./Debug_Linux/obj/sensing_position_estimation.c.o
 .debug_aranges
                0x00000000000005e0       0x20 ./Debug_Linux/obj/sensing_qfilter.c.o
 .debug_aranges
                0x0000000000000600       0x20 ./Debug_Linux/obj/sensing_simulation.c.o
 .debug_aranges
                0x0000000000000620       0x20 ./Debug_Linux/obj/sensing_ahrs.c.o
 .debug_aranges
                0x0000000000000640       0x20 ./Debug_Linux/obj/util_coord_conventions.c.o
 .debug_aranges
                0x0000000000000660       0x20 ./Debug_Linux/obj/util_print_util.c.o
 .debug_aranges
                0x0000000000000680       0x20 ./Debug_Linux/obj/util_buffer.c.o
 .debug_aranges
                0x00000000000006a0       0x20 ./Debug_Linux/obj/util_quick_trig.c.o
 .debug_aranges
                0x00000000000006c0       0x20 ./Debug_Linux/obj/fat_fs_diskio.c.o
 .debug_aranges
                0x00000000000006e0       0x20 ./Debug_Linux/obj/fat_fs_ff.c.o
 .debug_aranges
                0x0000000000000700       0x20 ./Debug_Linux/obj/option_cc932.c.o
 .debug_aranges
                0x0000000000000720       0x20 ./Debug_Linux/obj/option_syscall.c.o
 .debug_aranges
                0x0000000000000740       0x20 ./Debug_Linux/obj/user_board_init.c.o
 .debug_aranges
                0x0000000000000760       0x20 ./Debug_Linux/obj/stdio_read.c.o
 .debug_aranges
                0x0000000000000780       0x20 ./Debug_Linux/obj/stdio_write.c.o
 .debug_aranges
                0x00000000000007a0       0x20 ./Debug_Linux/obj/adcifa_adcifa.c.o
 .debug_aranges
                0x00000000000007c0       0x20 ./Debug_Linux/obj/usart_usart.c.o
 .debug_aranges
                0x00000000000007e0       0x20 ./Debug_Linux/obj/twim_twim.c.o
 .debug_aranges
                0x0000000000000800       0x20 ./Debug_Linux/obj/intc_intc.c.o
 .debug_aranges
                0x0000000000000820       0x20 ./Debug_Linux/obj/ast_ast.c.o
 .debug_aranges
                0x0000000000000840       0x20 ./Debug_Linux/obj/pevc_pevc.c.o
 .debug_aranges
                0x0000000000000860       0x20 ./Debug_Linux/obj/spi_spi.c.o
 .debug_aranges
                0x0000000000000880       0x20 ./Debug_Linux/obj/pdca_pdca.c.o
 .debug_aranges
                0x00000000000008a0       0x20 ./Debug_Linux/obj/eic_eic.c.o
 .debug_aranges
                0x00000000000008c0       0x20 ./Debug_Linux/obj/dacifb_dacifb.c.o
 .debug_aranges
                0x00000000000008e0       0x20 ./Debug_Linux/obj/flashc_flashc.c.o
 .debug_aranges
                0x0000000000000900       0x20 ./Debug_Linux/obj/gpio_gpio.c.o
 .debug_aranges
                0x0000000000000920       0x20 ./Debug_Linux/obj/scif_scif_uc3c.c.o
 .debug_aranges
                0x0000000000000940       0x20 ./Debug_Linux/obj/usbc_usbc_device.c.o
 .debug_aranges
                0x0000000000000960       0x20 ./Debug_Linux/obj/delay_delay.c.o
 .debug_aranges
                0x0000000000000980       0x20 ./Debug_Linux/obj/stdio_usb_stdio_usb.c.o
 .debug_aranges
                0x00000000000009a0       0x20 ./Debug_Linux/obj/uc3_spi_spi_master.c.o
 .debug_aranges
                0x00000000000009c0       0x20 ./Debug_Linux/obj/uc3c_pll.c.o
 .debug_aranges
                0x00000000000009e0       0x20 ./Debug_Linux/obj/uc3c_osc.c.o
 .debug_aranges
                0x0000000000000a00       0x20 ./Debug_Linux/obj/uc3c_sysclk.c.o
 .debug_aranges
                0x0000000000000a20       0x20 ./Debug_Linux/obj/udc_udc.c.o
 .debug_aranges
                0x0000000000000a40       0x20 ./Debug_Linux/obj/device_udi_cdc.c.o

.debug_pubnames
                0x0000000000000000     0x6c7b
 *(.debug_pubnames)
 .debug_pubnames
                0x0000000000000000      0x20f ./Debug_Linux/obj/src_tasks.c.o
 .debug_pubnames
                0x000000000000020f      0x150 ./Debug_Linux/obj/src_main.cpp.o
 .debug_pubnames
                0x000000000000035f      0x139 ./Debug_Linux/obj/src_boardsupport.c.o
 .debug_pubnames
                0x0000000000000498      0x1ae ./Debug_Linux/obj/src_mavlink_telemetry.c.o
 .debug_pubnames
                0x0000000000000646      0x160 ./Debug_Linux/obj/src_central_data.c.o
 .debug_pubnames
                0x00000000000007a6       0x76 ./Debug_Linux/obj/communication_mavlink_stream.c.o
 .debug_pubnames
                0x000000000000081c      0x212 ./Debug_Linux/obj/communication_mavlink_waypoint_handler.c.o
 .debug_pubnames
                0x0000000000000a2e      0x13e ./Debug_Linux/obj/communication_onboard_parameters.c.o
 .debug_pubnames
                0x0000000000000b6c      0x109 ./Debug_Linux/obj/communication_mavlink_message_handler.c.o
 .debug_pubnames
                0x0000000000000c75       0x7f ./Debug_Linux/obj/communication_mavlink_communication.c.o
 .debug_pubnames
                0x0000000000000cf4       0x9b ./Debug_Linux/obj/communication_console.c.o
 .debug_pubnames
                0x0000000000000d8f       0x50 ./Debug_Linux/obj/communication_state.c.o
 .debug_pubnames
                0x0000000000000ddf      0x145 ./Debug_Linux/obj/communication_hud.c.o
 .debug_pubnames
                0x0000000000000f24      0x119 ./Debug_Linux/obj/communication_remote.c.o
 .debug_pubnames
                0x000000000000103d      0x153 ./Debug_Linux/obj/communication_state_machine.c.o
 .debug_pubnames
                0x0000000000001190      0x1d7 ./Debug_Linux/obj/communication_data_logging.c.o
 .debug_pubnames
                0x0000000000001367       0x8c ./Debug_Linux/obj/control_pid_control.c.o
 .debug_pubnames
                0x00000000000013f3      0x22e ./Debug_Linux/obj/control_navigation.c.o
 .debug_pubnames
                0x0000000000001621      0x1cf ./Debug_Linux/obj/control_stabilisation_copter.c.o
 .debug_pubnames
                0x00000000000017f0       0xc2 ./Debug_Linux/obj/control_stabilisation.c.o
 .debug_pubnames
                0x00000000000018b2       0xe9 ./Debug_Linux/obj/control_attitude_error_estimator.c.o
 .debug_pubnames
                0x000000000000199b       0x54 ./Debug_Linux/obj/control_attitude_controller_p2.c.o
 .debug_pubnames
                0x00000000000019ef      0x13f ./Debug_Linux/obj/control_joystick_parsing.c.o
 .debug_pubnames
                0x0000000000001b2e       0x5b ./Debug_Linux/obj/control_servos_mix_quadcopter_diag.c.o
 .debug_pubnames
                0x0000000000001b89       0xd6 ./Debug_Linux/obj/hal_bmp085.c.o
 .debug_pubnames
                0x0000000000001c5f       0xef ./Debug_Linux/obj/hal_time_keeper.c.o
 .debug_pubnames
                0x0000000000001d4e      0x133 ./Debug_Linux/obj/hal_uart_int.c.o
 .debug_pubnames
                0x0000000000001e81       0xf6 ./Debug_Linux/obj/hal_led.c.o
 .debug_pubnames
                0x0000000000001f77      0x285 ./Debug_Linux/obj/hal_spi_buffered.c.o
 .debug_pubnames
                0x00000000000021fc      0x1a1 ./Debug_Linux/obj/hal_adc_int.c.o
 .debug_pubnames
                0x000000000000239d       0xee ./Debug_Linux/obj/hal_dac_dma.c.o
 .debug_pubnames
                0x000000000000248b      0x158 ./Debug_Linux/obj/hal_ads1274.c.o
 .debug_pubnames
                0x00000000000025e3       0x86 ./Debug_Linux/obj/hal_analog_monitor.c.o
 .debug_pubnames
                0x0000000000002669       0xa1 ./Debug_Linux/obj/hal_i2c_driver_int.c.o
 .debug_pubnames
                0x000000000000270a      0x102 ./Debug_Linux/obj/hal_piezo_speaker.c.o
 .debug_pubnames
                0x000000000000280c      0x7ed ./Debug_Linux/obj/hal_gps_ublox.c.o
 .debug_pubnames
                0x0000000000002ff9       0x89 ./Debug_Linux/obj/hal_xbee.c.o
 .debug_pubnames
                0x0000000000003082       0x3d ./Debug_Linux/obj/hal_hmc5883l.c.o
 .debug_pubnames
                0x00000000000030bf       0x58 ./Debug_Linux/obj/hal_lsm330dlc.c.o
 .debug_pubnames
                0x0000000000003117      0x111 ./Debug_Linux/obj/hal_spektrum_satellite.c.o
 .debug_pubnames
                0x0000000000003228       0x6d ./Debug_Linux/obj/hal_servos.c.o
 .debug_pubnames
                0x0000000000003295       0xb0 ./Debug_Linux/obj/hal_pwm_servos.c.o
 .debug_pubnames
                0x0000000000003345      0x252 ./Debug_Linux/obj/hal_sd_spi.c.o
 .debug_pubnames
                0x0000000000003597       0xb0 ./Debug_Linux/obj/hal_usb_int.c.o
 .debug_pubnames
                0x0000000000003647      0x138 ./Debug_Linux/obj/runtime_scheduler.c.o
 .debug_pubnames
                0x000000000000377f       0x6b ./Debug_Linux/obj/sensing_imu.c.o
 .debug_pubnames
                0x00000000000037ea      0x1de ./Debug_Linux/obj/sensing_position_estimation.c.o
 .debug_pubnames
                0x00000000000039c8       0x36 ./Debug_Linux/obj/sensing_qfilter.c.o
 .debug_pubnames
                0x00000000000039fe      0x29f ./Debug_Linux/obj/sensing_simulation.c.o
 .debug_pubnames
                0x0000000000003c9d       0x59 ./Debug_Linux/obj/sensing_ahrs.c.o
 .debug_pubnames
                0x0000000000003cf6       0xdc ./Debug_Linux/obj/util_coord_conventions.c.o
 .debug_pubnames
                0x0000000000003dd2      0x21c ./Debug_Linux/obj/util_print_util.c.o
 .debug_pubnames
                0x0000000000003fee       0xe8 ./Debug_Linux/obj/util_buffer.c.o
 .debug_pubnames
                0x00000000000040d6      0x163 ./Debug_Linux/obj/util_quick_trig.c.o
 .debug_pubnames
                0x0000000000004239       0xdb ./Debug_Linux/obj/fat_fs_diskio.c.o
 .debug_pubnames
                0x0000000000004314      0x149 ./Debug_Linux/obj/fat_fs_ff.c.o
 .debug_pubnames
                0x000000000000445d       0x31 ./Debug_Linux/obj/option_cc932.c.o
 .debug_pubnames
                0x000000000000448e       0x31 ./Debug_Linux/obj/option_syscall.c.o
 .debug_pubnames
                0x00000000000044bf       0x21 ./Debug_Linux/obj/user_board_init.c.o
 .debug_pubnames
                0x00000000000044e0       0x28 ./Debug_Linux/obj/stdio_read.c.o
 .debug_pubnames
                0x0000000000004508       0x38 ./Debug_Linux/obj/stdio_write.c.o
 .debug_pubnames
                0x0000000000004540      0x177 ./Debug_Linux/obj/adcifa_adcifa.c.o
 .debug_pubnames
                0x00000000000046b7      0x227 ./Debug_Linux/obj/usart_usart.c.o
 .debug_pubnames
                0x00000000000048de       0xd6 ./Debug_Linux/obj/twim_twim.c.o
 .debug_pubnames
                0x00000000000049b4       0x62 ./Debug_Linux/obj/intc_intc.c.o
 .debug_pubnames
                0x0000000000004a16      0x1e0 ./Debug_Linux/obj/ast_ast.c.o
 .debug_pubnames
                0x0000000000004bf6      0x2b6 ./Debug_Linux/obj/pevc_pevc.c.o
 .debug_pubnames
                0x0000000000004eac      0x178 ./Debug_Linux/obj/spi_spi.c.o
 .debug_pubnames
                0x0000000000005024      0x275 ./Debug_Linux/obj/pdca_pdca.c.o
 .debug_pubnames
                0x0000000000005299      0x186 ./Debug_Linux/obj/eic_eic.c.o
 .debug_pubnames
                0x000000000000541f       0xbf ./Debug_Linux/obj/dacifb_dacifb.c.o
 .debug_pubnames
                0x00000000000054de      0x79d ./Debug_Linux/obj/flashc_flashc.c.o
 .debug_pubnames
                0x0000000000005c7b      0x3aa ./Debug_Linux/obj/gpio_gpio.c.o
 .debug_pubnames
                0x0000000000006025      0x3f6 ./Debug_Linux/obj/scif_scif_uc3c.c.o
 .debug_pubnames
                0x000000000000641b      0x1f1 ./Debug_Linux/obj/usbc_usbc_device.c.o
 .debug_pubnames
                0x000000000000660c       0x2e ./Debug_Linux/obj/delay_delay.c.o
 .debug_pubnames
                0x000000000000663a       0x95 ./Debug_Linux/obj/stdio_usb_stdio_usb.c.o
 .debug_pubnames
                0x00000000000066cf       0x25 ./Debug_Linux/obj/uc3_sleepmgr.c.o
 .debug_pubnames
                0x00000000000066f4       0x57 ./Debug_Linux/obj/uc3_spi_spi_master.c.o
 .debug_pubnames
                0x000000000000674b       0x46 ./Debug_Linux/obj/uc3c_pll.c.o
 .debug_pubnames
                0x0000000000006791       0xe4 ./Debug_Linux/obj/uc3c_osc.c.o
 .debug_pubnames
                0x0000000000006875       0xbc ./Debug_Linux/obj/uc3c_sysclk.c.o
 .debug_pubnames
                0x0000000000006931       0x64 ./Debug_Linux/obj/udc_udc.c.o
 .debug_pubnames
                0x0000000000006995      0x283 ./Debug_Linux/obj/device_udi_cdc.c.o
 .debug_pubnames
                0x0000000000006c18       0x63 ./Debug_Linux/obj/device_udi_cdc_desc.c.o

.debug_info     0x0000000000000000    0x8c176
 *(.debug_info .gnu.linkonce.wi.*)
 .debug_info    0x0000000000000000     0x38da ./Debug_Linux/obj/src_tasks.c.o
 .debug_info    0x00000000000038da     0x33b3 ./Debug_Linux/obj/src_main.cpp.o
 .debug_info    0x0000000000006c8d     0x37bb ./Debug_Linux/obj/src_boardsupport.c.o
 .debug_info    0x000000000000a448     0x36ba ./Debug_Linux/obj/src_mavlink_telemetry.c.o
 .debug_info    0x000000000000db02     0x3bd8 ./Debug_Linux/obj/src_central_data.c.o
 .debug_info    0x00000000000116da      0xafc ./Debug_Linux/obj/communication_mavlink_stream.c.o
 .debug_info    0x00000000000121d6     0x4ff3 ./Debug_Linux/obj/communication_mavlink_waypoint_handler.c.o
 .debug_info    0x00000000000171c9     0x1e8b ./Debug_Linux/obj/communication_onboard_parameters.c.o
 .debug_info    0x0000000000019054     0x1162 ./Debug_Linux/obj/communication_mavlink_message_handler.c.o
 .debug_info    0x000000000001a1b6     0x10d3 ./Debug_Linux/obj/communication_mavlink_communication.c.o
 .debug_info    0x000000000001b289     0x2a93 ./Debug_Linux/obj/communication_console.c.o
 .debug_info    0x000000000001dd1c     0x16a3 ./Debug_Linux/obj/communication_state.c.o
 .debug_info    0x000000000001f3bf     0x1996 ./Debug_Linux/obj/communication_hud.c.o
 .debug_info    0x0000000000020d55     0x1722 ./Debug_Linux/obj/communication_remote.c.o
 .debug_info    0x0000000000022477     0x258d ./Debug_Linux/obj/communication_state_machine.c.o
 .debug_info    0x0000000000024a04     0x1144 ./Debug_Linux/obj/communication_data_logging.c.o
 .debug_info    0x0000000000025b48      0x53d ./Debug_Linux/obj/control_pid_control.c.o
 .debug_info    0x0000000000026085     0x2f45 ./Debug_Linux/obj/control_navigation.c.o
 .debug_info    0x0000000000028fca     0x1d7e ./Debug_Linux/obj/control_stabilisation_copter.c.o
 .debug_info    0x000000000002ad48     0x10ae ./Debug_Linux/obj/control_stabilisation.c.o
 .debug_info    0x000000000002bdf6      0x7e9 ./Debug_Linux/obj/control_attitude_error_estimator.c.o
 .debug_info    0x000000000002c5df      0x6e4 ./Debug_Linux/obj/control_attitude_controller_p2.c.o
 .debug_info    0x000000000002ccc3     0x1f71 ./Debug_Linux/obj/control_joystick_parsing.c.o
 .debug_info    0x000000000002ec34      0x78f ./Debug_Linux/obj/control_servos_mix_quadcopter_diag.c.o
 .debug_info    0x000000000002f3c3     0x19dc ./Debug_Linux/obj/hal_bmp085.c.o
 .debug_info    0x0000000000030d9f      0xd50 ./Debug_Linux/obj/hal_time_keeper.c.o
 .debug_info    0x0000000000031aef     0x2cc8 ./Debug_Linux/obj/hal_uart_int.c.o
 .debug_info    0x00000000000347b7      0xb18 ./Debug_Linux/obj/hal_led.c.o
 .debug_info    0x00000000000352cf     0x20b7 ./Debug_Linux/obj/hal_spi_buffered.c.o
 .debug_info    0x0000000000037386     0x1e5e ./Debug_Linux/obj/hal_adc_int.c.o
 .debug_info    0x00000000000391e4     0x1b2a ./Debug_Linux/obj/hal_dac_dma.c.o
 .debug_info    0x000000000003ad0e     0x4148 ./Debug_Linux/obj/hal_ads1274.c.o
 .debug_info    0x000000000003ee56      0x2fb ./Debug_Linux/obj/hal_analog_monitor.c.o
 .debug_info    0x000000000003f151      0xf22 ./Debug_Linux/obj/hal_i2c_driver_int.c.o
 .debug_info    0x0000000000040073      0x24d ./Debug_Linux/obj/hal_piezo_speaker.c.o
 .debug_info    0x00000000000402c0     0x54c5 ./Debug_Linux/obj/hal_gps_ublox.c.o
 .debug_info    0x0000000000045785     0x296c ./Debug_Linux/obj/hal_xbee.c.o
 .debug_info    0x00000000000480f1      0xd37 ./Debug_Linux/obj/hal_hmc5883l.c.o
 .debug_info    0x0000000000048e28     0x11f0 ./Debug_Linux/obj/hal_lsm330dlc.c.o
 .debug_info    0x000000000004a018     0x2bc3 ./Debug_Linux/obj/hal_spektrum_satellite.c.o
 .debug_info    0x000000000004cbdb      0xbaa ./Debug_Linux/obj/hal_servos.c.o
 .debug_info    0x000000000004d785     0x29a3 ./Debug_Linux/obj/hal_pwm_servos.c.o
 .debug_info    0x0000000000050128     0x255c ./Debug_Linux/obj/hal_sd_spi.c.o
 .debug_info    0x0000000000052684      0x320 ./Debug_Linux/obj/hal_usb_int.c.o
 .debug_info    0x00000000000529a4     0x19e3 ./Debug_Linux/obj/runtime_scheduler.c.o
 .debug_info    0x0000000000054387     0x10b1 ./Debug_Linux/obj/sensing_imu.c.o
 .debug_info    0x0000000000055438     0x25f6 ./Debug_Linux/obj/sensing_position_estimation.c.o
 .debug_info    0x0000000000057a2e      0xe38 ./Debug_Linux/obj/sensing_qfilter.c.o
 .debug_info    0x0000000000058866     0x35bb ./Debug_Linux/obj/sensing_simulation.c.o
 .debug_info    0x000000000005be21      0xd41 ./Debug_Linux/obj/sensing_ahrs.c.o
 .debug_info    0x000000000005cb62      0x306 ./Debug_Linux/obj/util_coord_conventions.c.o
 .debug_info    0x000000000005ce68      0xd46 ./Debug_Linux/obj/util_print_util.c.o
 .debug_info    0x000000000005dbae      0x429 ./Debug_Linux/obj/util_buffer.c.o
 .debug_info    0x000000000005dfd7     0x104b ./Debug_Linux/obj/util_quick_trig.c.o
 .debug_info    0x000000000005f022      0xf81 ./Debug_Linux/obj/fat_fs_diskio.c.o
 .debug_info    0x000000000005ffa3     0x34bb ./Debug_Linux/obj/fat_fs_ff.c.o
 .debug_info    0x000000000006345e      0x1c8 ./Debug_Linux/obj/option_cc932.c.o
 .debug_info    0x0000000000063626       0xd1 ./Debug_Linux/obj/option_syscall.c.o
 .debug_info    0x00000000000636f7       0xa0 ./Debug_Linux/obj/user_board_init.c.o
 .debug_info    0x0000000000063797      0x146 ./Debug_Linux/obj/stdio_read.c.o
 .debug_info    0x00000000000638dd      0x136 ./Debug_Linux/obj/stdio_write.c.o
 .debug_info    0x0000000000063a13     0x1dfb ./Debug_Linux/obj/adcifa_adcifa.c.o
 .debug_info    0x000000000006580e     0x37c3 ./Debug_Linux/obj/usart_usart.c.o
 .debug_info    0x0000000000068fd1     0x148a ./Debug_Linux/obj/twim_twim.c.o
 .debug_info    0x000000000006a45b      0x820 ./Debug_Linux/obj/intc_intc.c.o
 .debug_info    0x000000000006ac7b     0x12ba ./Debug_Linux/obj/ast_ast.c.o
 .debug_info    0x000000000006bf35      0x9f8 ./Debug_Linux/obj/pevc_pevc.c.o
 .debug_info    0x000000000006c92d     0x130c ./Debug_Linux/obj/spi_spi.c.o
 .debug_info    0x000000000006dc39     0x114b ./Debug_Linux/obj/pdca_pdca.c.o
 .debug_info    0x000000000006ed84     0x1976 ./Debug_Linux/obj/eic_eic.c.o
 .debug_info    0x00000000000706fa      0xed8 ./Debug_Linux/obj/dacifb_dacifb.c.o
 .debug_info    0x00000000000715d2     0x3acb ./Debug_Linux/obj/flashc_flashc.c.o
 .debug_info    0x000000000007509d      0xfb4 ./Debug_Linux/obj/gpio_gpio.c.o
 .debug_info    0x0000000000076051     0x1d59 ./Debug_Linux/obj/scif_scif_uc3c.c.o
 .debug_info    0x0000000000077daa     0xb73e ./Debug_Linux/obj/usbc_usbc_device.c.o
 .debug_info    0x00000000000834e8      0x26f ./Debug_Linux/obj/delay_delay.c.o
 .debug_info    0x0000000000083757      0x29d ./Debug_Linux/obj/stdio_usb_stdio_usb.c.o
 .debug_info    0x00000000000839f4       0xf5 ./Debug_Linux/obj/uc3_sleepmgr.c.o
 .debug_info    0x0000000000083ae9     0x131e ./Debug_Linux/obj/uc3_spi_spi_master.c.o
 .debug_info    0x0000000000084e07     0x12e6 ./Debug_Linux/obj/uc3c_pll.c.o
 .debug_info    0x00000000000860ed     0x1473 ./Debug_Linux/obj/uc3c_osc.c.o
 .debug_info    0x0000000000087560     0x2642 ./Debug_Linux/obj/uc3c_sysclk.c.o
 .debug_info    0x0000000000089ba2      0xe3d ./Debug_Linux/obj/udc_udc.c.o
 .debug_info    0x000000000008a9df     0x1038 ./Debug_Linux/obj/device_udi_cdc.c.o
 .debug_info    0x000000000008ba17      0x75f ./Debug_Linux/obj/device_udi_cdc_desc.c.o

.debug_abbrev   0x0000000000000000     0xcbdc
 *(.debug_abbrev)
 .debug_abbrev  0x0000000000000000      0x301 ./Debug_Linux/obj/src_tasks.c.o
 .debug_abbrev  0x0000000000000301      0x1bd ./Debug_Linux/obj/src_main.cpp.o
 .debug_abbrev  0x00000000000004be      0x26a ./Debug_Linux/obj/src_boardsupport.c.o
 .debug_abbrev  0x0000000000000728      0x235 ./Debug_Linux/obj/src_mavlink_telemetry.c.o
 .debug_abbrev  0x000000000000095d      0x20a ./Debug_Linux/obj/src_central_data.c.o
 .debug_abbrev  0x0000000000000b67      0x26b ./Debug_Linux/obj/communication_mavlink_stream.c.o
 .debug_abbrev  0x0000000000000dd2      0x46e ./Debug_Linux/obj/communication_mavlink_waypoint_handler.c.o
 .debug_abbrev  0x0000000000001240      0x3d1 ./Debug_Linux/obj/communication_onboard_parameters.c.o
 .debug_abbrev  0x0000000000001611      0x2d3 ./Debug_Linux/obj/communication_mavlink_message_handler.c.o
 .debug_abbrev  0x00000000000018e4      0x26d ./Debug_Linux/obj/communication_mavlink_communication.c.o
 .debug_abbrev  0x0000000000001b51      0x203 ./Debug_Linux/obj/communication_console.c.o
 .debug_abbrev  0x0000000000001d54      0x2d9 ./Debug_Linux/obj/communication_state.c.o
 .debug_abbrev  0x000000000000202d      0x2d5 ./Debug_Linux/obj/communication_hud.c.o
 .debug_abbrev  0x0000000000002302      0x367 ./Debug_Linux/obj/communication_remote.c.o
 .debug_abbrev  0x0000000000002669      0x1e3 ./Debug_Linux/obj/communication_state_machine.c.o
 .debug_abbrev  0x000000000000284c      0x2c9 ./Debug_Linux/obj/communication_data_logging.c.o
 .debug_abbrev  0x0000000000002b15      0x1af ./Debug_Linux/obj/control_pid_control.c.o
 .debug_abbrev  0x0000000000002cc4      0x40e ./Debug_Linux/obj/control_navigation.c.o
 .debug_abbrev  0x00000000000030d2      0x2f2 ./Debug_Linux/obj/control_stabilisation_copter.c.o
 .debug_abbrev  0x00000000000033c4      0x245 ./Debug_Linux/obj/control_stabilisation.c.o
 .debug_abbrev  0x0000000000003609      0x1d7 ./Debug_Linux/obj/control_attitude_error_estimator.c.o
 .debug_abbrev  0x00000000000037e0      0x12a ./Debug_Linux/obj/control_attitude_controller_p2.c.o
 .debug_abbrev  0x000000000000390a      0x2c0 ./Debug_Linux/obj/control_joystick_parsing.c.o
 .debug_abbrev  0x0000000000003bca      0x184 ./Debug_Linux/obj/control_servos_mix_quadcopter_diag.c.o
 .debug_abbrev  0x0000000000003d4e      0x36b ./Debug_Linux/obj/hal_bmp085.c.o
 .debug_abbrev  0x00000000000040b9      0x1d2 ./Debug_Linux/obj/hal_time_keeper.c.o
 .debug_abbrev  0x000000000000428b      0x292 ./Debug_Linux/obj/hal_uart_int.c.o
 .debug_abbrev  0x000000000000451d      0x2a0 ./Debug_Linux/obj/hal_led.c.o
 .debug_abbrev  0x00000000000047bd      0x337 ./Debug_Linux/obj/hal_spi_buffered.c.o
 .debug_abbrev  0x0000000000004af4      0x30f ./Debug_Linux/obj/hal_adc_int.c.o
 .debug_abbrev  0x0000000000004e03      0x288 ./Debug_Linux/obj/hal_dac_dma.c.o
 .debug_abbrev  0x000000000000508b      0x333 ./Debug_Linux/obj/hal_ads1274.c.o
 .debug_abbrev  0x00000000000053be      0x19d ./Debug_Linux/obj/hal_analog_monitor.c.o
 .debug_abbrev  0x000000000000555b      0x220 ./Debug_Linux/obj/hal_i2c_driver_int.c.o
 .debug_abbrev  0x000000000000577b      0x116 ./Debug_Linux/obj/hal_piezo_speaker.c.o
 .debug_abbrev  0x0000000000005891      0x473 ./Debug_Linux/obj/hal_gps_ublox.c.o
 .debug_abbrev  0x0000000000005d04      0x1d9 ./Debug_Linux/obj/hal_xbee.c.o
 .debug_abbrev  0x0000000000005edd      0x164 ./Debug_Linux/obj/hal_hmc5883l.c.o
 .debug_abbrev  0x0000000000006041      0x1ff ./Debug_Linux/obj/hal_lsm330dlc.c.o
 .debug_abbrev  0x0000000000006240      0x39e ./Debug_Linux/obj/hal_spektrum_satellite.c.o
 .debug_abbrev  0x00000000000065de      0x24c ./Debug_Linux/obj/hal_servos.c.o
 .debug_abbrev  0x000000000000682a      0x2ad ./Debug_Linux/obj/hal_pwm_servos.c.o
 .debug_abbrev  0x0000000000006ad7      0x418 ./Debug_Linux/obj/hal_sd_spi.c.o
 .debug_abbrev  0x0000000000006eef      0x123 ./Debug_Linux/obj/hal_usb_int.c.o
 .debug_abbrev  0x0000000000007012      0x360 ./Debug_Linux/obj/runtime_scheduler.c.o
 .debug_abbrev  0x0000000000007372      0x259 ./Debug_Linux/obj/sensing_imu.c.o
 .debug_abbrev  0x00000000000075cb      0x3a3 ./Debug_Linux/obj/sensing_position_estimation.c.o
 .debug_abbrev  0x000000000000796e      0x248 ./Debug_Linux/obj/sensing_qfilter.c.o
 .debug_abbrev  0x0000000000007bb6      0x444 ./Debug_Linux/obj/sensing_simulation.c.o
 .debug_abbrev  0x0000000000007ffa      0x254 ./Debug_Linux/obj/sensing_ahrs.c.o
 .debug_abbrev  0x000000000000824e      0x103 ./Debug_Linux/obj/util_coord_conventions.c.o
 .debug_abbrev  0x0000000000008351      0x2fa ./Debug_Linux/obj/util_print_util.c.o
 .debug_abbrev  0x000000000000864b      0x168 ./Debug_Linux/obj/util_buffer.c.o
 .debug_abbrev  0x00000000000087b3      0x199 ./Debug_Linux/obj/util_quick_trig.c.o
 .debug_abbrev  0x000000000000894c      0x28b ./Debug_Linux/obj/fat_fs_diskio.c.o
 .debug_abbrev  0x0000000000008bd7      0x2c7 ./Debug_Linux/obj/fat_fs_ff.c.o
 .debug_abbrev  0x0000000000008e9e       0xcb ./Debug_Linux/obj/option_cc932.c.o
 .debug_abbrev  0x0000000000008f69       0x82 ./Debug_Linux/obj/option_syscall.c.o
 .debug_abbrev  0x0000000000008feb       0x48 ./Debug_Linux/obj/user_board_init.c.o
 .debug_abbrev  0x0000000000009033       0xd6 ./Debug_Linux/obj/stdio_read.c.o
 .debug_abbrev  0x0000000000009109       0xb1 ./Debug_Linux/obj/stdio_write.c.o
 .debug_abbrev  0x00000000000091ba      0x251 ./Debug_Linux/obj/adcifa_adcifa.c.o
 .debug_abbrev  0x000000000000940b      0x2c2 ./Debug_Linux/obj/usart_usart.c.o
 .debug_abbrev  0x00000000000096cd      0x2e7 ./Debug_Linux/obj/twim_twim.c.o
 .debug_abbrev  0x00000000000099b4      0x1ca ./Debug_Linux/obj/intc_intc.c.o
 .debug_abbrev  0x0000000000009b7e      0x25d ./Debug_Linux/obj/ast_ast.c.o
 .debug_abbrev  0x0000000000009ddb      0x1c2 ./Debug_Linux/obj/pevc_pevc.c.o
 .debug_abbrev  0x0000000000009f9d      0x247 ./Debug_Linux/obj/spi_spi.c.o
 .debug_abbrev  0x000000000000a1e4      0x336 ./Debug_Linux/obj/pdca_pdca.c.o
 .debug_abbrev  0x000000000000a51a      0x1fd ./Debug_Linux/obj/eic_eic.c.o
 .debug_abbrev  0x000000000000a717      0x25f ./Debug_Linux/obj/dacifb_dacifb.c.o
 .debug_abbrev  0x000000000000a976      0x455 ./Debug_Linux/obj/flashc_flashc.c.o
 .debug_abbrev  0x000000000000adcb      0x32a ./Debug_Linux/obj/gpio_gpio.c.o
 .debug_abbrev  0x000000000000b0f5      0x353 ./Debug_Linux/obj/scif_scif_uc3c.c.o
 .debug_abbrev  0x000000000000b448      0x414 ./Debug_Linux/obj/usbc_usbc_device.c.o
 .debug_abbrev  0x000000000000b85c      0x16e ./Debug_Linux/obj/delay_delay.c.o
 .debug_abbrev  0x000000000000b9ca      0x174 ./Debug_Linux/obj/stdio_usb_stdio_usb.c.o
 .debug_abbrev  0x000000000000bb3e       0x7b ./Debug_Linux/obj/uc3_sleepmgr.c.o
 .debug_abbrev  0x000000000000bbb9      0x24a ./Debug_Linux/obj/uc3_spi_spi_master.c.o
 .debug_abbrev  0x000000000000be03      0x1dc ./Debug_Linux/obj/uc3c_pll.c.o
 .debug_abbrev  0x000000000000bfdf      0x1b5 ./Debug_Linux/obj/uc3c_osc.c.o
 .debug_abbrev  0x000000000000c194      0x2f3 ./Debug_Linux/obj/uc3c_sysclk.c.o
 .debug_abbrev  0x000000000000c487      0x2fd ./Debug_Linux/obj/udc_udc.c.o
 .debug_abbrev  0x000000000000c784      0x35f ./Debug_Linux/obj/device_udi_cdc.c.o
 .debug_abbrev  0x000000000000cae3       0xf9 ./Debug_Linux/obj/device_udi_cdc_desc.c.o

.debug_line     0x0000000000000000    0x3041a
 *(.debug_line)
 .debug_line    0x0000000000000000      0x8a0 ./Debug_Linux/obj/src_tasks.c.o
 .debug_line    0x00000000000008a0      0x577 ./Debug_Linux/obj/src_main.cpp.o
 .debug_line    0x0000000000000e17      0x727 ./Debug_Linux/obj/src_boardsupport.c.o
 .debug_line    0x000000000000153e      0x824 ./Debug_Linux/obj/src_mavlink_telemetry.c.o
 .debug_line    0x0000000000001d62      0x7c5 ./Debug_Linux/obj/src_central_data.c.o
 .debug_line    0x0000000000002527      0x52f ./Debug_Linux/obj/communication_mavlink_stream.c.o
 .debug_line    0x0000000000002a56     0x3322 ./Debug_Linux/obj/communication_mavlink_waypoint_handler.c.o
 .debug_line    0x0000000000005d78      0xe88 ./Debug_Linux/obj/communication_onboard_parameters.c.o
 .debug_line    0x0000000000006c00      0x72d ./Debug_Linux/obj/communication_mavlink_message_handler.c.o
 .debug_line    0x000000000000732d      0x45e ./Debug_Linux/obj/communication_mavlink_communication.c.o
 .debug_line    0x000000000000778b      0x29e ./Debug_Linux/obj/communication_console.c.o
 .debug_line    0x0000000000007a29      0xa3b ./Debug_Linux/obj/communication_state.c.o
 .debug_line    0x0000000000008464      0x56b ./Debug_Linux/obj/communication_hud.c.o
 .debug_line    0x00000000000089cf      0xca7 ./Debug_Linux/obj/communication_remote.c.o
 .debug_line    0x0000000000009676      0x545 ./Debug_Linux/obj/communication_state_machine.c.o
 .debug_line    0x0000000000009bbb      0xee1 ./Debug_Linux/obj/communication_data_logging.c.o
 .debug_line    0x000000000000aa9c      0x2fd ./Debug_Linux/obj/control_pid_control.c.o
 .debug_line    0x000000000000ad99     0x11e0 ./Debug_Linux/obj/control_navigation.c.o
 .debug_line    0x000000000000bf79      0x9ab ./Debug_Linux/obj/control_stabilisation_copter.c.o
 .debug_line    0x000000000000c924      0x823 ./Debug_Linux/obj/control_stabilisation.c.o
 .debug_line    0x000000000000d147      0x453 ./Debug_Linux/obj/control_attitude_error_estimator.c.o
 .debug_line    0x000000000000d59a      0x2c2 ./Debug_Linux/obj/control_attitude_controller_p2.c.o
 .debug_line    0x000000000000d85c      0xa52 ./Debug_Linux/obj/control_joystick_parsing.c.o
 .debug_line    0x000000000000e2ae      0x328 ./Debug_Linux/obj/control_servos_mix_quadcopter_diag.c.o
 .debug_line    0x000000000000e5d6      0x895 ./Debug_Linux/obj/hal_bmp085.c.o
 .debug_line    0x000000000000ee6b      0x22d ./Debug_Linux/obj/hal_time_keeper.c.o
 .debug_line    0x000000000000f098      0x45b ./Debug_Linux/obj/hal_uart_int.c.o
 .debug_line    0x000000000000f4f3      0x4a1 ./Debug_Linux/obj/hal_led.c.o
 .debug_line    0x000000000000f994      0x9fc ./Debug_Linux/obj/hal_spi_buffered.c.o
 .debug_line    0x0000000000010390      0x550 ./Debug_Linux/obj/hal_adc_int.c.o
 .debug_line    0x00000000000108e0      0x434 ./Debug_Linux/obj/hal_dac_dma.c.o
 .debug_line    0x0000000000010d14      0x429 ./Debug_Linux/obj/hal_ads1274.c.o
 .debug_line    0x000000000001113d      0x305 ./Debug_Linux/obj/hal_analog_monitor.c.o
 .debug_line    0x0000000000011442      0x49b ./Debug_Linux/obj/hal_i2c_driver_int.c.o
 .debug_line    0x00000000000118dd      0x3ff ./Debug_Linux/obj/hal_piezo_speaker.c.o
 .debug_line    0x0000000000011cdc     0x1b5b ./Debug_Linux/obj/hal_gps_ublox.c.o
 .debug_line    0x0000000000013837      0x22f ./Debug_Linux/obj/hal_xbee.c.o
 .debug_line    0x0000000000013a66      0x203 ./Debug_Linux/obj/hal_hmc5883l.c.o
 .debug_line    0x0000000000013c69      0x3b0 ./Debug_Linux/obj/hal_lsm330dlc.c.o
 .debug_line    0x0000000000014019      0x678 ./Debug_Linux/obj/hal_spektrum_satellite.c.o
 .debug_line    0x0000000000014691      0x62a ./Debug_Linux/obj/hal_servos.c.o
 .debug_line    0x0000000000014cbb      0x44d ./Debug_Linux/obj/hal_pwm_servos.c.o
 .debug_line    0x0000000000015108     0x1d77 ./Debug_Linux/obj/hal_sd_spi.c.o
 .debug_line    0x0000000000016e7f      0x1db ./Debug_Linux/obj/hal_usb_int.c.o
 .debug_line    0x000000000001705a      0xf60 ./Debug_Linux/obj/runtime_scheduler.c.o
 .debug_line    0x0000000000017fba      0x9fa ./Debug_Linux/obj/sensing_imu.c.o
 .debug_line    0x00000000000189b4     0x102b ./Debug_Linux/obj/sensing_position_estimation.c.o
 .debug_line    0x00000000000199df      0x929 ./Debug_Linux/obj/sensing_qfilter.c.o
 .debug_line    0x000000000001a308     0x20cd ./Debug_Linux/obj/sensing_simulation.c.o
 .debug_line    0x000000000001c3d5      0x6ff ./Debug_Linux/obj/sensing_ahrs.c.o
 .debug_line    0x000000000001cad4      0x320 ./Debug_Linux/obj/util_coord_conventions.c.o
 .debug_line    0x000000000001cdf4      0x994 ./Debug_Linux/obj/util_print_util.c.o
 .debug_line    0x000000000001d788      0x2f3 ./Debug_Linux/obj/util_buffer.c.o
 .debug_line    0x000000000001da7b      0x93d ./Debug_Linux/obj/util_quick_trig.c.o
 .debug_line    0x000000000001e3b8      0xe3c ./Debug_Linux/obj/fat_fs_diskio.c.o
 .debug_line    0x000000000001f1f4     0x3ebe ./Debug_Linux/obj/fat_fs_ff.c.o
 .debug_line    0x00000000000230b2      0x255 ./Debug_Linux/obj/option_cc932.c.o
 .debug_line    0x0000000000023307      0x12b ./Debug_Linux/obj/option_syscall.c.o
 .debug_line    0x0000000000023432       0xb1 ./Debug_Linux/obj/user_board_init.c.o
 .debug_line    0x00000000000234e3       0xe2 ./Debug_Linux/obj/stdio_read.c.o
 .debug_line    0x00000000000235c5       0xcb ./Debug_Linux/obj/stdio_write.c.o
 .debug_line    0x0000000000023690      0x545 ./Debug_Linux/obj/adcifa_adcifa.c.o
 .debug_line    0x0000000000023bd5      0xefe ./Debug_Linux/obj/usart_usart.c.o
 .debug_line    0x0000000000024ad3      0xbb1 ./Debug_Linux/obj/twim_twim.c.o
 .debug_line    0x0000000000025684      0x1c9 ./Debug_Linux/obj/intc_intc.c.o
 .debug_line    0x000000000002584d      0x4f6 ./Debug_Linux/obj/ast_ast.c.o
 .debug_line    0x0000000000025d43      0x328 ./Debug_Linux/obj/pevc_pevc.c.o
 .debug_line    0x000000000002606b      0x536 ./Debug_Linux/obj/spi_spi.c.o
 .debug_line    0x00000000000265a1      0x79e ./Debug_Linux/obj/pdca_pdca.c.o
 .debug_line    0x0000000000026d3f      0x45a ./Debug_Linux/obj/eic_eic.c.o
 .debug_line    0x0000000000027199      0x4c0 ./Debug_Linux/obj/dacifb_dacifb.c.o
 .debug_line    0x0000000000027659     0x3b79 ./Debug_Linux/obj/flashc_flashc.c.o
 .debug_line    0x000000000002b1d2      0x926 ./Debug_Linux/obj/gpio_gpio.c.o
 .debug_line    0x000000000002baf8      0xa22 ./Debug_Linux/obj/scif_scif_uc3c.c.o
 .debug_line    0x000000000002c51a     0x1388 ./Debug_Linux/obj/usbc_usbc_device.c.o
 .debug_line    0x000000000002d8a2      0x190 ./Debug_Linux/obj/delay_delay.c.o
 .debug_line    0x000000000002da32      0x1c1 ./Debug_Linux/obj/stdio_usb_stdio_usb.c.o
 .debug_line    0x000000000002dbf3      0x131 ./Debug_Linux/obj/uc3_sleepmgr.c.o
 .debug_line    0x000000000002dd24      0x44c ./Debug_Linux/obj/uc3_spi_spi_master.c.o
 .debug_line    0x000000000002e170      0x2b0 ./Debug_Linux/obj/uc3c_pll.c.o
 .debug_line    0x000000000002e420      0x418 ./Debug_Linux/obj/uc3c_osc.c.o
 .debug_line    0x000000000002e838      0x560 ./Debug_Linux/obj/uc3c_sysclk.c.o
 .debug_line    0x000000000002ed98      0x81b ./Debug_Linux/obj/udc_udc.c.o
 .debug_line    0x000000000002f5b3      0xc60 ./Debug_Linux/obj/device_udi_cdc.c.o
 .debug_line    0x0000000000030213      0x207 ./Debug_Linux/obj/device_udi_cdc_desc.c.o

.debug_frame    0x0000000000000000     0x74f4
 *(.debug_frame)
 .debug_frame   0x0000000000000000      0x130 ./Debug_Linux/obj/src_tasks.c.o
 .debug_frame   0x0000000000000130       0x50 ./Debug_Linux/obj/src_main.cpp.o
 .debug_frame   0x0000000000000180       0x38 ./Debug_Linux/obj/src_boardsupport.c.o
 .debug_frame   0x00000000000001b8       0x90 ./Debug_Linux/obj/src_mavlink_telemetry.c.o
 .debug_frame   0x0000000000000248       0x84 ./Debug_Linux/obj/src_central_data.c.o
 .debug_frame   0x00000000000002cc       0xa0 ./Debug_Linux/obj/communication_mavlink_stream.c.o
 .debug_frame   0x000000000000036c      0x3bc ./Debug_Linux/obj/communication_mavlink_waypoint_handler.c.o
 .debug_frame   0x0000000000000728      0x1e4 ./Debug_Linux/obj/communication_onboard_parameters.c.o
 .debug_frame   0x000000000000090c       0xe0 ./Debug_Linux/obj/communication_mavlink_message_handler.c.o
 .debug_frame   0x00000000000009ec       0xb4 ./Debug_Linux/obj/communication_mavlink_communication.c.o
 .debug_frame   0x0000000000000aa0       0x6c ./Debug_Linux/obj/communication_console.c.o
 .debug_frame   0x0000000000000b0c       0xb4 ./Debug_Linux/obj/communication_state.c.o
 .debug_frame   0x0000000000000bc0       0x60 ./Debug_Linux/obj/communication_hud.c.o
 .debug_frame   0x0000000000000c20      0x1c0 ./Debug_Linux/obj/communication_remote.c.o
 .debug_frame   0x0000000000000de0       0x58 ./Debug_Linux/obj/communication_state_machine.c.o
 .debug_frame   0x0000000000000e38      0x298 ./Debug_Linux/obj/communication_data_logging.c.o
 .debug_frame   0x00000000000010d0       0xac ./Debug_Linux/obj/control_pid_control.c.o
 .debug_frame   0x000000000000117c      0x1e0 ./Debug_Linux/obj/control_navigation.c.o
 .debug_frame   0x000000000000135c       0xc0 ./Debug_Linux/obj/control_stabilisation_copter.c.o
 .debug_frame   0x000000000000141c       0xd8 ./Debug_Linux/obj/control_stabilisation.c.o
 .debug_frame   0x00000000000014f4       0xcc ./Debug_Linux/obj/control_attitude_error_estimator.c.o
 .debug_frame   0x00000000000015c0       0x5c ./Debug_Linux/obj/control_attitude_controller_p2.c.o
 .debug_frame   0x000000000000161c      0x138 ./Debug_Linux/obj/control_joystick_parsing.c.o
 .debug_frame   0x0000000000001754       0x50 ./Debug_Linux/obj/control_servos_mix_quadcopter_diag.c.o
 .debug_frame   0x00000000000017a4       0xd8 ./Debug_Linux/obj/hal_bmp085.c.o
 .debug_frame   0x000000000000187c       0xf8 ./Debug_Linux/obj/hal_time_keeper.c.o
 .debug_frame   0x0000000000001974      0x218 ./Debug_Linux/obj/hal_uart_int.c.o
 .debug_frame   0x0000000000001b8c      0x160 ./Debug_Linux/obj/hal_led.c.o
 .debug_frame   0x0000000000001cec      0x348 ./Debug_Linux/obj/hal_spi_buffered.c.o
 .debug_frame   0x0000000000002034      0x180 ./Debug_Linux/obj/hal_adc_int.c.o
 .debug_frame   0x00000000000021b4      0x140 ./Debug_Linux/obj/hal_dac_dma.c.o
 .debug_frame   0x00000000000022f4      0x144 ./Debug_Linux/obj/hal_ads1274.c.o
 .debug_frame   0x0000000000002438       0x8c ./Debug_Linux/obj/hal_analog_monitor.c.o
 .debug_frame   0x00000000000024c4       0x90 ./Debug_Linux/obj/hal_i2c_driver_int.c.o
 .debug_frame   0x0000000000002554       0xfc ./Debug_Linux/obj/hal_piezo_speaker.c.o
 .debug_frame   0x0000000000002650      0x138 ./Debug_Linux/obj/hal_gps_ublox.c.o
 .debug_frame   0x0000000000002788       0x6c ./Debug_Linux/obj/hal_xbee.c.o
 .debug_frame   0x00000000000027f4       0x50 ./Debug_Linux/obj/hal_hmc5883l.c.o
 .debug_frame   0x0000000000002844       0x94 ./Debug_Linux/obj/hal_lsm330dlc.c.o
 .debug_frame   0x00000000000028d8      0x108 ./Debug_Linux/obj/hal_spektrum_satellite.c.o
 .debug_frame   0x00000000000029e0       0xac ./Debug_Linux/obj/hal_servos.c.o
 .debug_frame   0x0000000000002a8c       0x74 ./Debug_Linux/obj/hal_pwm_servos.c.o
 .debug_frame   0x0000000000002b00      0x310 ./Debug_Linux/obj/hal_sd_spi.c.o
 .debug_frame   0x0000000000002e10       0xbc ./Debug_Linux/obj/hal_usb_int.c.o
 .debug_frame   0x0000000000002ecc      0x1b8 ./Debug_Linux/obj/runtime_scheduler.c.o
 .debug_frame   0x0000000000003084       0xf4 ./Debug_Linux/obj/sensing_imu.c.o
 .debug_frame   0x0000000000003178      0x174 ./Debug_Linux/obj/sensing_position_estimation.c.o
 .debug_frame   0x00000000000032ec       0x60 ./Debug_Linux/obj/sensing_qfilter.c.o
 .debug_frame   0x000000000000334c      0x284 ./Debug_Linux/obj/sensing_simulation.c.o
 .debug_frame   0x00000000000035d0       0x90 ./Debug_Linux/obj/sensing_ahrs.c.o
 .debug_frame   0x0000000000003660       0xfc ./Debug_Linux/obj/util_coord_conventions.c.o
 .debug_frame   0x000000000000375c      0x2d4 ./Debug_Linux/obj/util_print_util.c.o
 .debug_frame   0x0000000000003a30      0x12c ./Debug_Linux/obj/util_buffer.c.o
 .debug_frame   0x0000000000003b5c      0x130 ./Debug_Linux/obj/util_quick_trig.c.o
 .debug_frame   0x0000000000003c8c      0x188 ./Debug_Linux/obj/fat_fs_diskio.c.o
 .debug_frame   0x0000000000003e14      0x6c0 ./Debug_Linux/obj/fat_fs_ff.c.o
 .debug_frame   0x00000000000044d4       0x4c ./Debug_Linux/obj/option_cc932.c.o
 .debug_frame   0x0000000000004520       0x48 ./Debug_Linux/obj/option_syscall.c.o
 .debug_frame   0x0000000000004568       0x2c ./Debug_Linux/obj/user_board_init.c.o
 .debug_frame   0x0000000000004594       0x40 ./Debug_Linux/obj/stdio_read.c.o
 .debug_frame   0x00000000000045d4       0x3c ./Debug_Linux/obj/stdio_write.c.o
 .debug_frame   0x0000000000004610      0x190 ./Debug_Linux/obj/adcifa_adcifa.c.o
 .debug_frame   0x00000000000047a0      0x318 ./Debug_Linux/obj/usart_usart.c.o
 .debug_frame   0x0000000000004ab8      0x19c ./Debug_Linux/obj/twim_twim.c.o
 .debug_frame   0x0000000000004c54       0x88 ./Debug_Linux/obj/intc_intc.c.o
 .debug_frame   0x0000000000004cdc      0x224 ./Debug_Linux/obj/ast_ast.c.o
 .debug_frame   0x0000000000004f00      0x224 ./Debug_Linux/obj/pevc_pevc.c.o
 .debug_frame   0x0000000000005124      0x220 ./Debug_Linux/obj/spi_spi.c.o
 .debug_frame   0x0000000000005344      0x240 ./Debug_Linux/obj/pdca_pdca.c.o
 .debug_frame   0x0000000000005584      0x1a4 ./Debug_Linux/obj/eic_eic.c.o
 .debug_frame   0x0000000000005728       0xf8 ./Debug_Linux/obj/dacifb_dacifb.c.o
 .debug_frame   0x0000000000005820      0x94c ./Debug_Linux/obj/flashc_flashc.c.o
 .debug_frame   0x000000000000616c      0x3b8 ./Debug_Linux/obj/gpio_gpio.c.o
 .debug_frame   0x0000000000006524      0x4a4 ./Debug_Linux/obj/scif_scif_uc3c.c.o
 .debug_frame   0x00000000000069c8      0x334 ./Debug_Linux/obj/usbc_usbc_device.c.o
 .debug_frame   0x0000000000006cfc       0x48 ./Debug_Linux/obj/delay_delay.c.o
 .debug_frame   0x0000000000006d44       0xb8 ./Debug_Linux/obj/stdio_usb_stdio_usb.c.o
 .debug_frame   0x0000000000006dfc       0x70 ./Debug_Linux/obj/uc3_spi_spi_master.c.o
 .debug_frame   0x0000000000006e6c       0x64 ./Debug_Linux/obj/uc3c_pll.c.o
 .debug_frame   0x0000000000006ed0       0xf0 ./Debug_Linux/obj/uc3c_osc.c.o
 .debug_frame   0x0000000000006fc0       0xd8 ./Debug_Linux/obj/uc3c_sysclk.c.o
 .debug_frame   0x0000000000007098      0x11c ./Debug_Linux/obj/udc_udc.c.o
 .debug_frame   0x00000000000071b4      0x340 ./Debug_Linux/obj/device_udi_cdc.c.o

.debug_str      0x0000000000000000    0x15a76
 *(.debug_str)
 .debug_str     0x0000000000000000     0x281f ./Debug_Linux/obj/src_tasks.c.o
                                       0x2c26 (size before relaxing)
 .debug_str     0x000000000000281f       0xba ./Debug_Linux/obj/src_main.cpp.o
                                       0x23e9 (size before relaxing)
 .debug_str     0x00000000000028d9      0x29c ./Debug_Linux/obj/src_boardsupport.c.o
                                       0x2cc4 (size before relaxing)
 .debug_str     0x0000000000002b75       0xe9 ./Debug_Linux/obj/src_mavlink_telemetry.c.o
                                       0x2af3 (size before relaxing)
 .debug_str     0x0000000000002c5e      0x6ca ./Debug_Linux/obj/src_central_data.c.o
                                       0x30d4 (size before relaxing)
 .debug_str     0x0000000000003328      0x206 ./Debug_Linux/obj/communication_mavlink_stream.c.o
                                        0x642 (size before relaxing)
 .debug_str     0x000000000000352e     0x1326 ./Debug_Linux/obj/communication_mavlink_waypoint_handler.c.o
                                       0x2e76 (size before relaxing)
 .debug_str     0x0000000000004854      0x613 ./Debug_Linux/obj/communication_onboard_parameters.c.o
                                       0x18bb (size before relaxing)
 .debug_str     0x0000000000004e67      0x342 ./Debug_Linux/obj/communication_mavlink_message_handler.c.o
                                        0xfbb (size before relaxing)
 .debug_str     0x00000000000051a9      0x267 ./Debug_Linux/obj/communication_mavlink_communication.c.o
                                       0x111b (size before relaxing)
 .debug_str     0x0000000000005410      0x7c9 ./Debug_Linux/obj/communication_console.c.o
                                        0xa36 (size before relaxing)
 .debug_str     0x0000000000005bd9      0x2a5 ./Debug_Linux/obj/communication_state.c.o
                                       0x10b1 (size before relaxing)
 .debug_str     0x0000000000005e7e       0xc0 ./Debug_Linux/obj/communication_hud.c.o
                                       0x1122 (size before relaxing)
 .debug_str     0x0000000000005f3e      0x277 ./Debug_Linux/obj/communication_remote.c.o
                                        0xc5b (size before relaxing)
 .debug_str     0x00000000000061b5      0x1d4 ./Debug_Linux/obj/communication_state_machine.c.o
                                       0x2122 (size before relaxing)
 .debug_str     0x0000000000006389      0x30e ./Debug_Linux/obj/communication_data_logging.c.o
                                        0x9ba (size before relaxing)
 .debug_str     0x0000000000006697      0x165 ./Debug_Linux/obj/control_pid_control.c.o
                                        0x344 (size before relaxing)
 .debug_str     0x00000000000067fc      0x2ea ./Debug_Linux/obj/control_navigation.c.o
                                       0x2456 (size before relaxing)
 .debug_str     0x0000000000006ae6      0x1d3 ./Debug_Linux/obj/control_stabilisation_copter.c.o
                                       0x13a2 (size before relaxing)
 .debug_str     0x0000000000006cb9      0x1d8 ./Debug_Linux/obj/control_stabilisation.c.o
                                        0x901 (size before relaxing)
 .debug_str     0x0000000000006e91      0x148 ./Debug_Linux/obj/control_attitude_error_estimator.c.o
                                        0x615 (size before relaxing)
 .debug_str     0x0000000000006fd9       0xaa ./Debug_Linux/obj/control_attitude_controller_p2.c.o
                                        0x636 (size before relaxing)
 .debug_str     0x0000000000007083      0x3f3 ./Debug_Linux/obj/control_joystick_parsing.c.o
                                       0x17e7 (size before relaxing)
 .debug_str     0x0000000000007476       0xb5 ./Debug_Linux/obj/control_servos_mix_quadcopter_diag.c.o
                                        0x671 (size before relaxing)
 .debug_str     0x000000000000752b      0x3e3 ./Debug_Linux/obj/hal_bmp085.c.o
                                        0xa97 (size before relaxing)
 .debug_str     0x000000000000790e      0x2f7 ./Debug_Linux/obj/hal_time_keeper.c.o
                                        0x455 (size before relaxing)
 .debug_str     0x0000000000007c05      0x1a5 ./Debug_Linux/obj/hal_uart_int.c.o
                                        0xaa2 (size before relaxing)
 .debug_str     0x0000000000007daa      0x385 ./Debug_Linux/obj/hal_led.c.o
                                        0x4e4 (size before relaxing)
 .debug_str     0x000000000000812f      0x960 ./Debug_Linux/obj/hal_spi_buffered.c.o
                                        0xb42 (size before relaxing)
 .debug_str     0x0000000000008a8f      0x96e ./Debug_Linux/obj/hal_adc_int.c.o
                                        0xbe3 (size before relaxing)
 .debug_str     0x00000000000093fd      0x621 ./Debug_Linux/obj/hal_dac_dma.c.o
                                        0xa4f (size before relaxing)
 .debug_str     0x0000000000009a1e      0xa43 ./Debug_Linux/obj/hal_ads1274.c.o
                                        0xf6d (size before relaxing)
 .debug_str     0x000000000000a461       0xd2 ./Debug_Linux/obj/hal_analog_monitor.c.o
                                        0x2c8 (size before relaxing)
 .debug_str     0x000000000000a533      0x1ff ./Debug_Linux/obj/hal_i2c_driver_int.c.o
                                        0x68f (size before relaxing)
 .debug_str     0x000000000000a732      0x191 ./Debug_Linux/obj/hal_piezo_speaker.c.o
                                        0x2a2 (size before relaxing)
 .debug_str     0x000000000000a8c3      0xc45 ./Debug_Linux/obj/hal_gps_ublox.c.o
                                       0x1c76 (size before relaxing)
 .debug_str     0x000000000000b508       0xc3 ./Debug_Linux/obj/hal_xbee.c.o
                                        0x8fb (size before relaxing)
 .debug_str     0x000000000000b5cb      0x201 ./Debug_Linux/obj/hal_hmc5883l.c.o
                                        0x5ff (size before relaxing)
 .debug_str     0x000000000000b7cc      0x2ca ./Debug_Linux/obj/hal_lsm330dlc.c.o
                                        0x6f8 (size before relaxing)
 .debug_str     0x000000000000ba96      0x20f ./Debug_Linux/obj/hal_spektrum_satellite.c.o
                                        0xa69 (size before relaxing)
 .debug_str     0x000000000000bca5      0x126 ./Debug_Linux/obj/hal_servos.c.o
                                        0x736 (size before relaxing)
 .debug_str     0x000000000000bdcb      0x982 ./Debug_Linux/obj/hal_pwm_servos.c.o
                                        0xebc (size before relaxing)
 .debug_str     0x000000000000c74d      0x482 ./Debug_Linux/obj/hal_sd_spi.c.o
                                        0xa7d (size before relaxing)
 .debug_str     0x000000000000cbcf       0xe8 ./Debug_Linux/obj/hal_usb_int.c.o
                                        0x27a (size before relaxing)
 .debug_str     0x000000000000ccb7      0x209 ./Debug_Linux/obj/runtime_scheduler.c.o
                                        0x9fd (size before relaxing)
 .debug_str     0x000000000000cec0      0x11a ./Debug_Linux/obj/sensing_imu.c.o
                                        0x7cd (size before relaxing)
 .debug_str     0x000000000000cfda      0x2cd ./Debug_Linux/obj/sensing_position_estimation.c.o
                                       0x1aa7 (size before relaxing)
 .debug_str     0x000000000000d2a7       0xd1 ./Debug_Linux/obj/sensing_qfilter.c.o
                                        0x73f (size before relaxing)
 .debug_str     0x000000000000d378      0x357 ./Debug_Linux/obj/sensing_simulation.c.o
                                       0x1e58 (size before relaxing)
 .debug_str     0x000000000000d6cf       0xd2 ./Debug_Linux/obj/sensing_ahrs.c.o
                                        0x6b5 (size before relaxing)
 .debug_str     0x000000000000d7a1      0x125 ./Debug_Linux/obj/util_coord_conventions.c.o
                                        0x271 (size before relaxing)
 .debug_str     0x000000000000d8c6      0x22b ./Debug_Linux/obj/util_print_util.c.o
                                        0x3dd (size before relaxing)
 .debug_str     0x000000000000daf1       0xf8 ./Debug_Linux/obj/util_buffer.c.o
                                        0x285 (size before relaxing)
 .debug_str     0x000000000000dbe9      0x17a ./Debug_Linux/obj/util_quick_trig.c.o
                                        0x255 (size before relaxing)
 .debug_str     0x000000000000dd63      0x1ad ./Debug_Linux/obj/fat_fs_diskio.c.o
                                        0x4d3 (size before relaxing)
 .debug_str     0x000000000000df10      0x354 ./Debug_Linux/obj/fat_fs_ff.c.o
                                        0x645 (size before relaxing)
 .debug_str     0x000000000000e264       0xa0 ./Debug_Linux/obj/option_cc932.c.o
                                        0x10f (size before relaxing)
 .debug_str     0x000000000000e304       0x89 ./Debug_Linux/obj/option_syscall.c.o
                                        0x123 (size before relaxing)
 .debug_str     0x000000000000e38d       0x74 ./Debug_Linux/obj/user_board_init.c.o
                                        0x15d (size before relaxing)
 .debug_str     0x000000000000e401       0x7d ./Debug_Linux/obj/stdio_read.c.o
                                        0x171 (size before relaxing)
 .debug_str     0x000000000000e47e       0x6c ./Debug_Linux/obj/stdio_write.c.o
                                        0x173 (size before relaxing)
 .debug_str     0x000000000000e4ea      0x291 ./Debug_Linux/obj/adcifa_adcifa.c.o
                                        0xacd (size before relaxing)
 .debug_str     0x000000000000e77b      0x3d6 ./Debug_Linux/obj/usart_usart.c.o
                                        0xb26 (size before relaxing)
 .debug_str     0x000000000000eb51      0x2c9 ./Debug_Linux/obj/twim_twim.c.o
                                        0x735 (size before relaxing)
 .debug_str     0x000000000000ee1a      0x684 ./Debug_Linux/obj/intc_intc.c.o
                                        0x781 (size before relaxing)
 .debug_str     0x000000000000f49e      0x241 ./Debug_Linux/obj/ast_ast.c.o
                                        0x558 (size before relaxing)
 .debug_str     0x000000000000f6df      0x2de ./Debug_Linux/obj/pevc_pevc.c.o
                                        0x57b (size before relaxing)
 .debug_str     0x000000000000f9bd      0x1cd ./Debug_Linux/obj/spi_spi.c.o
                                        0x699 (size before relaxing)
 .debug_str     0x000000000000fb8a      0x292 ./Debug_Linux/obj/pdca_pdca.c.o
                                        0x645 (size before relaxing)
 .debug_str     0x000000000000fe1c      0x1bd ./Debug_Linux/obj/eic_eic.c.o
                                        0x4e5 (size before relaxing)
 .debug_str     0x000000000000ffd9      0x1a4 ./Debug_Linux/obj/dacifb_dacifb.c.o
                                        0x5ea (size before relaxing)
 .debug_str     0x000000000001017d      0xaba ./Debug_Linux/obj/flashc_flashc.c.o
                                        0xcb8 (size before relaxing)
 .debug_str     0x0000000000010c37      0x39c ./Debug_Linux/obj/gpio_gpio.c.o
                                        0x71a (size before relaxing)
 .debug_str     0x0000000000010fd3      0x5be ./Debug_Linux/obj/scif_scif_uc3c.c.o
                                        0xc72 (size before relaxing)
 .debug_str     0x0000000000011591     0x2c07 ./Debug_Linux/obj/usbc_usbc_device.c.o
                                       0x2fe7 (size before relaxing)
 .debug_str     0x0000000000014198       0x94 ./Debug_Linux/obj/delay_delay.c.o
                                        0x218 (size before relaxing)
 .debug_str     0x000000000001422c      0x13b ./Debug_Linux/obj/stdio_usb_stdio_usb.c.o
                                        0x24a (size before relaxing)
 .debug_str     0x0000000000014367       0x71 ./Debug_Linux/obj/uc3_sleepmgr.c.o
                                        0x201 (size before relaxing)
 .debug_str     0x00000000000143d8      0x1aa ./Debug_Linux/obj/uc3_spi_spi_master.c.o
                                        0x703 (size before relaxing)
 .debug_str     0x0000000000014582       0x8d ./Debug_Linux/obj/uc3c_pll.c.o
                                        0x62b (size before relaxing)
 .debug_str     0x000000000001460f      0x11c ./Debug_Linux/obj/uc3c_osc.c.o
                                        0x6b4 (size before relaxing)
 .debug_str     0x000000000001472b      0x206 ./Debug_Linux/obj/uc3c_sysclk.c.o
                                        0xc9f (size before relaxing)
 .debug_str     0x0000000000014931      0x984 ./Debug_Linux/obj/udc_udc.c.o
                                        0xb54 (size before relaxing)
 .debug_str     0x00000000000152b5      0x5e4 ./Debug_Linux/obj/device_udi_cdc.c.o
                                        0x857 (size before relaxing)
 .debug_str     0x0000000000015899      0x1dd ./Debug_Linux/obj/device_udi_cdc_desc.c.o
                                        0x6b4 (size before relaxing)

.debug_loc      0x0000000000000000    0x1cbbd
 *(.debug_loc)
 .debug_loc     0x0000000000000000      0x1ca ./Debug_Linux/obj/src_tasks.c.o
 .debug_loc     0x00000000000001ca       0x56 ./Debug_Linux/obj/src_main.cpp.o
 .debug_loc     0x0000000000000220       0x88 ./Debug_Linux/obj/src_boardsupport.c.o
 .debug_loc     0x00000000000002a8       0xbd ./Debug_Linux/obj/src_mavlink_telemetry.c.o
 .debug_loc     0x0000000000000365       0x56 ./Debug_Linux/obj/src_central_data.c.o
 .debug_loc     0x00000000000003bb      0x2a0 ./Debug_Linux/obj/communication_mavlink_stream.c.o
 .debug_loc     0x000000000000065b     0x15e6 ./Debug_Linux/obj/communication_mavlink_waypoint_handler.c.o
 .debug_loc     0x0000000000001c41      0x9de ./Debug_Linux/obj/communication_onboard_parameters.c.o
 .debug_loc     0x000000000000261f      0x38c ./Debug_Linux/obj/communication_mavlink_message_handler.c.o
 .debug_loc     0x00000000000029ab      0x225 ./Debug_Linux/obj/communication_mavlink_communication.c.o
 .debug_loc     0x0000000000002bd0       0xb5 ./Debug_Linux/obj/communication_console.c.o
 .debug_loc     0x0000000000002c85      0x370 ./Debug_Linux/obj/communication_state.c.o
 .debug_loc     0x0000000000002ff5      0x1f4 ./Debug_Linux/obj/communication_hud.c.o
 .debug_loc     0x00000000000031e9      0x536 ./Debug_Linux/obj/communication_remote.c.o
 .debug_loc     0x000000000000371f      0x203 ./Debug_Linux/obj/communication_state_machine.c.o
 .debug_loc     0x0000000000003922      0xf8d ./Debug_Linux/obj/communication_data_logging.c.o
 .debug_loc     0x00000000000048af      0x27d ./Debug_Linux/obj/control_pid_control.c.o
 .debug_loc     0x0000000000004b2c      0x997 ./Debug_Linux/obj/control_navigation.c.o
 .debug_loc     0x00000000000054c3      0x2fc ./Debug_Linux/obj/control_stabilisation_copter.c.o
 .debug_loc     0x00000000000057bf      0x2f8 ./Debug_Linux/obj/control_stabilisation.c.o
 .debug_loc     0x0000000000005ab7      0x126 ./Debug_Linux/obj/control_attitude_error_estimator.c.o
 .debug_loc     0x0000000000005bdd       0xe9 ./Debug_Linux/obj/control_attitude_controller_p2.c.o
 .debug_loc     0x0000000000005cc6      0x4fd ./Debug_Linux/obj/control_joystick_parsing.c.o
 .debug_loc     0x00000000000061c3       0x87 ./Debug_Linux/obj/control_servos_mix_quadcopter_diag.c.o
 .debug_loc     0x000000000000624a      0x44b ./Debug_Linux/obj/hal_bmp085.c.o
 .debug_loc     0x0000000000006695      0x1a7 ./Debug_Linux/obj/hal_time_keeper.c.o
 .debug_loc     0x000000000000683c      0x4e7 ./Debug_Linux/obj/hal_uart_int.c.o
 .debug_loc     0x0000000000006d23      0x340 ./Debug_Linux/obj/hal_led.c.o
 .debug_loc     0x0000000000007063      0x6d6 ./Debug_Linux/obj/hal_spi_buffered.c.o
 .debug_loc     0x0000000000007739      0x341 ./Debug_Linux/obj/hal_adc_int.c.o
 .debug_loc     0x0000000000007a7a      0x22e ./Debug_Linux/obj/hal_dac_dma.c.o
 .debug_loc     0x0000000000007ca8      0x205 ./Debug_Linux/obj/hal_ads1274.c.o
 .debug_loc     0x0000000000007ead      0x1ad ./Debug_Linux/obj/hal_analog_monitor.c.o
 .debug_loc     0x000000000000805a      0x1a7 ./Debug_Linux/obj/hal_i2c_driver_int.c.o
 .debug_loc     0x0000000000008201      0x1e3 ./Debug_Linux/obj/hal_piezo_speaker.c.o
 .debug_loc     0x00000000000083e4      0xc90 ./Debug_Linux/obj/hal_gps_ublox.c.o
 .debug_loc     0x0000000000009074       0x9f ./Debug_Linux/obj/hal_xbee.c.o
 .debug_loc     0x0000000000009113       0x74 ./Debug_Linux/obj/hal_hmc5883l.c.o
 .debug_loc     0x0000000000009187      0x101 ./Debug_Linux/obj/hal_lsm330dlc.c.o
 .debug_loc     0x0000000000009288      0x21f ./Debug_Linux/obj/hal_spektrum_satellite.c.o
 .debug_loc     0x00000000000094a7      0x22a ./Debug_Linux/obj/hal_servos.c.o
 .debug_loc     0x00000000000096d1      0x11f ./Debug_Linux/obj/hal_pwm_servos.c.o
 .debug_loc     0x00000000000097f0      0xb73 ./Debug_Linux/obj/hal_sd_spi.c.o
 .debug_loc     0x000000000000a363      0x133 ./Debug_Linux/obj/hal_usb_int.c.o
 .debug_loc     0x000000000000a496      0x926 ./Debug_Linux/obj/runtime_scheduler.c.o
 .debug_loc     0x000000000000adbc      0x26d ./Debug_Linux/obj/sensing_imu.c.o
 .debug_loc     0x000000000000b029      0x45b ./Debug_Linux/obj/sensing_position_estimation.c.o
 .debug_loc     0x000000000000b484      0x27a ./Debug_Linux/obj/sensing_qfilter.c.o
 .debug_loc     0x000000000000b6fe      0x72d ./Debug_Linux/obj/sensing_simulation.c.o
 .debug_loc     0x000000000000be2b      0x197 ./Debug_Linux/obj/sensing_ahrs.c.o
 .debug_loc     0x000000000000bfc2      0x141 ./Debug_Linux/obj/util_coord_conventions.c.o
 .debug_loc     0x000000000000c103      0xd24 ./Debug_Linux/obj/util_print_util.c.o
 .debug_loc     0x000000000000ce27      0x2a6 ./Debug_Linux/obj/util_buffer.c.o
 .debug_loc     0x000000000000d0cd      0x86c ./Debug_Linux/obj/util_quick_trig.c.o
 .debug_loc     0x000000000000d939      0x8b5 ./Debug_Linux/obj/fat_fs_diskio.c.o
 .debug_loc     0x000000000000e1ee     0x5b3a ./Debug_Linux/obj/fat_fs_ff.c.o
 .debug_loc     0x0000000000013d28      0x1b1 ./Debug_Linux/obj/option_cc932.c.o
 .debug_loc     0x0000000000013ed9       0x7c ./Debug_Linux/obj/option_syscall.c.o
 .debug_loc     0x0000000000013f55       0x2b ./Debug_Linux/obj/user_board_init.c.o
 .debug_loc     0x0000000000013f80      0x104 ./Debug_Linux/obj/stdio_read.c.o
 .debug_loc     0x0000000000014084       0xb9 ./Debug_Linux/obj/stdio_write.c.o
 .debug_loc     0x000000000001413d      0x40a ./Debug_Linux/obj/adcifa_adcifa.c.o
 .debug_loc     0x0000000000014547      0xc66 ./Debug_Linux/obj/usart_usart.c.o
 .debug_loc     0x00000000000151ad      0x674 ./Debug_Linux/obj/twim_twim.c.o
 .debug_loc     0x0000000000015821      0x121 ./Debug_Linux/obj/intc_intc.c.o
 .debug_loc     0x0000000000015942      0x3c9 ./Debug_Linux/obj/ast_ast.c.o
 .debug_loc     0x0000000000015d0b      0x591 ./Debug_Linux/obj/pevc_pevc.c.o
 .debug_loc     0x000000000001629c      0x601 ./Debug_Linux/obj/spi_spi.c.o
 .debug_loc     0x000000000001689d      0x874 ./Debug_Linux/obj/pdca_pdca.c.o
 .debug_loc     0x0000000000017111      0x2b9 ./Debug_Linux/obj/eic_eic.c.o
 .debug_loc     0x00000000000173ca      0x3e6 ./Debug_Linux/obj/dacifb_dacifb.c.o
 .debug_loc     0x00000000000177b0     0x22ac ./Debug_Linux/obj/flashc_flashc.c.o
 .debug_loc     0x0000000000019a5c      0x9b4 ./Debug_Linux/obj/gpio_gpio.c.o
 .debug_loc     0x000000000001a410      0x9f0 ./Debug_Linux/obj/scif_scif_uc3c.c.o
 .debug_loc     0x000000000001ae00      0x92c ./Debug_Linux/obj/usbc_usbc_device.c.o
 .debug_loc     0x000000000001b72c       0x69 ./Debug_Linux/obj/delay_delay.c.o
 .debug_loc     0x000000000001b795      0x195 ./Debug_Linux/obj/stdio_usb_stdio_usb.c.o
 .debug_loc     0x000000000001b92a      0x1e7 ./Debug_Linux/obj/uc3_spi_spi_master.c.o
 .debug_loc     0x000000000001bb11       0xba ./Debug_Linux/obj/uc3c_pll.c.o
 .debug_loc     0x000000000001bbcb      0x176 ./Debug_Linux/obj/uc3c_osc.c.o
 .debug_loc     0x000000000001bd41      0x266 ./Debug_Linux/obj/uc3c_sysclk.c.o
 .debug_loc     0x000000000001bfa7      0x523 ./Debug_Linux/obj/udc_udc.c.o
 .debug_loc     0x000000000001c4ca      0x6f3 ./Debug_Linux/obj/device_udi_cdc.c.o

.debug_macinfo
 *(.debug_macinfo)

.debug_weaknames
 *(.debug_weaknames)

.debug_funcnames
 *(.debug_funcnames)

.debug_typenames
 *(.debug_typenames)

.debug_varnames
 *(.debug_varnames)

.stack          0x000000000000f000     0x1000
                0x000000000000f000                _stack = .
 *(.stack)
                0x0000000000001000                . = _stack_size
 *fill*         0x000000000000f000     0x1000 
                0x0000000000010000                _estack = .

.userpage
 *(.userpage .userpage.*)

.factorypage
 *(.factorypage .factorypage.*)

.flashvault_flash_size
 *(.flashvault_flash_size .flashvault_flash_size.*)

.flashvault_ram_size
 *(.flashvault_ram_size .flashvault_ram_size.*)

/DISCARD/
 *(.note.GNU-stack)
OUTPUT(./Debug_Linux/obj/../Mavric_MobRob_linux.elf elf32-avr32)

.debug_ranges   0x0000000000000000    0x10d08
 .debug_ranges  0x0000000000000000       0x30 ./Debug_Linux/obj/src_tasks.c.o
 .debug_ranges  0x0000000000000030      0x250 ./Debug_Linux/obj/communication_mavlink_stream.c.o
 .debug_ranges  0x0000000000000280     0x2280 ./Debug_Linux/obj/communication_mavlink_waypoint_handler.c.o
 .debug_ranges  0x0000000000002500      0x538 ./Debug_Linux/obj/communication_onboard_parameters.c.o
 .debug_ranges  0x0000000000002a38      0x200 ./Debug_Linux/obj/communication_mavlink_message_handler.c.o
 .debug_ranges  0x0000000000002c38       0x90 ./Debug_Linux/obj/communication_mavlink_communication.c.o
 .debug_ranges  0x0000000000002cc8      0x4b8 ./Debug_Linux/obj/communication_state.c.o
 .debug_ranges  0x0000000000003180      0x208 ./Debug_Linux/obj/communication_hud.c.o
 .debug_ranges  0x0000000000003388      0x8e8 ./Debug_Linux/obj/communication_remote.c.o
 .debug_ranges  0x0000000000003c70      0x260 ./Debug_Linux/obj/communication_data_logging.c.o
 .debug_ranges  0x0000000000003ed0      0x100 ./Debug_Linux/obj/control_pid_control.c.o
 .debug_ranges  0x0000000000003fd0      0x980 ./Debug_Linux/obj/control_navigation.c.o
 .debug_ranges  0x0000000000004950      0x340 ./Debug_Linux/obj/control_stabilisation_copter.c.o
 .debug_ranges  0x0000000000004c90      0x540 ./Debug_Linux/obj/control_stabilisation.c.o
 .debug_ranges  0x00000000000051d0      0x180 ./Debug_Linux/obj/control_attitude_error_estimator.c.o
 .debug_ranges  0x0000000000005350      0x618 ./Debug_Linux/obj/control_joystick_parsing.c.o
 .debug_ranges  0x0000000000005968      0x3c8 ./Debug_Linux/obj/hal_bmp085.c.o
 .debug_ranges  0x0000000000005d30       0x18 ./Debug_Linux/obj/hal_uart_int.c.o
 .debug_ranges  0x0000000000005d48       0x40 ./Debug_Linux/obj/hal_led.c.o
 .debug_ranges  0x0000000000005d88      0x258 ./Debug_Linux/obj/hal_spi_buffered.c.o
 .debug_ranges  0x0000000000005fe0       0x30 ./Debug_Linux/obj/hal_dac_dma.c.o
 .debug_ranges  0x0000000000006010       0x80 ./Debug_Linux/obj/hal_ads1274.c.o
 .debug_ranges  0x0000000000006090      0x120 ./Debug_Linux/obj/hal_analog_monitor.c.o
 .debug_ranges  0x00000000000061b0       0x28 ./Debug_Linux/obj/hal_piezo_speaker.c.o
 .debug_ranges  0x00000000000061d8      0x9d8 ./Debug_Linux/obj/hal_gps_ublox.c.o
 .debug_ranges  0x0000000000006bb0       0x30 ./Debug_Linux/obj/hal_lsm330dlc.c.o
 .debug_ranges  0x0000000000006be0       0xf8 ./Debug_Linux/obj/hal_spektrum_satellite.c.o
 .debug_ranges  0x0000000000006cd8      0x360 ./Debug_Linux/obj/hal_servos.c.o
 .debug_ranges  0x0000000000007038      0x120 ./Debug_Linux/obj/hal_pwm_servos.c.o
 .debug_ranges  0x0000000000007158      0xa80 ./Debug_Linux/obj/hal_sd_spi.c.o
 .debug_ranges  0x0000000000007bd8      0x780 ./Debug_Linux/obj/runtime_scheduler.c.o
 .debug_ranges  0x0000000000008358      0x7b8 ./Debug_Linux/obj/sensing_imu.c.o
 .debug_ranges  0x0000000000008b10      0x840 ./Debug_Linux/obj/sensing_position_estimation.c.o
 .debug_ranges  0x0000000000009350      0x6c0 ./Debug_Linux/obj/sensing_qfilter.c.o
 .debug_ranges  0x0000000000009a10     0x16e0 ./Debug_Linux/obj/sensing_simulation.c.o
 .debug_ranges  0x000000000000b0f0      0x3e0 ./Debug_Linux/obj/sensing_ahrs.c.o
 .debug_ranges  0x000000000000b4d0      0x1d8 ./Debug_Linux/obj/util_print_util.c.o
 .debug_ranges  0x000000000000b6a8      0x738 ./Debug_Linux/obj/util_quick_trig.c.o
 .debug_ranges  0x000000000000bde0      0x310 ./Debug_Linux/obj/fat_fs_diskio.c.o
 .debug_ranges  0x000000000000c0f0     0x14c0 ./Debug_Linux/obj/fat_fs_ff.c.o
 .debug_ranges  0x000000000000d5b0       0x18 ./Debug_Linux/obj/stdio_read.c.o
 .debug_ranges  0x000000000000d5c8       0x20 ./Debug_Linux/obj/adcifa_adcifa.c.o
 .debug_ranges  0x000000000000d5e8      0x4f0 ./Debug_Linux/obj/usart_usart.c.o
 .debug_ranges  0x000000000000dad8      0x280 ./Debug_Linux/obj/twim_twim.c.o
 .debug_ranges  0x000000000000dd58      0x410 ./Debug_Linux/obj/pdca_pdca.c.o
 .debug_ranges  0x000000000000e168       0x80 ./Debug_Linux/obj/dacifb_dacifb.c.o
 .debug_ranges  0x000000000000e1e8     0x1f88 ./Debug_Linux/obj/flashc_flashc.c.o
 .debug_ranges  0x0000000000010170       0x80 ./Debug_Linux/obj/gpio_gpio.c.o
 .debug_ranges  0x00000000000101f0      0x138 ./Debug_Linux/obj/scif_scif_uc3c.c.o
 .debug_ranges  0x0000000000010328      0x308 ./Debug_Linux/obj/usbc_usbc_device.c.o
 .debug_ranges  0x0000000000010630      0x150 ./Debug_Linux/obj/uc3_spi_spi_master.c.o
 .debug_ranges  0x0000000000010780       0x90 ./Debug_Linux/obj/uc3c_sysclk.c.o
 .debug_ranges  0x0000000000010810      0x388 ./Debug_Linux/obj/udc_udc.c.o
 .debug_ranges  0x0000000000010b98      0x170 ./Debug_Linux/obj/device_udi_cdc.c.o
